ccopy_reg
_reconstructor
p0
(cnltk.classify.maxent
MaxentClassifier
p1
c__builtin__
object
p2
Ntp3
Rp4
(dp5
S'_logarithmic'
p6
I01
sS'_encoding'
p7
g0
(cnltk.classify.maxent
GISEncoding
p8
g2
Ntp9
Rp10
(dp11
S'_labels'
p12
(lp13
S'positive'
p14
aS'negative'
p15
asS'_C'
p16
I70
sS'_inv_mapping'
p17
(lp18
(Vcontains follow say please
p19
I00
g14
tp20
a(Vcontains say please liam
p21
I00
g14
tp22
a(Vcontains likedislike acc fan
p23
I00
g14
tp24
a(Vcontains acc fan acc
p25
I00
g14
tp26
a(Vcontains existence
p27
I00
g14
tp28
a(Vcontains existence follow say
p29
I00
g14
tp30
a(Vcontains radio music
p31
I00
g14
tp32
a(Vcontains please
p33
I00
g14
tp34
a(Vcontains babe
p35
I00
g14
tp36
a(Vcontains ugh dislike radio
p37
I00
g14
tp38
a(Vcontains fan
p39
I00
g14
tp40
a(Vcontains you
p41
I00
g14
tp42
a(Vcontains acknowledge
p43
I00
g14
tp44
a(Vcontains every
p45
I01
g14
tp46
a(Vcontains dabiebahcrew likedislike
p47
I00
g14
tp48
a(Vcontains babe birthday
p49
I00
g14
tp50
a(Vcontains getting
p51
I01
g14
tp52
a(Vcontains days
p53
I00
g14
tp54
a(Vcontains acc fan
p55
I00
g14
tp56
a(Vcontains liam love
p57
I00
g14
tp58
a(Vcontains dislike radio music
p59
I00
g14
tp60
a(Vcontains paid every
p61
I00
g14
tp62
a(Vcontains paid
p63
I01
g14
tp64
a(Vcontains acc pls
p65
I00
g14
tp66
a(Vcontains pls
p67
I00
g14
tp68
a(Vcontains birthday days
p69
I00
g14
tp70
a(Vcontains days please acknowledge
p71
I00
g14
tp72
a(Vcontains fan acc pls
p73
I00
g14
tp74
a(Vcontains dislike
p75
I00
g14
tp76
a(Vcontains likedislike
p77
I00
g14
tp78
a(Vcontains babe birthday days
p79
I00
g14
tp80
a(Vcontains dabiebahcrew
p81
I00
g14
tp82
a(Vcontains dislike radio
p83
I00
g14
tp84
a(Vcontains getting paid
p85
I00
g14
tp86
a(Vcontains acc
p87
I00
g14
tp88
a(Vcontains paid every friday
p89
I00
g14
tp90
a(Vcontains please liam love
p91
I00
g14
tp92
a(Vcontains music
p93
I00
g14
tp94
a(Vcontains say please
p95
I00
g14
tp96
a(Vcontains love
p97
I01
g14
tp98
a(Vcontains say
p99
I00
g14
tp100
a(Vcontains ugh
p101
I00
g14
tp102
a(Vcontains follow say
p103
I00
g14
tp104
a(Vcontains love you
p105
I00
g14
tp106
a(Vcontains love getting paid
p107
I00
g14
tp108
a(Vcontains radio
p109
I00
g14
tp110
a(Vcontains days please
p111
I00
g14
tp112
a(Vcontains existence follow
p113
I00
g14
tp114
a(Vcontains liampayne babe
p115
I00
g14
tp116
a(Vcontains birthday days please
p117
I00
g14
tp118
a(Vcontains friday
p119
I01
g14
tp120
a(Vcontains please acknowledge
p121
I00
g14
tp122
a(Vcontains getting paid every
p123
I00
g14
tp124
a(Vcontains dabiebahcrew likedislike acc
p125
I00
g14
tp126
a(Vcontains acknowledge existence follow
p127
I00
g14
tp128
a(Vcontains acknowledge existence
p129
I00
g14
tp130
a(Vcontains ugh dislike
p131
I00
g14
tp132
a(Vcontains please acknowledge existence
p133
I00
g14
tp134
a(Vcontains liampayne
p135
I00
g14
tp136
a(Vcontains liam
p137
I00
g14
tp138
a(Vcontains follow
p139
I00
g14
tp140
a(Vcontains every friday
p141
I00
g14
tp142
a(Vcontains love getting
p143
I00
g14
tp144
a(Vcontains liampayne babe birthday
p145
I00
g14
tp146
a(Vcontains please liam
p147
I00
g14
tp148
a(Vcontains birthday
p149
I00
g14
tp150
a(Vcontains liam love you
p151
I00
g14
tp152
a(Vcontains likedislike acc
p153
I00
g14
tp154
a(Vcontains fan acc
p155
I00
g14
tp156
a(Vcontains every
p157
I00
g14
tp158
a(Vcontains getting
p159
I00
g14
tp160
a(Vcontains paid every
p161
I01
g14
tp162
a(Vcontains paid
p163
I00
g14
tp164
a(Vcontains getting paid
p165
I01
g14
tp166
a(Vcontains love
p167
I00
g14
tp168
a(Vcontains friday
p169
I00
g14
tp170
a(Vcontains every friday
p171
I01
g14
tp172
a(Vcontains love getting
p173
I01
g14
tp174
a(Vcontains paid every friday
p175
I01
g14
tp176
a(Vcontains love getting paid
p177
I01
g14
tp178
a(Vcontains getting paid every
p179
I01
g14
tp180
a(Vcontains existence
p181
I01
g14
tp182
a(Vcontains please
p183
I01
g14
tp184
a(Vcontains babe
p185
I01
g14
tp186
a(Vcontains you
p187
I01
g14
tp188
a(Vcontains acknowledge
p189
I01
g14
tp190
a(Vcontains days
p191
I01
g14
tp192
a(Vcontains say
p193
I01
g14
tp194
a(Vcontains liampayne
p195
I01
g14
tp196
a(Vcontains liam
p197
I01
g14
tp198
a(Vcontains follow
p199
I01
g14
tp200
a(Vcontains birthday
p201
I01
g14
tp202
a(Vcontains babe birthday
p203
I01
g14
tp204
a(Vcontains liam love
p205
I01
g14
tp206
a(Vcontains birthday days
p207
I01
g14
tp208
a(Vcontains say please
p209
I01
g14
tp210
a(Vcontains follow say
p211
I01
g14
tp212
a(Vcontains love you
p213
I01
g14
tp214
a(Vcontains days please
p215
I01
g14
tp216
a(Vcontains existence follow
p217
I01
g14
tp218
a(Vcontains liampayne babe
p219
I01
g14
tp220
a(Vcontains please acknowledge
p221
I01
g14
tp222
a(Vcontains acknowledge existence
p223
I01
g14
tp224
a(Vcontains please liam
p225
I01
g14
tp226
a(Vcontains follow say please
p227
I01
g14
tp228
a(Vcontains say please liam
p229
I01
g14
tp230
a(Vcontains existence follow say
p231
I01
g14
tp232
a(Vcontains days please acknowledge
p233
I01
g14
tp234
a(Vcontains babe birthday days
p235
I01
g14
tp236
a(Vcontains please liam love
p237
I01
g14
tp238
a(Vcontains birthday days please
p239
I01
g14
tp240
a(Vcontains acknowledge existence follow
p241
I01
g14
tp242
a(Vcontains please acknowledge existence
p243
I01
g14
tp244
a(Vcontains liampayne babe birthday
p245
I01
g14
tp246
a(Vcontains liam love you
p247
I01
g14
tp248
a(Vcontains follow say please
p249
I00
g15
tp250
a(Vcontains say please liam
p251
I00
g15
tp252
a(Vcontains likedislike acc fan
p253
I00
g15
tp254
a(Vcontains acc fan acc
p255
I00
g15
tp256
a(Vcontains existence
p257
I00
g15
tp258
a(Vcontains existence follow say
p259
I00
g15
tp260
a(Vcontains radio music
p261
I00
g15
tp262
a(Vcontains please
p263
I00
g15
tp264
a(Vcontains babe
p265
I00
g15
tp266
a(Vcontains ugh dislike radio
p267
I00
g15
tp268
a(Vcontains fan
p269
I01
g15
tp270
a(Vcontains you
p271
I00
g15
tp272
a(Vcontains acknowledge
p273
I00
g15
tp274
a(Vcontains every
p275
I00
g15
tp276
a(Vcontains dabiebahcrew likedislike
p277
I00
g15
tp278
a(Vcontains babe birthday
p279
I00
g15
tp280
a(Vcontains getting
p281
I00
g15
tp282
a(Vcontains days
p283
I00
g15
tp284
a(Vcontains acc fan
p285
I00
g15
tp286
a(Vcontains liam love
p287
I00
g15
tp288
a(Vcontains dislike radio music
p289
I00
g15
tp290
a(Vcontains paid every
p291
I00
g15
tp292
a(Vcontains paid
p293
I00
g15
tp294
a(Vcontains acc pls
p295
I00
g15
tp296
a(Vcontains pls
p297
I01
g15
tp298
a(Vcontains birthday days
p299
I00
g15
tp300
a(Vcontains days please acknowledge
p301
I00
g15
tp302
a(Vcontains fan acc pls
p303
I00
g15
tp304
a(Vcontains dislike
p305
I00
g15
tp306
a(Vcontains likedislike
p307
I01
g15
tp308
a(Vcontains babe birthday days
p309
I00
g15
tp310
a(Vcontains dabiebahcrew
p311
I01
g15
tp312
a(Vcontains dislike radio
p313
I00
g15
tp314
a(Vcontains getting paid
p315
I00
g15
tp316
a(Vcontains acc
p317
I01
g15
tp318
a(Vcontains paid every friday
p319
I00
g15
tp320
a(Vcontains please liam love
p321
I00
g15
tp322
a(Vcontains music
p323
I00
g15
tp324
a(Vcontains say please
p325
I00
g15
tp326
a(Vcontains love
p327
I00
g15
tp328
a(Vcontains say
p329
I00
g15
tp330
a(Vcontains ugh
p331
I00
g15
tp332
a(Vcontains follow say
p333
I00
g15
tp334
a(Vcontains love you
p335
I00
g15
tp336
a(Vcontains love getting paid
p337
I00
g15
tp338
a(Vcontains radio
p339
I00
g15
tp340
a(Vcontains days please
p341
I00
g15
tp342
a(Vcontains existence follow
p343
I00
g15
tp344
a(Vcontains liampayne babe
p345
I00
g15
tp346
a(Vcontains birthday days please
p347
I00
g15
tp348
a(Vcontains friday
p349
I00
g15
tp350
a(Vcontains please acknowledge
p351
I00
g15
tp352
a(Vcontains getting paid every
p353
I00
g15
tp354
a(Vcontains dabiebahcrew likedislike acc
p355
I00
g15
tp356
a(Vcontains acknowledge existence follow
p357
I00
g15
tp358
a(Vcontains acknowledge existence
p359
I00
g15
tp360
a(Vcontains ugh dislike
p361
I00
g15
tp362
a(Vcontains please acknowledge existence
p363
I00
g15
tp364
a(Vcontains liampayne
p365
I00
g15
tp366
a(Vcontains liam
p367
I00
g15
tp368
a(Vcontains follow
p369
I00
g15
tp370
a(Vcontains every friday
p371
I00
g15
tp372
a(Vcontains love getting
p373
I00
g15
tp374
a(Vcontains liampayne babe birthday
p375
I00
g15
tp376
a(Vcontains please liam
p377
I00
g15
tp378
a(Vcontains birthday
p379
I00
g15
tp380
a(Vcontains liam love you
p381
I00
g15
tp382
a(Vcontains likedislike acc
p383
I00
g15
tp384
a(Vcontains fan acc
p385
I00
g15
tp386
a(Vcontains fan
p387
I00
g15
tp388
a(Vcontains dabiebahcrew likedislike
p389
I01
g15
tp390
a(Vcontains acc fan
p391
I01
g15
tp392
a(Vcontains acc pls
p393
I01
g15
tp394
a(Vcontains pls
p395
I00
g15
tp396
a(Vcontains likedislike
p397
I00
g15
tp398
a(Vcontains dabiebahcrew
p399
I00
g15
tp400
a(Vcontains acc
p401
I00
g15
tp402
a(Vcontains likedislike acc
p403
I01
g15
tp404
a(Vcontains fan acc
p405
I01
g15
tp406
a(Vcontains likedislike acc fan
p407
I01
g15
tp408
a(Vcontains acc fan acc
p409
I01
g15
tp410
a(Vcontains fan acc pls
p411
I01
g15
tp412
a(Vcontains dabiebahcrew likedislike acc
p413
I01
g15
tp414
a(Vcontains dislike
p415
I01
g15
tp416
a(Vcontains music
p417
I01
g15
tp418
a(Vcontains ugh
p419
I01
g15
tp420
a(Vcontains radio
p421
I01
g15
tp422
a(Vcontains radio music
p423
I01
g15
tp424
a(Vcontains dislike radio
p425
I01
g15
tp426
a(Vcontains ugh dislike
p427
I01
g15
tp428
a(Vcontains ugh dislike radio
p429
I01
g15
tp430
a(Vcontains dislike radio music
p431
I01
g15
tp432
asS'_mapping'
p433
(dp434
g310
I145
sg90
I35
sg236
I108
sg204
I92
sg46
I13
sg350
I165
sg38
I9
sg346
I163
sg246
I113
sg308
I144
sg130
I55
sg386
I183
sg104
I42
sg118
I49
sg170
I75
sg178
I79
sg172
I76
sg354
I167
sg206
I93
sg116
I48
sg292
I136
sg360
I170
sg416
I198
sg40
I10
sg214
I97
sg348
I164
sg262
I121
sg216
I98
sg190
I85
sg150
I65
sg318
I149
sg312
I146
sg392
I186
sg380
I180
sg62
I21
sg94
I37
sg218
I99
sg32
I6
sg114
I47
sg226
I103
sg402
I191
sg128
I54
sg238
I109
sg78
I29
sg282
I131
sg194
I87
sg324
I152
sg368
I174
sg432
I206
sg344
I162
sg412
I196
sg390
I185
sg88
I34
sg228
I104
sg320
I150
sg36
I8
sg110
I45
sg398
I189
sg160
I70
sg254
I117
sg138
I59
sg240
I110
sg184
I82
sg180
I80
sg274
I127
sg106
I43
sg266
I123
sg86
I33
sg72
I26
sg84
I32
sg100
I40
sg42
I11
sg142
I61
sg290
I135
sg182
I81
sg410
I195
sg316
I148
sg70
I25
sg294
I137
sg414
I197
sg192
I86
sg404
I192
sg298
I139
sg372
I176
sg270
I125
sg330
I155
sg352
I166
sg362
I171
sg300
I140
sg164
I72
sg102
I41
sg406
I193
sg272
I126
sg328
I154
sg92
I36
sg426
I203
sg248
I114
sg174
I77
sg232
I106
sg122
I51
sg186
I83
sg132
I56
sg338
I159
sg242
I111
sg332
I156
sg196
I88
sg50
I15
sg168
I74
sg322
I151
sg388
I184
sg158
I69
sg98
I39
sg212
I96
sg66
I23
sg108
I44
sg166
I73
sg146
I63
sg288
I134
sg220
I100
sg280
I130
sg256
I118
sg134
I57
sg276
I128
sg80
I30
sg20
I0
sg340
I160
sg378
I179
sg296
I138
sg376
I178
sg306
I143
sg24
I2
sg26
I3
sg364
I172
sg358
I169
sg82
I31
sg250
I115
sg200
I90
sg418
I199
sg202
I91
sg60
I20
sg336
I158
sg428
I204
sg264
I122
sg334
I157
sg76
I28
sg366
I173
sg400
I190
sg420
I200
sg148
I64
sg30
I5
sg34
I7
sg278
I129
sg396
I188
sg430
I205
sg136
I58
sg210
I95
sg222
I101
sg424
I202
sg230
I105
sg124
I52
sg22
I1
sg48
I14
sg68
I24
sg302
I141
sg52
I16
sg374
I177
sg244
I112
sg198
I89
sg224
I102
sg234
I107
sg370
I175
sg74
I27
sg44
I12
sg188
I84
sg252
I116
sg176
I78
sg120
I50
sg342
I161
sg314
I147
sg28
I4
sg58
I19
sg260
I120
sg154
I67
sg140
I60
sg304
I142
sg156
I68
sg54
I17
sg112
I46
sg382
I181
sg56
I18
sg208
I94
sg258
I119
sg144
I62
sg162
I71
sg394
I187
sg326
I153
sg356
I168
sg64
I22
sg384
I182
sg284
I132
sg408
I194
sg422
I201
sg152
I66
sg286
I133
sg268
I124
sg96
I38
sg126
I53
ssS'_length'
p435
I207
sS'_unseen'
p436
NsS'_alwayson'
p437
NsbsS'_weights'
p438
cnumpy.core.multiarray
_reconstruct
p439
(cnumpy
ndarray
p440
(I0
tp441
S'b'
p442
tp443
Rp444
(I1
(I208
tp445
cnumpy
dtype
p446
(S'f8'
p447
I0
I1
tp448
Rp449
(I3
S'<'
p450
NNNI-1
I-1
I0
tp451
bI00
S"B\xd4\xc1\x934\xe5\x85\xbfB\xd4\xc1\x934\xe5\x85\xbf\xbaL\xbaq\x8b\r\x87?\xbaL\xbaq\x8b\r\x87?\xc1`\xe3\xb5Y\xab\x84\xbfB\xd4\xc1\x934\xe5\x85\xbf\x07w\xb3\xee\xcb\x83\x88?\xc1`\xe3\xb5Y\xab\x84\xbf\xc1`\xe3\xb5Y\xab\x84\xbf\xac\x9f=\xf4K\x19\x8a?\x19\xfd\xe3\xf0\xe7\xb4\x85?\xc1`\xe3\xb5Y\xab\x84\xbf\xc1`\xe3\xb5Y\xab\x84\xbf7}$x!>\xb9?\x19\xfd\xe3\xf0\xe7\xb4\x85?BN\\\xc1\x90\xd2\x84\xbf7}$x!>\xb9?\xc1`\xe3\xb5Y\xab\x84\xbf\x19\xfd\xe3\xf0\xe7\xb4\x85?BN\\\xc1\x90\xd2\x84\xbf\xac\x9f=\xf4K\x19\x8a?\xc2N0\xfb\xcb\xe8\x8f\xbf7}$x!>\xb9?\x19\xfd\xe3\xf0\xe7\xb4\x85?\x19\xfd\xe3\xf0\xe7\xb4\x85?BN\\\xc1\x90\xd2\x84\xbfB\xd4\xc1\x934\xe5\x85\xbf\xbaL\xbaq\x8b\r\x87?\xbaL\xbaq\x8b\r\x87?\x19\xfd\xe3\xf0\xe7\xb4\x85?B\xd4\xc1\x934\xe5\x85\xbf\x19\xfd\xe3\xf0\xe7\xb4\x85?\x07w\xb3\xee\xcb\x83\x88?\xc2N0\xfb\xcb\xe8\x8f\xbf\x19\xfd\xe3\xf0\xe7\xb4\x85?M\xc1\x03\x15\x8f\xdc\x90\xbfB\xd4\xc1\x934\xe5\x85\xbf\xbaL\xbaq\x8b\r\x87?BN\\\xc1\x90\xd2\x84\xbfGo\x04*\x90o\xb4?\xc1`\xe3\xb5Y\xab\x84\xbf\xbaL\xbaq\x8b\r\x87?BN\\\xc1\x90\xd2\x84\xbfBN\\\xc1\x90\xd2\x84\xbfM\xc1\x03\x15\x8f\xdc\x90\xbf\xbaL\xbaq\x8b\r\x87?BN\\\xc1\x90\xd2\x84\xbfBN\\\xc1\x90\xd2\x84\xbfBN\\\xc1\x90\xd2\x84\xbfB\xd4\xc1\x934\xe5\x85\xbf7}$x!>\xb9?BN\\\xc1\x90\xd2\x84\xbfM\xc1\x03\x15\x8f\xdc\x90\xbf\xbaL\xbaq\x8b\r\x87?B\xd4\xc1\x934\xe5\x85\xbfBN\\\xc1\x90\xd2\x84\xbf\x07w\xb3\xee\xcb\x83\x88?B\xd4\xc1\x934\xe5\x85\xbf\xc1`\xe3\xb5Y\xab\x84\xbf\xc1`\xe3\xb5Y\xab\x84\xbf\xc1`\xe3\xb5Y\xab\x84\xbf\xc2N0\xfb\xcb\xe8\x8f\xbf\xc2N0\xfb\xcb\xe8\x8f\xbfB\xd4\xc1\x934\xe5\x85\xbfBN\\\xc1\x90\xd2\x84\xbf\xc1`\xe3\xb5Y\xab\x84\xbfB\xd4\xc1\x934\xe5\x85\xbf\x19\xfd\xe3\xf0\xe7\xb4\x85?\x19\xfd\xe3\xf0\xe7\xb4\x85?\x8e\xc4[\xf2\xc2\x1d\x8e\xbf\x8e\xc4[\xf2\xc2\x1d\x8e\xbf\xf7T\x8b8\xa0A\xbb?\x8e\xc4[\xf2\xc2\x1d\x8e\xbf\xf7T\x8b8\xa0A\xbb?\x96\xea\rq\xd0\x1f\x9e\xbf\x8e\xc4[\xf2\xc2\x1d\x8e\xbf\xf7T\x8b8\xa0A\xbb?\xf7T\x8b8\xa0A\xbb?|\xe4`]\xe5j\xbd?|\xe4`]\xe5j\xbd?|\xe4`]\xe5j\xbd?\xeb\xd0\x17M\x94%\xb0?\xeb\xd0\x17M\x94%\xb0?\xeb\xd0\x17M\x94%\xb0?\xeb\xd0\x17M\x94%\xb0?\xeb\xd0\x17M\x94%\xb0?\xeb\xd0\x17M\x94%\xb0?\xeb\xd0\x17M\x94%\xb0?\xeb\xd0\x17M\x94%\xb0?\xeb\xd0\x17M\x94%\xb0?\xeb\xd0\x17M\x94%\xb0?\xeb\xd0\x17M\x94%\xb0?\x1f\xba\xac\x0f\xc8F\xb0?\x1f\xba\xac\x0f\xc8F\xb0?\x1f\xba\xac\x0f\xc8F\xb0?\x1f\xba\xac\x0f\xc8F\xb0?\x1f\xba\xac\x0f\xc8F\xb0?\x1f\xba\xac\x0f\xc8F\xb0?\x1f\xba\xac\x0f\xc8F\xb0?\x1f\xba\xac\x0f\xc8F\xb0?\x1f\xba\xac\x0f\xc8F\xb0?\x1f\xba\xac\x0f\xc8F\xb0?\x1f\xba\xac\x0f\xc8F\xb0?\x1f\xba\xac\x0f\xc8F\xb0?\xb0\xe3\xbb\x9f\x1a7\xb1?\xb0\xe3\xbb\x9f\x1a7\xb1?\xb0\xe3\xbb\x9f\x1a7\xb1?\xb0\xe3\xbb\x9f\x1a7\xb1?\xb0\xe3\xbb\x9f\x1a7\xb1?\xb0\xe3\xbb\x9f\x1a7\xb1?\xb0\xe3\xbb\x9f\x1a7\xb1?\xb0\xe3\xbb\x9f\x1a7\xb1?\xb0\xe3\xbb\x9f\x1a7\xb1?\xb0\xe3\xbb\x9f\x1a7\xb1?\xb0\xe3\xbb\x9f\x1a7\xb1?\x994j;=i\x83?\x994j;=i\x83?\xc6+\xda)\xea\xd9\x89\xbf\xc6+\xda)\xea\xd9\x89\xbf\xfc'6YxK\x82?\x994j;=i\x83?f\xa2\xefk\xdeh\x8b\xbf\xfc'6YxK\x82?\xfc'6YxK\x82?\x16;\xbc\xd1\xce\x14\x8d\xbf\xbb%\x94\xad\xe7\xe1\xb3?\xfc'6YxK\x82?\xfc'6YxK\x82?\xa5\xa8X\xf2\xed\x18\x8b?\x07=)a8g\x88\xbf\x8b*\x078\xefn\x82?\xa5\xa8X\xf2\xed\x18\x8b?\xfc'6YxK\x82?\x07=)a8g\x88\xbf\x8b*\x078\xefn\x82?\x16;\xbc\xd1\xce\x14\x8d\xbf\xdb\xb8\xeb\xc3\x84\xd3\x8c?\xa5\xa8X\xf2\xed\x18\x8b?\x07=)a8g\x88\xbf\xbb%\x94\xad\xe7\xe1\xb3?\x8b*\x078\xefn\x82?\x994j;=i\x83?\xc6+\xda)\xea\xd9\x89\xbf\xc6+\xda)\xea\xd9\x89\xbf\xbb%\x94\xad\xe7\xe1\xb3?\x994j;=i\x83?\xbb%\x94\xad\xe7\xe1\xb3?f\xa2\xefk\xdeh\x8b\xbf\xdb\xb8\xeb\xc3\x84\xd3\x8c?\xbb%\x94\xad\xe7\xe1\xb3?\xa1e\xdb\xb6y\x98\x8e?\x994j;=i\x83?\xc6+\xda)\xea\xd9\x89\xbf\x8b*\x078\xefn\x82?\xf3\xe1u\xaa\xd2S\x97?\xfc'6YxK\x82?\xc6+\xda)\xea\xd9\x89\xbf\x8b*\x078\xefn\x82?\x8b*\x078\xefn\x82?\xa1e\xdb\xb6y\x98\x8e?\xc6+\xda)\xea\xd9\x89\xbf\x8b*\x078\xefn\x82?\x8b*\x078\xefn\x82?\x8b*\x078\xefn\x82?\x994j;=i\x83?\xa5\xa8X\xf2\xed\x18\x8b?\x8b*\x078\xefn\x82?\xa1e\xdb\xb6y\x98\x8e?\xc6+\xda)\xea\xd9\x89\xbf\x994j;=i\x83?\x8b*\x078\xefn\x82?f\xa2\xefk\xdeh\x8b\xbf\x994j;=i\x83?\xfc'6YxK\x82?\xfc'6YxK\x82?\xfc'6YxK\x82?\xdb\xb8\xeb\xc3\x84\xd3\x8c?\xdb\xb8\xeb\xc3\x84\xd3\x8c?\x994j;=i\x83?\x8b*\x078\xefn\x82?\xfc'6YxK\x82?\x994j;=i\x83?\x07=)a8g\x88\xbf\x07=)a8g\x88\xbf\x07=)a8g\x88\xbf\xba%\x94\xad\xe7\xe1\xb3?\xba%\x94\xad\xe7\xe1\xb3?\xba%\x94\xad\xe7\xe1\xb3?\x07=)a8g\x88\xbf\x07=)a8g\x88\xbf\x07=)a8g\x88\xbf\x07=)a8g\x88\xbf\xba%\x94\xad\xe7\xe1\xb3?\xba%\x94\xad\xe7\xe1\xb3?\n\xd8\xab\x8e\xfaD\xb5?\n\xd8\xab\x8e\xfaD\xb5?\n\xd8\xab\x8e\xfaD\xb5?\n\xd8\xab\x8e\xfaD\xb5?\n\xd8\xab\x8e\xfaD\xb5?\n\xd8\xab\x8e\xfaD\xb5?\n\xd8\xab\x8e\xfaD\xb5?\n\xd8\xab\x8e\xfaD\xb5?\xbbw\xc7[`\xd2\xb6?\xbbw\xc7[`\xd2\xb6?\xbbw\xc7[`\xd2\xb6?\xc8TU\xda\x82\x90\xb8?\xc8TU\xda\x82\x90\xb8?\xf8f\x92X\xa32\xc9\xbf"
p452
tp453
bsb.