ccopy_reg
_reconstructor
p0
(cnltk.classify.maxent
MaxentClassifier
p1
c__builtin__
object
p2
Ntp3
Rp4
(dp5
S'_logarithmic'
p6
I01
sS'_encoding'
p7
g0
(cnltk.classify.maxent
GISEncoding
p8
g2
Ntp9
Rp10
(dp11
S'_labels'
p12
(lp13
S'positive'
p14
aS'negative'
p15
asS'_C'
p16
I769
sS'_inv_mapping'
p17
(lp18
(Vcontains bion dislike
p19
I00
g14
tp20
a(Vcontains body sore
p21
I00
g14
tp22
a(Vcontains dif
p23
I00
g14
tp24
a(Vcontains males make upset
p25
I00
g14
tp26
a(Vcontains love going dentist
p27
I00
g14
tp28
a(Vcontains aunt passed away
p29
I00
g14
tp30
a(Vcontains bunny 100
p31
I00
g14
tp32
a(Vcontains 100
p33
I00
g14
tp34
a(Vcontains worst kind
p35
I00
g14
tp36
a(Vcontains please
p37
I00
g14
tp38
a(Vcontains say might
p39
I00
g14
tp40
a(Vcontains sean cover
p41
I00
g14
tp42
a(Vcontains love jujuampriri toofollowing
p43
I00
g14
tp44
a(Vcontains scared
p45
I00
g14
tp46
a(Vcontains morning around 4ammy
p47
I00
g14
tp48
a(Vcontains asperger aka assburger
p49
I00
g14
tp50
a(Vcontains win many dif
p51
I00
g14
tp52
a(Vcontains actual
p53
I00
g14
tp54
a(Vcontains band makes
p55
I00
g14
tp56
a(Vcontains day whole body
p57
I00
g14
tp58
a(Vcontains looks like
p59
I00
g14
tp60
a(Vcontains judged
p61
I00
g14
tp62
a(Vcontains guess different guess
p63
I00
g14
tp64
a(Vcontains okay
p65
I00
g14
tp66
a(Vcontains wanted ice
p67
I00
g14
tp68
a(Vcontains lyrics
p69
I00
g14
tp70
a(Vcontains love going
p71
I00
g14
tp72
a(Vcontains why feel
p73
I00
g14
tp74
a(Vcontains make love bed
p75
I00
g14
tp76
a(Vcontains songsthatwillnevergetold amazing
p77
I00
g14
tp78
a(Vcontains desire
p79
I00
g14
tp80
a(Vcontains liked know dislike
p81
I00
g14
tp82
a(Vcontains name love
p83
I00
g14
tp84
a(Vcontains music
p85
I00
g14
tp86
a(Vcontains pictures looks like
p87
I00
g14
tp88
a(Vcontains around
p89
I00
g14
tp90
a(Vcontains dislike picture one
p91
I00
g14
tp92
a(Vcontains liking song
p93
I00
g14
tp94
a(Vcontains recently found syndrome
p95
I00
g14
tp96
a(Vcontains win many
p97
I00
g14
tp98
a(Vcontains many dif reasons
p99
I00
g14
tp100
a(Vcontains usually dislike
p101
I00
g14
tp102
a(Vcontains one day hahahaha
p103
I00
g14
tp104
a(Vcontains dislike coach
p105
I00
g14
tp106
a(Vcontains bitches
p107
I00
g14
tp108
a(Vcontains this morning
p109
I00
g14
tp110
a(Vcontains managed
p111
I00
g14
tp112
a(Vcontains ugh dislike
p113
I00
g14
tp114
a(Vcontains pictures looks
p115
I00
g14
tp116
a(Vcontains big
p117
I00
g14
tp118
a(Vcontains love rock
p119
I00
g14
tp120
a(Vcontains even though
p121
I00
g14
tp122
a(Vcontains sexy
p123
I00
g14
tp124
a(Vcontains dislike oomf
p125
I00
g14
tp126
a(Vcontains 4ammy aunt passed
p127
I00
g14
tp128
a(Vcontains popularity
p129
I00
g14
tp130
a(Vcontains love getting
p131
I00
g14
tp132
a(Vcontains whatever
p133
I00
g14
tp134
a(Vcontains justin bieber
p135
I00
g14
tp136
a(Vcontains dislike bestfriend tim
p137
I00
g14
tp138
a(Vcontains around 4ammy
p139
I00
g14
tp140
a(Vcontains cause
p141
I00
g14
tp142
a(Vcontains rays sunshine
p143
I00
g14
tp144
a(Vcontains several pair
p145
I00
g14
tp146
a(Vcontains think converse love
p147
I00
g14
tp148
a(Vcontains alien
p149
I00
g14
tp150
a(Vcontains 4ammy aunt
p151
I00
g14
tp152
a(Vcontains dont really dislike
p153
I00
g14
tp154
a(Vcontains lyrics skys
p155
I00
g14
tp156
a(Vcontains person passionately dislike
p157
I00
g14
tp158
a(Vcontains worst kind music
p159
I00
g14
tp160
a(Vcontains love hammer time
p161
I00
g14
tp162
a(Vcontains getting
p163
I00
g14
tp164
a(Vcontains mbf
p165
I00
g14
tp166
a(Vcontains snapchating cute
p167
I00
g14
tp168
a(Vcontains liam love
p169
I00
g14
tp170
a(Vcontains back liking song
p171
I00
g14
tp172
a(Vcontains dont really
p173
I00
g14
tp174
a(Vcontains someone
p175
I00
g14
tp176
a(Vcontains since
p177
I00
g14
tp178
a(Vcontains different guess alien
p179
I00
g14
tp180
a(Vcontains hammer time
p181
I00
g14
tp182
a(Vcontains bird bird cute
p183
I00
g14
tp184
a(Vcontains dont even follow
p185
I00
g14
tp186
a(Vcontains follow dislike
p187
I00
g14
tp188
a(Vcontains fan
p189
I00
g14
tp190
a(Vcontains dislike radio
p191
I00
g14
tp192
a(Vcontains people annoy
p193
I00
g14
tp194
a(Vcontains body
p195
I00
g14
tp196
a(Vcontains workouts like actual
p197
I00
g14
tp198
a(Vcontains whole body sore
p199
I00
g14
tp200
a(Vcontains love
p201
I01
g14
tp202
a(Vcontains back
p203
I00
g14
tp204
a(Vcontains reason idgaf dont
p205
I00
g14
tp206
a(Vcontains morning
p207
I00
g14
tp208
a(Vcontains big sean cover
p209
I00
g14
tp210
a(Vcontains love hammer
p211
I00
g14
tp212
a(Vcontains youre bird bird
p213
I00
g14
tp214
a(Vcontains reasons
p215
I00
g14
tp216
a(Vcontains full
p217
I00
g14
tp218
a(Vcontains booty
p219
I00
g14
tp220
a(Vcontains supposed train
p221
I00
g14
tp222
a(Vcontains ugh
p223
I00
g14
tp224
a(Vcontains kind music fan
p225
I00
g14
tp226
a(Vcontains make upset
p227
I00
g14
tp228
a(Vcontains accidentally deliberately dropped
p229
I00
g14
tp230
a(Vcontains ranalt33
p231
I00
g14
tp232
a(Vcontains dislike kinda
p233
I00
g14
tp234
a(Vcontains dentist going
p235
I00
g14
tp236
a(Vcontains say
p237
I00
g14
tp238
a(Vcontains when someone yells
p239
I00
g14
tp240
a(Vcontains people annoy codxpmickfxd
p241
I00
g14
tp242
a(Vcontains aunt fran miss
p243
I00
g14
tp244
a(Vcontains vandosen new carre
p245
I00
g14
tp246
a(Vcontains passed
p247
I00
g14
tp248
a(Vcontains tim
p249
I00
g14
tp250
a(Vcontains love ranalt33
p251
I00
g14
tp252
a(Vcontains busy smoking people
p253
I00
g14
tp254
a(Vcontains vandosen
p255
I00
g14
tp256
a(Vcontains growing popularity band
p257
I00
g14
tp258
a(Vcontains radio music
p259
I00
g14
tp260
a(Vcontains not follow you
p261
I00
g14
tp262
a(Vcontains cream
p263
I00
g14
tp264
a(Vcontains train next
p265
I00
g14
tp266
a(Vcontains syndrome called asperger
p267
I00
g14
tp268
a(Vcontains dislike still
p269
I00
g14
tp270
a(Vcontains liked video justin
p271
I00
g14
tp272
a(Vcontains think weird guess
p273
I00
g14
tp274
a(Vcontains cream even
p275
I00
g14
tp276
a(Vcontains dif reasons
p277
I00
g14
tp278
a(Vcontains kinda think youre
p279
I00
g14
tp280
a(Vcontains initials
p281
I00
g14
tp282
a(Vcontains feel dislike
p283
I00
g14
tp284
a(Vcontains listen
p285
I00
g14
tp286
a(Vcontains many dif
p287
I00
g14
tp288
a(Vcontains made reason
p289
I00
g14
tp290
a(Vcontains deliberately dropped
p291
I00
g14
tp292
a(Vcontains acc
p293
I00
g14
tp294
a(Vcontains sore
p295
I00
g14
tp296
a(Vcontains weird guess different
p297
I00
g14
tp298
a(Vcontains think
p299
I00
g14
tp300
a(Vcontains lyrics skys love
p301
I00
g14
tp302
a(Vcontains did
p303
I00
g14
tp304
a(Vcontains know read
p305
I00
g14
tp306
a(Vcontains birthday days please
p307
I00
g14
tp308
a(Vcontains beautiful pictures looks
p309
I00
g14
tp310
a(Vcontains dont fucking people
p311
I00
g14
tp312
a(Vcontains like anyway
p313
I00
g14
tp314
a(Vcontains time hate people
p315
I00
g14
tp316
a(Vcontains people weapons
p317
I00
g14
tp318
a(Vcontains growing popularity
p319
I00
g14
tp320
a(Vcontains converse several
p321
I00
g14
tp322
a(Vcontains songsthatwillnevergetold amazing love
p323
I00
g14
tp324
a(Vcontains get judged love
p325
I00
g14
tp326
a(Vcontains jett
p327
I00
g14
tp328
a(Vcontains band makes start
p329
I00
g14
tp330
a(Vcontains bestfriend tim whatever
p331
I00
g14
tp332
a(Vcontains like actual
p333
I00
g14
tp334
a(Vcontains your spell
p335
I00
g14
tp336
a(Vcontains much13
p337
I00
g14
tp338
a(Vcontains arent sexy
p339
I00
g14
tp340
a(Vcontains hahahaha
p341
I00
g14
tp342
a(Vcontains stop dont know
p343
I00
g14
tp344
a(Vcontains miss dearly
p345
I00
g14
tp346
a(Vcontains love song
p347
I00
g14
tp348
a(Vcontains wish could
p349
I00
g14
tp350
a(Vcontains think converse
p351
I00
g14
tp352
a(Vcontains hate people hate
p353
I00
g14
tp354
a(Vcontains havent answer yet
p355
I00
g14
tp356
a(Vcontains arent sexy corvettes
p357
I00
g14
tp358
a(Vcontains little disoveries like
p359
I00
g14
tp360
a(Vcontains accidentally
p361
I00
g14
tp362
a(Vcontains called asperger
p363
I00
g14
tp364
a(Vcontains carre
p365
I00
g14
tp366
a(Vcontains bestfriend
p367
I00
g14
tp368
a(Vcontains oomf
p369
I00
g14
tp370
a(Vcontains wtf
p371
I00
g14
tp372
a(Vcontains tim whatever sooverthis
p373
I00
g14
tp374
a(Vcontains weed cause
p375
I00
g14
tp376
a(Vcontains likedislike
p377
I00
g14
tp378
a(Vcontains havent
p379
I00
g14
tp380
a(Vcontains please acknowledge existence
p381
I00
g14
tp382
a(Vcontains hate weed cause
p383
I00
g14
tp384
a(Vcontains busy
p385
I00
g14
tp386
a(Vcontains passionately
p387
I00
g14
tp388
a(Vcontains dislike mustangs arent
p389
I00
g14
tp390
a(Vcontains lol sad story
p391
I00
g14
tp392
a(Vcontains paid every
p393
I00
g14
tp394
a(Vcontains much win many
p395
I00
g14
tp396
a(Vcontains dif reasons under
p397
I00
g14
tp398
a(Vcontains start
p399
I00
g14
tp400
a(Vcontains cover the
p401
I00
g14
tp402
a(Vcontains assburger wth
p403
I00
g14
tp404
a(Vcontains direction dont even
p405
I00
g14
tp406
a(Vcontains assburger
p407
I00
g14
tp408
a(Vcontains dont time hate
p409
I00
g14
tp410
a(Vcontains uname cause double
p411
I00
g14
tp412
a(Vcontains song wish could
p413
I00
g14
tp414
a(Vcontains grandma
p415
I00
g14
tp416
a(Vcontains relaxing time love
p417
I00
g14
tp418
a(Vcontains love little
p419
I00
g14
tp420
a(Vcontains love brother
p421
I00
g14
tp422
a(Vcontains sean
p423
I00
g14
tp424
a(Vcontains toofollowing
p425
I00
g14
tp426
a(Vcontains long
p427
I00
g14
tp428
a(Vcontains cause busy smoking
p429
I00
g14
tp430
a(Vcontains cute guys
p431
I00
g14
tp432
a(Vcontains actual fuck
p433
I00
g14
tp434
a(Vcontains what think converse
p435
I00
g14
tp436
a(Vcontains want tell liked
p437
I00
g14
tp438
a(Vcontains what think
p439
I00
g14
tp440
a(Vcontains night look
p441
I00
g14
tp442
a(Vcontains dislike full
p443
I00
g14
tp444
a(Vcontains bird cute love
p445
I00
g14
tp446
a(Vcontains wonderful relaxing
p447
I00
g14
tp448
a(Vcontains people like
p449
I00
g14
tp450
a(Vcontains dislike dont really
p451
I00
g14
tp452
a(Vcontains acknowledge
p453
I00
g14
tp454
a(Vcontains every
p455
I00
g14
tp456
a(Vcontains love bed
p457
I00
g14
tp458
a(Vcontains songsthatwillnevergetold
p459
I00
g14
tp460
a(Vcontains you love big
p461
I00
g14
tp462
a(Vcontains video
p463
I00
g14
tp464
a(Vcontains name
p465
I00
g14
tp466
a(Vcontains bunny 100 dislike
p467
I00
g14
tp468
a(Vcontains judged love
p469
I00
g14
tp470
a(Vcontains wonderful
p471
I00
g14
tp472
a(Vcontains one direction dont
p473
I00
g14
tp474
a(Vcontains identify
p475
I00
g14
tp476
a(Vcontains wth
p477
I00
g14
tp478
a(Vcontains one direction
p479
I00
g14
tp480
a(Vcontains next
p481
I00
g14
tp482
a(Vcontains might get
p483
I00
g14
tp484
a(Vcontains idgaf
p485
I00
g14
tp486
a(Vcontains though
p487
I00
g14
tp488
a(Vcontains managed dislike
p489
I00
g14
tp490
a(Vcontains hate weed
p491
I00
g14
tp492
a(Vcontains say please
p493
I00
g14
tp494
a(Vcontains pictures
p495
I00
g14
tp496
a(Vcontains liampayne babe birthday
p497
I00
g14
tp498
a(Vcontains dislike anyone lol
p499
I00
g14
tp500
a(Vcontains read
p501
I00
g14
tp502
a(Vcontains fucking people
p503
I00
g14
tp504
a(Vcontains like much
p505
I00
g14
tp506
a(Vcontains please acknowledge
p507
I00
g14
tp508
a(Vcontains even follow dislike
p509
I00
g14
tp510
a(Vcontains acknowledge existence follow
p511
I00
g14
tp512
a(Vcontains puck bunny 100
p513
I00
g14
tp514
a(Vcontains liampayne
p515
I00
g14
tp516
a(Vcontains justin
p517
I00
g14
tp518
a(Vcontains snapchating
p519
I00
g14
tp520
a(Vcontains aunt fran
p521
I00
g14
tp522
a(Vcontains stop dont
p523
I00
g14
tp524
a(Vcontains looked lyrics skys
p525
I00
g14
tp526
a(Vcontains converse love converse
p527
I00
g14
tp528
a(Vcontains birthday
p529
I00
g14
tp530
a(Vcontains anyone lol
p531
I00
g14
tp532
a(Vcontains weed cause busy
p533
I00
g14
tp534
a(Vcontains called asperger aka
p535
I00
g14
tp536
a(Vcontains away
p537
I00
g14
tp538
a(Vcontains reason idgaf
p539
I00
g14
tp540
a(Vcontains going tomorrow
p541
I00
g14
tp542
a(Vcontains liking
p543
I00
g14
tp544
a(Vcontains brother
p545
I00
g14
tp546
a(Vcontains unsee back liking
p547
I00
g14
tp548
a(Vcontains love much
p549
I00
g14
tp550
a(Vcontains dislike still accepted
p551
I00
g14
tp552
a(Vcontains answer yet
p553
I00
g14
tp554
a(Vcontains read text havent
p555
I00
g14
tp556
a(Vcontains dislike think weird
p557
I00
g14
tp558
a(Vcontains might get judged
p559
I00
g14
tp560
a(Vcontains syndrome
p561
I00
g14
tp562
a(Vcontains anyone lol some
p563
I00
g14
tp564
a(Vcontains weapons
p565
I00
g14
tp566
a(Vcontains yells
p567
I00
g14
tp568
a(Vcontains recently found
p569
I00
g14
tp570
a(Vcontains next day
p571
I00
g14
tp572
a(Vcontains dislike certain
p573
I00
g14
tp574
a(Vcontains males make
p575
I00
g14
tp576
a(Vcontains dropped
p577
I00
g14
tp578
a(Vcontains carlyfollowme love you
p579
I00
g14
tp580
a(Vcontains dislike made
p581
I00
g14
tp582
a(Vcontains dearly
p583
I00
g14
tp584
a(Vcontains might
p585
I00
g14
tp586
a(Vcontains smoking people
p587
I00
g14
tp588
a(Vcontains video justin
p589
I00
g14
tp590
a(Vcontains grandma asked
p591
I00
g14
tp592
a(Vcontains stop
p593
I00
g14
tp594
a(Vcontains body workouts
p595
I00
g14
tp596
a(Vcontains growing
p597
I00
g14
tp598
a(Vcontains decent okay
p599
I00
g14
tp600
a(Vcontains skys love song
p601
I00
g14
tp602
a(Vcontains like wonderful relaxing
p603
I00
g14
tp604
a(Vcontains aka assburger wth
p605
I00
g14
tp606
a(Vcontains corokpy8f4k4
p607
I00
g14
tp608
a(Vcontains workouts like
p609
I00
g14
tp610
a(Vcontains passionately dislike
p611
I00
g14
tp612
a(Vcontains upset usually dislike
p613
I00
g14
tp614
a(Vcontains weird guess
p615
I00
g14
tp616
a(Vcontains your
p617
I00
g14
tp618
a(Vcontains long you love
p619
I00
g14
tp620
a(Vcontains upset usually
p621
I00
g14
tp622
a(Vcontains love you
p623
I00
g14
tp624
a(Vcontains icon bion dislike
p625
I00
g14
tp626
a(Vcontains smoking people love
p627
I00
g14
tp628
a(Vcontains you love
p629
I00
g14
tp630
a(Vcontains fran miss dearly
p631
I00
g14
tp632
a(Vcontains know
p633
I00
g14
tp634
a(Vcontains joan jett
p635
I00
g14
tp636
a(Vcontains feel dislike certain
p637
I00
g14
tp638
a(Vcontains liked video
p639
I00
g14
tp640
a(Vcontains night
p641
I00
g14
tp642
a(Vcontains next day whole
p643
I00
g14
tp644
a(Vcontains weird
p645
I00
g14
tp646
a(Vcontains know read text
p647
I00
g14
tp648
a(Vcontains much
p649
I00
g14
tp650
a(Vcontains cute love thenotebook
p651
I00
g14
tp652
a(Vcontains little disoveries
p653
I00
g14
tp654
a(Vcontains reason
p655
I00
g14
tp656
a(Vcontains scared say might
p657
I00
g14
tp658
a(Vcontains day
p659
I00
g14
tp660
a(Vcontains likedislike acc mbf
p661
I00
g14
tp662
a(Vcontains you
p663
I00
g14
tp664
a(Vcontains much win
p665
I00
g14
tp666
a(Vcontains why feel dislike
p667
I00
g14
tp668
a(Vcontains sunshine photos
p669
I00
g14
tp670
a(Vcontains paid
p671
I00
g14
tp672
a(Vcontains initials person passionately
p673
I00
g14
tp674
a(Vcontains liked
p675
I00
g14
tp676
a(Vcontains collaborate listen
p677
I00
g14
tp678
a(Vcontains even follow
p679
I00
g14
tp680
a(Vcontains coach wells
p681
I00
g14
tp682
a(Vcontains bieber long you
p683
I00
g14
tp684
a(Vcontains band
p685
I00
g14
tp686
a(Vcontains big booty
p687
I00
g14
tp688
a(Vcontains disoveries like much
p689
I00
g14
tp690
a(Vcontains aka assburger
p691
I00
g14
tp692
a(Vcontains spell desire spotify
p693
I00
g14
tp694
a(Vcontains bed
p695
I00
g14
tp696
a(Vcontains time night
p697
I00
g14
tp698
a(Vcontains say scared
p699
I00
g14
tp700
a(Vcontains getting paid
p701
I00
g14
tp702
a(Vcontains idgaf dont fucking
p703
I00
g14
tp704
a(Vcontains story
p705
I00
g14
tp706
a(Vcontains roll
p707
I00
g14
tp708
a(Vcontains picture one day
p709
I00
g14
tp710
a(Vcontains dislike snapchating
p711
I00
g14
tp712
a(Vcontains love getting paid
p713
I00
g14
tp714
a(Vcontains wanted ice cream
p715
I00
g14
tp716
a(Vcontains tell
p717
I00
g14
tp718
a(Vcontains weak
p719
I00
g14
tp720
a(Vcontains unsee back
p721
I00
g14
tp722
a(Vcontains think youre
p723
I00
g14
tp724
a(Vcontains snapchating cute guys
p725
I00
g14
tp726
a(Vcontains acknowledge existence
p727
I00
g14
tp728
a(Vcontains term puck bunny
p729
I00
g14
tp730
a(Vcontains desire spotify
p731
I00
g14
tp732
a(Vcontains make love
p733
I00
g14
tp734
a(Vcontains cause busy
p735
I00
g14
tp736
a(Vcontains dislike weak
p737
I00
g14
tp738
a(Vcontains text havent answer
p739
I00
g14
tp740
a(Vcontains passed away
p741
I00
g14
tp742
a(Vcontains time love rays
p743
I00
g14
tp744
a(Vcontains start dislike
p745
I00
g14
tp746
a(Vcontains think youre worst
p747
I00
g14
tp748
a(Vcontains dont fucking
p749
I00
g14
tp750
a(Vcontains tate growing
p751
I00
g14
tp752
a(Vcontains hate one
p753
I00
g14
tp754
a(Vcontains love rock roll
p755
I00
g14
tp756
a(Vcontains rock
p757
I00
g14
tp758
a(Vcontains annoy
p759
I00
g14
tp760
a(Vcontains feel
p761
I00
g14
tp762
a(Vcontains weak people
p763
I00
g14
tp764
a(Vcontains full body workouts
p765
I00
g14
tp766
a(Vcontains direction dont
p767
I00
g14
tp768
a(Vcontains body workouts like
p769
I00
g14
tp770
a(Vcontains person
p771
I00
g14
tp772
a(Vcontains converse several pair
p773
I00
g14
tp774
a(Vcontains someone yells stop
p775
I00
g14
tp776
a(Vcontains spell
p777
I00
g14
tp778
a(Vcontains want
p779
I00
g14
tp780
a(Vcontains people hate
p781
I00
g14
tp782
a(Vcontains ive managed
p783
I00
g14
tp784
a(Vcontains idgaf dont
p785
I00
g14
tp786
a(Vcontains ice
p787
I00
g14
tp788
a(Vcontains the
p789
I00
g14
tp790
a(Vcontains around 4ammy aunt
p791
I00
g14
tp792
a(Vcontains love vandosen new
p793
I00
g14
tp794
a(Vcontains anyone
p795
I00
g14
tp796
a(Vcontains say might get
p797
I00
g14
tp798
a(Vcontains love icon
p799
I00
g14
tp800
a(Vcontains new
p801
I00
g14
tp802
a(Vcontains makes
p803
I00
g14
tp804
a(Vcontains double
p805
I00
g14
tp806
a(Vcontains music fan
p807
I00
g14
tp808
a(Vcontains carlyfollowme love
p809
I00
g14
tp810
a(Vcontains disoveries like
p811
I00
g14
tp812
a(Vcontains full body
p813
I00
g14
tp814
a(Vcontains amazing love much
p815
I00
g14
tp816
a(Vcontains spell desire
p817
I00
g14
tp818
a(Vcontains certain people
p819
I00
g14
tp820
a(Vcontains love aunt
p821
I00
g14
tp822
a(Vcontains asked wanted ice
p823
I00
g14
tp824
a(Vcontains likedislike acc
p825
I00
g14
tp826
a(Vcontains skys love
p827
I00
g14
tp828
a(Vcontains read text
p829
I00
g14
tp830
a(Vcontains like wonderful
p831
I00
g14
tp832
a(Vcontains carlyfollowme
p833
I00
g14
tp834
a(Vcontains this
p835
I00
g14
tp836
a(Vcontains sad story
p837
I00
g14
tp838
a(Vcontains disoveries
p839
I00
g14
tp840
a(Vcontains called
p841
I00
g14
tp842
a(Vcontains song dumblyricsaredumb
p843
I00
g14
tp844
a(Vcontains not follow
p845
I00
g14
tp846
a(Vcontains your spell desire
p847
I00
g14
tp848
a(Vcontains direction
p849
I00
g14
tp850
a(Vcontains whole body
p851
I00
g14
tp852
a(Vcontains initials person
p853
I00
g14
tp854
a(Vcontains why
p855
I00
g14
tp856
a(Vcontains dislike bestfriend
p857
I00
g14
tp858
a(Vcontains jett love
p859
I00
g14
tp860
a(Vcontains ive managed dislike
p861
I00
g14
tp862
a(Vcontains acc mbf
p863
I00
g14
tp864
a(Vcontains one
p865
I00
g14
tp866
a(Vcontains when
p867
I00
g14
tp868
a(Vcontains dislike kinda think
p869
I00
g14
tp870
a(Vcontains please liam love
p871
I00
g14
tp872
a(Vcontains arent
p873
I00
g14
tp874
a(Vcontains love converse
p875
I00
g14
tp876
a(Vcontains hate one direction
p877
I00
g14
tp878
a(Vcontains dislike weak people
p879
I00
g14
tp880
a(Vcontains jett love rock
p881
I00
g14
tp882
a(Vcontains corvettes
p883
I00
g14
tp884
a(Vcontains guys time
p885
I00
g14
tp886
a(Vcontains win
p887
I00
g14
tp888
a(Vcontains booty bitches
p889
I00
g14
tp890
a(Vcontains bestfriend tim
p891
I00
g14
tp892
a(Vcontains supposed
p893
I00
g14
tp894
a(Vcontains dislike mustangs
p895
I00
g14
tp896
a(Vcontains please liam
p897
I00
g14
tp898
a(Vcontains really dislike anyone
p899
I00
g14
tp900
a(Vcontains day whole
p901
I00
g14
tp902
a(Vcontains looks
p903
I00
g14
tp904
a(Vcontains different guess
p905
I00
g14
tp906
a(Vcontains existence
p907
I00
g14
tp908
a(Vcontains people like anyway
p909
I00
g14
tp910
a(Vcontains make
p911
I00
g14
tp912
a(Vcontains could
p913
I00
g14
tp914
a(Vcontains hate people
p915
I00
g14
tp916
a(Vcontains liked know
p917
I00
g14
tp918
a(Vcontains train
p919
I00
g14
tp920
a(Vcontains codxpmickfxd
p921
I00
g14
tp922
a(Vcontains liking song dumblyricsaredumb
p923
I00
g14
tp924
a(Vcontains grandma asked wanted
p925
I00
g14
tp926
a(Vcontains yells stop dont
p927
I00
g14
tp928
a(Vcontains dislike uname
p929
I00
g14
tp930
a(Vcontains managed dislike picture
p931
I00
g14
tp932
a(Vcontains accepted accidentally
p933
I00
g14
tp934
a(Vcontains dislike radio music
p935
I00
g14
tp936
a(Vcontains dont know
p937
I00
g14
tp938
a(Vcontains someone yells
p939
I00
g14
tp940
a(Vcontains aunt passed
p941
I00
g14
tp942
a(Vcontains love bed since
p943
I00
g14
tp944
a(Vcontains passionately dislike dont
p945
I00
g14
tp946
a(Vcontains lol some
p947
I00
g14
tp948
a(Vcontains bird bird
p949
I00
g14
tp950
a(Vcontains fran
p951
I00
g14
tp952
a(Vcontains found syndrome called
p953
I00
g14
tp954
a(Vcontains term puck
p955
I00
g14
tp956
a(Vcontains recently
p957
I00
g14
tp958
a(Vcontains love know read
p959
I00
g14
tp960
a(Vcontains still accepted
p961
I00
g14
tp962
a(Vcontains morning around
p963
I00
g14
tp964
a(Vcontains why not
p965
I00
g14
tp966
a(Vcontains answer
p967
I00
g14
tp968
a(Vcontains dont
p969
I00
g14
tp970
a(Vcontains hammer
p971
I00
g14
tp972
a(Vcontains picture one
p973
I00
g14
tp974
a(Vcontains lol some people
p975
I00
g14
tp976
a(Vcontains youre worst
p977
I00
g14
tp978
a(Vcontains since one
p979
I00
g14
tp980
a(Vcontains hate
p981
I00
g14
tp982
a(Vcontains lol
p983
I00
g14
tp984
a(Vcontains follow say please
p985
I00
g14
tp986
a(Vcontains bed since one
p987
I00
g14
tp988
a(Vcontains weak people weapons
p989
I00
g14
tp990
a(Vcontains time collaborate listen
p991
I00
g14
tp992
a(Vcontains reasons under
p993
I00
g14
tp994
a(Vcontains love big booty
p995
I00
g14
tp996
a(Vcontains under
p997
I00
g14
tp998
a(Vcontains love know
p999
I00
g14
tp1000
a(Vcontains guys time night
p1001
I00
g14
tp1002
a(Vcontains person passionately
p1003
I00
g14
tp1004
a(Vcontains sean cover the
p1005
I00
g14
tp1006
a(Vcontains make upset usually
p1007
I00
g14
tp1008
a(Vcontains bion
p1009
I00
g14
tp1010
a(Vcontains wonderful relaxing time
p1011
I00
g14
tp1012
a(Vcontains songsthatwillnevergetold joan
p1013
I00
g14
tp1014
a(Vcontains love rays
p1015
I00
g14
tp1016
a(Vcontains follow you
p1017
I00
g14
tp1018
a(Vcontains babe birthday
p1019
I00
g14
tp1020
a(Vcontains amazing love
p1021
I00
g14
tp1022
a(Vcontains time
p1023
I00
g14
tp1024
a(Vcontains vandosen new
p1025
I00
g14
tp1026
a(Vcontains mustangs arent
p1027
I00
g14
tp1028
a(Vcontains made
p1029
I00
g14
tp1030
a(Vcontains uname
p1031
I00
g14
tp1032
a(Vcontains fucking
p1033
I00
g14
tp1034
a(Vcontains could unsee back
p1035
I00
g14
tp1036
a(Vcontains found syndrome
p1037
I00
g14
tp1038
a(Vcontains existence follow say
p1039
I00
g14
tp1040
a(Vcontains relaxing
p1041
I00
g14
tp1042
a(Vcontains reasons under your
p1043
I00
g14
tp1044
a(Vcontains away love
p1045
I00
g14
tp1046
a(Vcontains want tell
p1047
I00
g14
tp1048
a(Vcontains dislike uname cause
p1049
I00
g14
tp1050
a(Vcontains know dislike
p1051
I00
g14
tp1052
a(Vcontains follow you love
p1053
I00
g14
tp1054
a(Vcontains makes start
p1055
I00
g14
tp1056
a(Vcontains sad
p1057
I00
g14
tp1058
a(Vcontains follow say
p1059
I00
g14
tp1060
a(Vcontains what
p1061
I00
g14
tp1062
a(Vcontains photos
p1063
I00
g14
tp1064
a(Vcontains existence follow
p1065
I00
g14
tp1066
a(Vcontains love converse several
p1067
I00
g14
tp1068
a(Vcontains supposed train next
p1069
I00
g14
tp1070
a(Vcontains not
p1071
I00
g14
tp1072
a(Vcontains get judged
p1073
I00
g14
tp1074
a(Vcontains ice cream even
p1075
I00
g14
tp1076
a(Vcontains cause double
p1077
I00
g14
tp1078
a(Vcontains look
p1079
I00
g14
tp1080
a(Vcontains every friday
p1081
I00
g14
tp1082
a(Vcontains people hate weed
p1083
I00
g14
tp1084
a(Vcontains songsthatwillnevergetold joan jett
p1085
I00
g14
tp1086
a(Vcontains jujuampriri
p1087
I00
g14
tp1088
a(Vcontains love thenotebook
p1089
I00
g14
tp1090
a(Vcontains miss
p1091
I00
g14
tp1092
a(Vcontains though dislike
p1093
I00
g14
tp1094
a(Vcontains one day
p1095
I00
g14
tp1096
a(Vcontains look decent
p1097
I00
g14
tp1098
a(Vcontains identify term
p1099
I00
g14
tp1100
a(Vcontains worst
p1101
I00
g14
tp1102
a(Vcontains why not follow
p1103
I00
g14
tp1104
a(Vcontains love icon bion
p1105
I00
g14
tp1106
a(Vcontains tate
p1107
I00
g14
tp1108
a(Vcontains love rays sunshine
p1109
I00
g14
tp1110
a(Vcontains term
p1111
I00
g14
tp1112
a(Vcontains icon
p1113
I00
g14
tp1114
a(Vcontains ive
p1115
I00
g14
tp1116
a(Vcontains liampayne babe
p1117
I00
g14
tp1118
a(Vcontains did want
p1119
I00
g14
tp1120
a(Vcontains text havent
p1121
I00
g14
tp1122
a(Vcontains asked wanted
p1123
I00
g14
tp1124
a(Vcontains people
p1125
I00
g14
tp1126
a(Vcontains cute
p1127
I01
g14
tp1128
a(Vcontains like
p1129
I00
g14
tp1130
a(Vcontains sooverthis
p1131
I00
g14
tp1132
a(Vcontains time love
p1133
I00
g14
tp1134
a(Vcontains under your spell
p1135
I00
g14
tp1136
a(Vcontains day hahahaha
p1137
I00
g14
tp1138
a(Vcontains fran miss
p1139
I00
g14
tp1140
a(Vcontains look decent okay
p1141
I00
g14
tp1142
a(Vcontains spotify
p1143
I00
g14
tp1144
a(Vcontains did want tell
p1145
I00
g14
tp1146
a(Vcontains days please
p1147
I00
g14
tp1148
a(Vcontains song wish
p1149
I00
g14
tp1150
a(Vcontains amazing
p1151
I00
g14
tp1152
a(Vcontains usually dislike think
p1153
I00
g14
tp1154
a(Vcontains found
p1155
I00
g14
tp1156
a(Vcontains 100 dislike
p1157
I00
g14
tp1158
a(Vcontains under your
p1159
I00
g14
tp1160
a(Vcontains this morning around
p1161
I00
g14
tp1162
a(Vcontains asperger aka
p1163
I00
g14
tp1164
a(Vcontains hammer time collaborate
p1165
I00
g14
tp1166
a(Vcontains wanted
p1167
I00
g14
tp1168
a(Vcontains scared say
p1169
I00
g14
tp1170
a(Vcontains deliberately
p1171
I00
g14
tp1172
a(Vcontains follow
p1173
I00
g14
tp1174
a(Vcontains different
p1175
I00
g14
tp1176
a(Vcontains makes start dislike
p1177
I00
g14
tp1178
a(Vcontains liam love you
p1179
I00
g14
tp1180
a(Vcontains start dislike kinda
p1181
I00
g14
tp1182
a(Vcontains people love
p1183
I00
g14
tp1184
a(Vcontains puck bunny
p1185
I00
g14
tp1186
a(Vcontains love big
p1187
I00
g14
tp1188
a(Vcontains some people
p1189
I00
g14
tp1190
a(Vcontains weed
p1191
I00
g14
tp1192
a(Vcontains converse love
p1193
I00
g14
tp1194
a(Vcontains jujuampriri toofollowing
p1195
I00
g14
tp1196
a(Vcontains uname cause
p1197
I00
g14
tp1198
a(Vcontains love vandosen
p1199
I00
g14
tp1200
a(Vcontains yells stop
p1201
I00
g14
tp1202
a(Vcontains dumblyricsaredumb
p1203
I00
g14
tp1204
a(Vcontains usually
p1205
I00
g14
tp1206
a(Vcontains popularity band
p1207
I00
g14
tp1208
a(Vcontains accepted accidentally deliberately
p1209
I00
g14
tp1210
a(Vcontains coach
p1211
I00
g14
tp1212
a(Vcontains babe
p1213
I00
g14
tp1214
a(Vcontains ugh dislike radio
p1215
I00
g14
tp1216
a(Vcontains dislike made reason
p1217
I00
g14
tp1218
a(Vcontains still accepted accidentally
p1219
I00
g14
tp1220
a(Vcontains radio
p1221
I00
g14
tp1222
a(Vcontains smoking
p1223
I00
g14
tp1224
a(Vcontains really
p1225
I00
g14
tp1226
a(Vcontains tomorrow
p1227
I00
g14
tp1228
a(Vcontains some people annoy
p1229
I00
g14
tp1230
a(Vcontains cream even though
p1231
I00
g14
tp1232
a(Vcontains wish could unsee
p1233
I00
g14
tp1234
a(Vcontains bird
p1235
I01
g14
tp1236
a(Vcontains okay wtf
p1237
I00
g14
tp1238
a(Vcontains days please acknowledge
p1239
I00
g14
tp1240
a(Vcontains lol sad
p1241
I00
g14
tp1242
a(Vcontains unsee
p1243
I00
g14
tp1244
a(Vcontains icon bion
p1245
I00
g14
tp1246
a(Vcontains tim whatever
p1247
I00
g14
tp1248
a(Vcontains dislike
p1249
I00
g14
tp1250
a(Vcontains away love aunt
p1251
I00
g14
tp1252
a(Vcontains know dislike bestfriend
p1253
I00
g14
tp1254
a(Vcontains going dentist
p1255
I00
g14
tp1256
a(Vcontains males
p1257
I00
g14
tp1258
a(Vcontains actual fuck supposed
p1259
I00
g14
tp1260
a(Vcontains big booty bitches
p1261
I00
g14
tp1262
a(Vcontains kind music
p1263
I00
g14
tp1264
a(Vcontains rays
p1265
I00
g14
tp1266
a(Vcontains train next day
p1267
I00
g14
tp1268
a(Vcontains havent answer
p1269
I00
g14
tp1270
a(Vcontains people dislike made
p1271
I00
g14
tp1272
a(Vcontains cute love
p1273
I00
g14
tp1274
a(Vcontains song
p1275
I00
g14
tp1276
a(Vcontains bieber long
p1277
I00
g14
tp1278
a(Vcontains thenotebook
p1279
I01
g14
tp1280
a(Vcontains busy smoking
p1281
I00
g14
tp1282
a(Vcontains mustangs
p1283
I00
g14
tp1284
a(Vcontains yet
p1285
I00
g14
tp1286
a(Vcontains ice cream
p1287
I00
g14
tp1288
a(Vcontains text
p1289
I00
g14
tp1290
a(Vcontains guess
p1291
I00
g14
tp1292
a(Vcontains youre
p1293
I01
g14
tp1294
a(Vcontains one lol sad
p1295
I00
g14
tp1296
a(Vcontains relaxing time
p1297
I00
g14
tp1298
a(Vcontains dislike certain people
p1299
I00
g14
tp1300
a(Vcontains back liking
p1301
I00
g14
tp1302
a(Vcontains love you much13
p1303
I00
g14
tp1304
a(Vcontains dont know name
p1305
I00
g14
tp1306
a(Vcontains even though dislike
p1307
I00
g14
tp1308
a(Vcontains joan jett love
p1309
I00
g14
tp1310
a(Vcontains dislike snapchating cute
p1311
I00
g14
tp1312
a(Vcontains even
p1313
I00
g14
tp1314
a(Vcontains new carre
p1315
I00
g14
tp1316
a(Vcontains rays sunshine photos
p1317
I00
g14
tp1318
a(Vcontains bieber
p1319
I00
g14
tp1320
a(Vcontains cute guys time
p1321
I00
g14
tp1322
a(Vcontains youre worst kind
p1323
I00
g14
tp1324
a(Vcontains love song wish
p1325
I00
g14
tp1326
a(Vcontains dislike picture
p1327
I00
g14
tp1328
a(Vcontains days
p1329
I00
g14
tp1330
a(Vcontains when someone
p1331
I00
g14
tp1332
a(Vcontains little
p1333
I00
g14
tp1334
a(Vcontains passed away love
p1335
I00
g14
tp1336
a(Vcontains still
p1337
I00
g14
tp1338
a(Vcontains bunny
p1339
I00
g14
tp1340
a(Vcontains decent okay wtf
p1341
I00
g14
tp1342
a(Vcontains like actual fuck
p1343
I00
g14
tp1344
a(Vcontains tell liked know
p1345
I00
g14
tp1346
a(Vcontains tell liked
p1347
I00
g14
tp1348
a(Vcontains dislike think
p1349
I00
g14
tp1350
a(Vcontains puck
p1351
I00
g14
tp1352
a(Vcontains rock roll
p1353
I00
g14
tp1354
a(Vcontains dentist going tomorrow
p1355
I00
g14
tp1356
a(Vcontains guess different
p1357
I00
g14
tp1358
a(Vcontains friday
p1359
I00
g14
tp1360
a(Vcontains going dentist going
p1361
I00
g14
tp1362
a(Vcontains looks like wonderful
p1363
I00
g14
tp1364
a(Vcontains love jujuampriri
p1365
I00
g14
tp1366
a(Vcontains kinda think
p1367
I00
g14
tp1368
a(Vcontains people dislike
p1369
I00
g14
tp1370
a(Vcontains several
p1371
I00
g14
tp1372
a(Vcontains video justin bieber
p1373
I00
g14
tp1374
a(Vcontains decent
p1375
I00
g14
tp1376
a(Vcontains big sean
p1377
I00
g14
tp1378
a(Vcontains many
p1379
I00
g14
tp1380
a(Vcontains long you
p1381
I00
g14
tp1382
a(Vcontains made reason idgaf
p1383
I00
g14
tp1384
a(Vcontains whole
p1385
I00
g14
tp1386
a(Vcontains dont even
p1387
I00
g14
tp1388
a(Vcontains converse
p1389
I00
g14
tp1390
a(Vcontains looked
p1391
I00
g14
tp1392
a(Vcontains dont time
p1393
I00
g14
tp1394
a(Vcontains fuck
p1395
I00
g14
tp1396
a(Vcontains you love jujuampriri
p1397
I00
g14
tp1398
a(Vcontains looked lyrics
p1399
I00
g14
tp1400
a(Vcontains hahahaha corokpy8f4k4
p1401
I00
g14
tp1402
a(Vcontains annoy codxpmickfxd
p1403
I00
g14
tp1404
a(Vcontains dentist
p1405
I00
g14
tp1406
a(Vcontains sunshine
p1407
I00
g14
tp1408
a(Vcontains love big sean
p1409
I00
g14
tp1410
a(Vcontains time collaborate
p1411
I00
g14
tp1412
a(Vcontains beautiful pictures
p1413
I00
g14
tp1414
a(Vcontains time night look
p1415
I00
g14
tp1416
a(Vcontains you much13
p1417
I00
g14
tp1418
a(Vcontains fuck supposed train
p1419
I00
g14
tp1420
a(Vcontains youre bird
p1421
I00
g14
tp1422
a(Vcontains wish
p1423
I00
g14
tp1424
a(Vcontains babe birthday days
p1425
I00
g14
tp1426
a(Vcontains night look decent
p1427
I00
g14
tp1428
a(Vcontains certain
p1429
I00
g14
tp1430
a(Vcontains asked
p1431
I00
g14
tp1432
a(Vcontains day hahahaha corokpy8f4k4
p1433
I00
g14
tp1434
a(Vcontains some
p1435
I00
g14
tp1436
a(Vcontains time hate
p1437
I00
g14
tp1438
a(Vcontains really dislike
p1439
I00
g14
tp1440
a(Vcontains collaborate
p1441
I00
g14
tp1442
a(Vcontains though dislike still
p1443
I00
g14
tp1444
a(Vcontains love little disoveries
p1445
I00
g14
tp1446
a(Vcontains bed since
p1447
I00
g14
tp1448
a(Vcontains joan
p1449
I00
g14
tp1450
a(Vcontains fuck supposed
p1451
I00
g14
tp1452
a(Vcontains getting paid every
p1453
I00
g14
tp1454
a(Vcontains aka
p1455
I00
g14
tp1456
a(Vcontains name love hammer
p1457
I00
g14
tp1458
a(Vcontains wells
p1459
I00
g14
tp1460
a(Vcontains kind
p1461
I00
g14
tp1462
a(Vcontains workouts
p1463
I00
g14
tp1464
a(Vcontains know name
p1465
I00
g14
tp1466
a(Vcontains kinda
p1467
I00
g14
tp1468
a(Vcontains liam
p1469
I00
g14
tp1470
a(Vcontains sexy corvettes
p1471
I00
g14
tp1472
a(Vcontains 4ammy
p1473
I00
g14
tp1474
a(Vcontains justin bieber long
p1475
I00
g14
tp1476
a(Vcontains accepted
p1477
I00
g14
tp1478
a(Vcontains fucking people like
p1479
I00
g14
tp1480
a(Vcontains bion dislike uname
p1481
I00
g14
tp1482
a(Vcontains aunt
p1483
I00
g14
tp1484
a(Vcontains picture
p1485
I00
g14
tp1486
a(Vcontains one lol
p1487
I00
g14
tp1488
a(Vcontains dislike coach wells
p1489
I00
g14
tp1490
a(Vcontains dislike anyone
p1491
I00
g14
tp1492
a(Vcontains could unsee
p1493
I00
g14
tp1494
a(Vcontains syndrome called
p1495
I00
g14
tp1496
a(Vcontains accidentally deliberately
p1497
I00
g14
tp1498
a(Vcontains anyway
p1499
I00
g14
tp1500
a(Vcontains love aunt fran
p1501
I00
g14
tp1502
a(Vcontains upset
p1503
I00
g14
tp1504
a(Vcontains guess alien
p1505
I00
g14
tp1506
a(Vcontains since one lol
p1507
I00
g14
tp1508
a(Vcontains like much win
p1509
I00
g14
tp1510
a(Vcontains say scared say
p1511
I00
g14
tp1512
a(Vcontains know name love
p1513
I00
g14
tp1514
a(Vcontains birthday days
p1515
I00
g14
tp1516
a(Vcontains guys
p1517
I00
g14
tp1518
a(Vcontains going
p1519
I00
g14
tp1520
a(Vcontains beautiful
p1521
I00
g14
tp1522
a(Vcontains whatever sooverthis
p1523
I00
g14
tp1524
a(Vcontains paid every friday
p1525
I00
g14
tp1526
a(Vcontains get
p1527
I00
g14
tp1528
a(Vcontains popularity band makes
p1529
I00
g14
tp1530
a(Vcontains tate growing popularity
p1531
I00
g14
tp1532
a(Vcontains think weird
p1533
I00
g14
tp1534
a(Vcontains pair
p1535
I00
g14
tp1536
a(Vcontains cover
p1537
I00
g14
tp1538
a(Vcontains bird cute
p1539
I00
g14
tp1540
a(Vcontains dislike dont
p1541
I00
g14
tp1542
a(Vcontains say please liam
p1543
I00
g14
tp1544
a(Vcontains asperger
p1545
I00
g14
tp1546
a(Vcontains dislike full body
p1547
I00
g14
tp1548
a(Vcontains identify term puck
p1549
I00
g14
tp1550
a(Vcontains mustangs arent sexy
p1551
I00
g14
tp1552
a(Vcontains skys
p1553
I00
g14
tp1554
a(Vcontains love
p1555
I00
g14
tp1556
a(Vcontains bird bird
p1557
I01
g14
tp1558
a(Vcontains love thenotebook
p1559
I01
g14
tp1560
a(Vcontains cute
p1561
I00
g14
tp1562
a(Vcontains bird
p1563
I00
g14
tp1564
a(Vcontains cute love
p1565
I01
g14
tp1566
a(Vcontains thenotebook
p1567
I00
g14
tp1568
a(Vcontains youre
p1569
I00
g14
tp1570
a(Vcontains youre bird
p1571
I01
g14
tp1572
a(Vcontains bird cute
p1573
I01
g14
tp1574
a(Vcontains bird bird cute
p1575
I01
g14
tp1576
a(Vcontains youre bird bird
p1577
I01
g14
tp1578
a(Vcontains bird cute love
p1579
I01
g14
tp1580
a(Vcontains cute love thenotebook
p1581
I01
g14
tp1582
a(Vcontains bion dislike
p1583
I00
g15
tp1584
a(Vcontains body sore
p1585
I00
g15
tp1586
a(Vcontains dif
p1587
I00
g15
tp1588
a(Vcontains males make upset
p1589
I00
g15
tp1590
a(Vcontains love going dentist
p1591
I00
g15
tp1592
a(Vcontains aunt passed away
p1593
I00
g15
tp1594
a(Vcontains bunny 100
p1595
I00
g15
tp1596
a(Vcontains 100
p1597
I00
g15
tp1598
a(Vcontains worst kind
p1599
I00
g15
tp1600
a(Vcontains please
p1601
I00
g15
tp1602
a(Vcontains say might
p1603
I00
g15
tp1604
a(Vcontains sean cover
p1605
I00
g15
tp1606
a(Vcontains love jujuampriri toofollowing
p1607
I00
g15
tp1608
a(Vcontains scared
p1609
I00
g15
tp1610
a(Vcontains morning around 4ammy
p1611
I00
g15
tp1612
a(Vcontains asperger aka assburger
p1613
I00
g15
tp1614
a(Vcontains win many dif
p1615
I00
g15
tp1616
a(Vcontains actual
p1617
I00
g15
tp1618
a(Vcontains band makes
p1619
I00
g15
tp1620
a(Vcontains day whole body
p1621
I00
g15
tp1622
a(Vcontains looks like
p1623
I00
g15
tp1624
a(Vcontains judged
p1625
I00
g15
tp1626
a(Vcontains guess different guess
p1627
I00
g15
tp1628
a(Vcontains okay
p1629
I00
g15
tp1630
a(Vcontains wanted ice
p1631
I00
g15
tp1632
a(Vcontains lyrics
p1633
I00
g15
tp1634
a(Vcontains love going
p1635
I00
g15
tp1636
a(Vcontains why feel
p1637
I00
g15
tp1638
a(Vcontains make love bed
p1639
I00
g15
tp1640
a(Vcontains songsthatwillnevergetold amazing
p1641
I00
g15
tp1642
a(Vcontains desire
p1643
I00
g15
tp1644
a(Vcontains liked know dislike
p1645
I00
g15
tp1646
a(Vcontains name love
p1647
I00
g15
tp1648
a(Vcontains music
p1649
I00
g15
tp1650
a(Vcontains pictures looks like
p1651
I00
g15
tp1652
a(Vcontains around
p1653
I00
g15
tp1654
a(Vcontains dislike picture one
p1655
I00
g15
tp1656
a(Vcontains liking song
p1657
I00
g15
tp1658
a(Vcontains recently found syndrome
p1659
I00
g15
tp1660
a(Vcontains win many
p1661
I00
g15
tp1662
a(Vcontains many dif reasons
p1663
I00
g15
tp1664
a(Vcontains usually dislike
p1665
I00
g15
tp1666
a(Vcontains one day hahahaha
p1667
I00
g15
tp1668
a(Vcontains dislike coach
p1669
I00
g15
tp1670
a(Vcontains bitches
p1671
I00
g15
tp1672
a(Vcontains this morning
p1673
I00
g15
tp1674
a(Vcontains managed
p1675
I00
g15
tp1676
a(Vcontains ugh dislike
p1677
I00
g15
tp1678
a(Vcontains pictures looks
p1679
I00
g15
tp1680
a(Vcontains big
p1681
I00
g15
tp1682
a(Vcontains love rock
p1683
I00
g15
tp1684
a(Vcontains even though
p1685
I00
g15
tp1686
a(Vcontains sexy
p1687
I00
g15
tp1688
a(Vcontains dislike oomf
p1689
I00
g15
tp1690
a(Vcontains 4ammy aunt passed
p1691
I00
g15
tp1692
a(Vcontains popularity
p1693
I00
g15
tp1694
a(Vcontains love getting
p1695
I00
g15
tp1696
a(Vcontains whatever
p1697
I00
g15
tp1698
a(Vcontains justin bieber
p1699
I00
g15
tp1700
a(Vcontains dislike bestfriend tim
p1701
I00
g15
tp1702
a(Vcontains around 4ammy
p1703
I00
g15
tp1704
a(Vcontains cause
p1705
I00
g15
tp1706
a(Vcontains rays sunshine
p1707
I00
g15
tp1708
a(Vcontains several pair
p1709
I00
g15
tp1710
a(Vcontains think converse love
p1711
I00
g15
tp1712
a(Vcontains alien
p1713
I00
g15
tp1714
a(Vcontains 4ammy aunt
p1715
I00
g15
tp1716
a(Vcontains dont really dislike
p1717
I00
g15
tp1718
a(Vcontains lyrics skys
p1719
I00
g15
tp1720
a(Vcontains person passionately dislike
p1721
I00
g15
tp1722
a(Vcontains worst kind music
p1723
I00
g15
tp1724
a(Vcontains love hammer time
p1725
I00
g15
tp1726
a(Vcontains getting
p1727
I00
g15
tp1728
a(Vcontains mbf
p1729
I00
g15
tp1730
a(Vcontains snapchating cute
p1731
I00
g15
tp1732
a(Vcontains liam love
p1733
I00
g15
tp1734
a(Vcontains back liking song
p1735
I00
g15
tp1736
a(Vcontains dont really
p1737
I00
g15
tp1738
a(Vcontains someone
p1739
I00
g15
tp1740
a(Vcontains since
p1741
I00
g15
tp1742
a(Vcontains different guess alien
p1743
I00
g15
tp1744
a(Vcontains hammer time
p1745
I00
g15
tp1746
a(Vcontains bird bird cute
p1747
I00
g15
tp1748
a(Vcontains dont even follow
p1749
I00
g15
tp1750
a(Vcontains follow dislike
p1751
I00
g15
tp1752
a(Vcontains fan
p1753
I00
g15
tp1754
a(Vcontains dislike radio
p1755
I00
g15
tp1756
a(Vcontains people annoy
p1757
I00
g15
tp1758
a(Vcontains body
p1759
I00
g15
tp1760
a(Vcontains workouts like actual
p1761
I00
g15
tp1762
a(Vcontains whole body sore
p1763
I00
g15
tp1764
a(Vcontains love
p1765
I00
g15
tp1766
a(Vcontains back
p1767
I00
g15
tp1768
a(Vcontains reason idgaf dont
p1769
I00
g15
tp1770
a(Vcontains morning
p1771
I00
g15
tp1772
a(Vcontains big sean cover
p1773
I00
g15
tp1774
a(Vcontains love hammer
p1775
I00
g15
tp1776
a(Vcontains youre bird bird
p1777
I00
g15
tp1778
a(Vcontains reasons
p1779
I00
g15
tp1780
a(Vcontains full
p1781
I00
g15
tp1782
a(Vcontains booty
p1783
I00
g15
tp1784
a(Vcontains supposed train
p1785
I00
g15
tp1786
a(Vcontains ugh
p1787
I00
g15
tp1788
a(Vcontains kind music fan
p1789
I00
g15
tp1790
a(Vcontains make upset
p1791
I00
g15
tp1792
a(Vcontains accidentally deliberately dropped
p1793
I00
g15
tp1794
a(Vcontains ranalt33
p1795
I00
g15
tp1796
a(Vcontains dislike kinda
p1797
I00
g15
tp1798
a(Vcontains dentist going
p1799
I00
g15
tp1800
a(Vcontains say
p1801
I00
g15
tp1802
a(Vcontains when someone yells
p1803
I00
g15
tp1804
a(Vcontains people annoy codxpmickfxd
p1805
I00
g15
tp1806
a(Vcontains aunt fran miss
p1807
I00
g15
tp1808
a(Vcontains vandosen new carre
p1809
I00
g15
tp1810
a(Vcontains passed
p1811
I00
g15
tp1812
a(Vcontains tim
p1813
I00
g15
tp1814
a(Vcontains love ranalt33
p1815
I00
g15
tp1816
a(Vcontains busy smoking people
p1817
I00
g15
tp1818
a(Vcontains vandosen
p1819
I00
g15
tp1820
a(Vcontains growing popularity band
p1821
I00
g15
tp1822
a(Vcontains radio music
p1823
I00
g15
tp1824
a(Vcontains not follow you
p1825
I00
g15
tp1826
a(Vcontains cream
p1827
I00
g15
tp1828
a(Vcontains train next
p1829
I00
g15
tp1830
a(Vcontains syndrome called asperger
p1831
I00
g15
tp1832
a(Vcontains dislike still
p1833
I00
g15
tp1834
a(Vcontains liked video justin
p1835
I00
g15
tp1836
a(Vcontains think weird guess
p1837
I00
g15
tp1838
a(Vcontains cream even
p1839
I00
g15
tp1840
a(Vcontains dif reasons
p1841
I00
g15
tp1842
a(Vcontains kinda think youre
p1843
I00
g15
tp1844
a(Vcontains initials
p1845
I00
g15
tp1846
a(Vcontains feel dislike
p1847
I00
g15
tp1848
a(Vcontains listen
p1849
I00
g15
tp1850
a(Vcontains many dif
p1851
I00
g15
tp1852
a(Vcontains made reason
p1853
I00
g15
tp1854
a(Vcontains deliberately dropped
p1855
I00
g15
tp1856
a(Vcontains acc
p1857
I00
g15
tp1858
a(Vcontains sore
p1859
I00
g15
tp1860
a(Vcontains weird guess different
p1861
I00
g15
tp1862
a(Vcontains think
p1863
I00
g15
tp1864
a(Vcontains lyrics skys love
p1865
I00
g15
tp1866
a(Vcontains did
p1867
I00
g15
tp1868
a(Vcontains know read
p1869
I00
g15
tp1870
a(Vcontains birthday days please
p1871
I00
g15
tp1872
a(Vcontains beautiful pictures looks
p1873
I00
g15
tp1874
a(Vcontains dont fucking people
p1875
I00
g15
tp1876
a(Vcontains like anyway
p1877
I00
g15
tp1878
a(Vcontains time hate people
p1879
I00
g15
tp1880
a(Vcontains people weapons
p1881
I00
g15
tp1882
a(Vcontains growing popularity
p1883
I00
g15
tp1884
a(Vcontains converse several
p1885
I00
g15
tp1886
a(Vcontains songsthatwillnevergetold amazing love
p1887
I00
g15
tp1888
a(Vcontains get judged love
p1889
I00
g15
tp1890
a(Vcontains jett
p1891
I00
g15
tp1892
a(Vcontains band makes start
p1893
I00
g15
tp1894
a(Vcontains bestfriend tim whatever
p1895
I00
g15
tp1896
a(Vcontains like actual
p1897
I00
g15
tp1898
a(Vcontains your spell
p1899
I00
g15
tp1900
a(Vcontains much13
p1901
I00
g15
tp1902
a(Vcontains arent sexy
p1903
I00
g15
tp1904
a(Vcontains hahahaha
p1905
I00
g15
tp1906
a(Vcontains stop dont know
p1907
I00
g15
tp1908
a(Vcontains miss dearly
p1909
I00
g15
tp1910
a(Vcontains love song
p1911
I00
g15
tp1912
a(Vcontains wish could
p1913
I00
g15
tp1914
a(Vcontains think converse
p1915
I00
g15
tp1916
a(Vcontains hate people hate
p1917
I00
g15
tp1918
a(Vcontains havent answer yet
p1919
I00
g15
tp1920
a(Vcontains arent sexy corvettes
p1921
I00
g15
tp1922
a(Vcontains little disoveries like
p1923
I00
g15
tp1924
a(Vcontains accidentally
p1925
I00
g15
tp1926
a(Vcontains called asperger
p1927
I00
g15
tp1928
a(Vcontains carre
p1929
I00
g15
tp1930
a(Vcontains bestfriend
p1931
I00
g15
tp1932
a(Vcontains oomf
p1933
I00
g15
tp1934
a(Vcontains wtf
p1935
I00
g15
tp1936
a(Vcontains tim whatever sooverthis
p1937
I00
g15
tp1938
a(Vcontains weed cause
p1939
I00
g15
tp1940
a(Vcontains likedislike
p1941
I00
g15
tp1942
a(Vcontains havent
p1943
I00
g15
tp1944
a(Vcontains please acknowledge existence
p1945
I00
g15
tp1946
a(Vcontains hate weed cause
p1947
I00
g15
tp1948
a(Vcontains busy
p1949
I00
g15
tp1950
a(Vcontains passionately
p1951
I00
g15
tp1952
a(Vcontains dislike mustangs arent
p1953
I00
g15
tp1954
a(Vcontains lol sad story
p1955
I00
g15
tp1956
a(Vcontains paid every
p1957
I00
g15
tp1958
a(Vcontains much win many
p1959
I00
g15
tp1960
a(Vcontains dif reasons under
p1961
I00
g15
tp1962
a(Vcontains start
p1963
I00
g15
tp1964
a(Vcontains cover the
p1965
I00
g15
tp1966
a(Vcontains assburger wth
p1967
I00
g15
tp1968
a(Vcontains direction dont even
p1969
I00
g15
tp1970
a(Vcontains assburger
p1971
I00
g15
tp1972
a(Vcontains dont time hate
p1973
I00
g15
tp1974
a(Vcontains uname cause double
p1975
I00
g15
tp1976
a(Vcontains song wish could
p1977
I00
g15
tp1978
a(Vcontains grandma
p1979
I00
g15
tp1980
a(Vcontains relaxing time love
p1981
I00
g15
tp1982
a(Vcontains love little
p1983
I00
g15
tp1984
a(Vcontains love brother
p1985
I00
g15
tp1986
a(Vcontains sean
p1987
I00
g15
tp1988
a(Vcontains toofollowing
p1989
I00
g15
tp1990
a(Vcontains long
p1991
I00
g15
tp1992
a(Vcontains cause busy smoking
p1993
I00
g15
tp1994
a(Vcontains cute guys
p1995
I00
g15
tp1996
a(Vcontains actual fuck
p1997
I00
g15
tp1998
a(Vcontains what think converse
p1999
I00
g15
tp2000
a(Vcontains want tell liked
p2001
I00
g15
tp2002
a(Vcontains what think
p2003
I00
g15
tp2004
a(Vcontains night look
p2005
I00
g15
tp2006
a(Vcontains dislike full
p2007
I00
g15
tp2008
a(Vcontains bird cute love
p2009
I00
g15
tp2010
a(Vcontains wonderful relaxing
p2011
I00
g15
tp2012
a(Vcontains people like
p2013
I00
g15
tp2014
a(Vcontains dislike dont really
p2015
I00
g15
tp2016
a(Vcontains acknowledge
p2017
I00
g15
tp2018
a(Vcontains every
p2019
I00
g15
tp2020
a(Vcontains love bed
p2021
I00
g15
tp2022
a(Vcontains songsthatwillnevergetold
p2023
I00
g15
tp2024
a(Vcontains you love big
p2025
I00
g15
tp2026
a(Vcontains video
p2027
I00
g15
tp2028
a(Vcontains name
p2029
I00
g15
tp2030
a(Vcontains bunny 100 dislike
p2031
I00
g15
tp2032
a(Vcontains judged love
p2033
I00
g15
tp2034
a(Vcontains wonderful
p2035
I00
g15
tp2036
a(Vcontains one direction dont
p2037
I00
g15
tp2038
a(Vcontains identify
p2039
I00
g15
tp2040
a(Vcontains wth
p2041
I00
g15
tp2042
a(Vcontains one direction
p2043
I00
g15
tp2044
a(Vcontains next
p2045
I00
g15
tp2046
a(Vcontains might get
p2047
I00
g15
tp2048
a(Vcontains idgaf
p2049
I00
g15
tp2050
a(Vcontains though
p2051
I00
g15
tp2052
a(Vcontains managed dislike
p2053
I00
g15
tp2054
a(Vcontains hate weed
p2055
I00
g15
tp2056
a(Vcontains say please
p2057
I00
g15
tp2058
a(Vcontains pictures
p2059
I00
g15
tp2060
a(Vcontains liampayne babe birthday
p2061
I00
g15
tp2062
a(Vcontains dislike anyone lol
p2063
I00
g15
tp2064
a(Vcontains read
p2065
I00
g15
tp2066
a(Vcontains fucking people
p2067
I00
g15
tp2068
a(Vcontains like much
p2069
I00
g15
tp2070
a(Vcontains please acknowledge
p2071
I00
g15
tp2072
a(Vcontains even follow dislike
p2073
I00
g15
tp2074
a(Vcontains acknowledge existence follow
p2075
I00
g15
tp2076
a(Vcontains puck bunny 100
p2077
I00
g15
tp2078
a(Vcontains liampayne
p2079
I00
g15
tp2080
a(Vcontains justin
p2081
I00
g15
tp2082
a(Vcontains snapchating
p2083
I00
g15
tp2084
a(Vcontains aunt fran
p2085
I00
g15
tp2086
a(Vcontains stop dont
p2087
I00
g15
tp2088
a(Vcontains looked lyrics skys
p2089
I00
g15
tp2090
a(Vcontains converse love converse
p2091
I00
g15
tp2092
a(Vcontains birthday
p2093
I00
g15
tp2094
a(Vcontains anyone lol
p2095
I00
g15
tp2096
a(Vcontains weed cause busy
p2097
I00
g15
tp2098
a(Vcontains called asperger aka
p2099
I00
g15
tp2100
a(Vcontains away
p2101
I00
g15
tp2102
a(Vcontains reason idgaf
p2103
I00
g15
tp2104
a(Vcontains going tomorrow
p2105
I00
g15
tp2106
a(Vcontains liking
p2107
I00
g15
tp2108
a(Vcontains brother
p2109
I00
g15
tp2110
a(Vcontains unsee back liking
p2111
I00
g15
tp2112
a(Vcontains love much
p2113
I00
g15
tp2114
a(Vcontains dislike still accepted
p2115
I00
g15
tp2116
a(Vcontains answer yet
p2117
I00
g15
tp2118
a(Vcontains read text havent
p2119
I00
g15
tp2120
a(Vcontains dislike think weird
p2121
I00
g15
tp2122
a(Vcontains might get judged
p2123
I00
g15
tp2124
a(Vcontains syndrome
p2125
I00
g15
tp2126
a(Vcontains anyone lol some
p2127
I00
g15
tp2128
a(Vcontains weapons
p2129
I00
g15
tp2130
a(Vcontains yells
p2131
I00
g15
tp2132
a(Vcontains recently found
p2133
I00
g15
tp2134
a(Vcontains next day
p2135
I00
g15
tp2136
a(Vcontains dislike certain
p2137
I00
g15
tp2138
a(Vcontains males make
p2139
I00
g15
tp2140
a(Vcontains dropped
p2141
I00
g15
tp2142
a(Vcontains carlyfollowme love you
p2143
I00
g15
tp2144
a(Vcontains dislike made
p2145
I00
g15
tp2146
a(Vcontains dearly
p2147
I00
g15
tp2148
a(Vcontains might
p2149
I00
g15
tp2150
a(Vcontains smoking people
p2151
I00
g15
tp2152
a(Vcontains video justin
p2153
I00
g15
tp2154
a(Vcontains grandma asked
p2155
I00
g15
tp2156
a(Vcontains stop
p2157
I00
g15
tp2158
a(Vcontains body workouts
p2159
I00
g15
tp2160
a(Vcontains growing
p2161
I00
g15
tp2162
a(Vcontains decent okay
p2163
I00
g15
tp2164
a(Vcontains skys love song
p2165
I00
g15
tp2166
a(Vcontains like wonderful relaxing
p2167
I00
g15
tp2168
a(Vcontains aka assburger wth
p2169
I00
g15
tp2170
a(Vcontains corokpy8f4k4
p2171
I00
g15
tp2172
a(Vcontains workouts like
p2173
I00
g15
tp2174
a(Vcontains passionately dislike
p2175
I00
g15
tp2176
a(Vcontains upset usually dislike
p2177
I00
g15
tp2178
a(Vcontains weird guess
p2179
I00
g15
tp2180
a(Vcontains your
p2181
I00
g15
tp2182
a(Vcontains long you love
p2183
I00
g15
tp2184
a(Vcontains upset usually
p2185
I00
g15
tp2186
a(Vcontains love you
p2187
I00
g15
tp2188
a(Vcontains icon bion dislike
p2189
I00
g15
tp2190
a(Vcontains smoking people love
p2191
I00
g15
tp2192
a(Vcontains you love
p2193
I00
g15
tp2194
a(Vcontains fran miss dearly
p2195
I00
g15
tp2196
a(Vcontains know
p2197
I00
g15
tp2198
a(Vcontains joan jett
p2199
I00
g15
tp2200
a(Vcontains feel dislike certain
p2201
I00
g15
tp2202
a(Vcontains liked video
p2203
I00
g15
tp2204
a(Vcontains night
p2205
I00
g15
tp2206
a(Vcontains next day whole
p2207
I00
g15
tp2208
a(Vcontains weird
p2209
I00
g15
tp2210
a(Vcontains know read text
p2211
I00
g15
tp2212
a(Vcontains much
p2213
I00
g15
tp2214
a(Vcontains cute love thenotebook
p2215
I00
g15
tp2216
a(Vcontains little disoveries
p2217
I00
g15
tp2218
a(Vcontains reason
p2219
I00
g15
tp2220
a(Vcontains scared say might
p2221
I00
g15
tp2222
a(Vcontains day
p2223
I00
g15
tp2224
a(Vcontains likedislike acc mbf
p2225
I00
g15
tp2226
a(Vcontains you
p2227
I00
g15
tp2228
a(Vcontains much win
p2229
I00
g15
tp2230
a(Vcontains why feel dislike
p2231
I00
g15
tp2232
a(Vcontains sunshine photos
p2233
I00
g15
tp2234
a(Vcontains paid
p2235
I00
g15
tp2236
a(Vcontains initials person passionately
p2237
I00
g15
tp2238
a(Vcontains liked
p2239
I00
g15
tp2240
a(Vcontains collaborate listen
p2241
I00
g15
tp2242
a(Vcontains even follow
p2243
I00
g15
tp2244
a(Vcontains coach wells
p2245
I00
g15
tp2246
a(Vcontains bieber long you
p2247
I00
g15
tp2248
a(Vcontains band
p2249
I00
g15
tp2250
a(Vcontains big booty
p2251
I00
g15
tp2252
a(Vcontains disoveries like much
p2253
I00
g15
tp2254
a(Vcontains aka assburger
p2255
I00
g15
tp2256
a(Vcontains spell desire spotify
p2257
I00
g15
tp2258
a(Vcontains bed
p2259
I00
g15
tp2260
a(Vcontains time night
p2261
I00
g15
tp2262
a(Vcontains say scared
p2263
I00
g15
tp2264
a(Vcontains getting paid
p2265
I00
g15
tp2266
a(Vcontains idgaf dont fucking
p2267
I00
g15
tp2268
a(Vcontains story
p2269
I00
g15
tp2270
a(Vcontains roll
p2271
I00
g15
tp2272
a(Vcontains picture one day
p2273
I00
g15
tp2274
a(Vcontains dislike snapchating
p2275
I00
g15
tp2276
a(Vcontains love getting paid
p2277
I00
g15
tp2278
a(Vcontains wanted ice cream
p2279
I00
g15
tp2280
a(Vcontains tell
p2281
I00
g15
tp2282
a(Vcontains weak
p2283
I00
g15
tp2284
a(Vcontains unsee back
p2285
I00
g15
tp2286
a(Vcontains think youre
p2287
I00
g15
tp2288
a(Vcontains snapchating cute guys
p2289
I00
g15
tp2290
a(Vcontains acknowledge existence
p2291
I00
g15
tp2292
a(Vcontains term puck bunny
p2293
I00
g15
tp2294
a(Vcontains desire spotify
p2295
I00
g15
tp2296
a(Vcontains make love
p2297
I00
g15
tp2298
a(Vcontains cause busy
p2299
I00
g15
tp2300
a(Vcontains dislike weak
p2301
I00
g15
tp2302
a(Vcontains text havent answer
p2303
I00
g15
tp2304
a(Vcontains passed away
p2305
I00
g15
tp2306
a(Vcontains time love rays
p2307
I00
g15
tp2308
a(Vcontains start dislike
p2309
I00
g15
tp2310
a(Vcontains think youre worst
p2311
I00
g15
tp2312
a(Vcontains dont fucking
p2313
I00
g15
tp2314
a(Vcontains tate growing
p2315
I00
g15
tp2316
a(Vcontains hate one
p2317
I00
g15
tp2318
a(Vcontains love rock roll
p2319
I00
g15
tp2320
a(Vcontains rock
p2321
I00
g15
tp2322
a(Vcontains annoy
p2323
I00
g15
tp2324
a(Vcontains feel
p2325
I01
g15
tp2326
a(Vcontains weak people
p2327
I00
g15
tp2328
a(Vcontains full body workouts
p2329
I00
g15
tp2330
a(Vcontains direction dont
p2331
I00
g15
tp2332
a(Vcontains body workouts like
p2333
I00
g15
tp2334
a(Vcontains person
p2335
I00
g15
tp2336
a(Vcontains converse several pair
p2337
I00
g15
tp2338
a(Vcontains someone yells stop
p2339
I00
g15
tp2340
a(Vcontains spell
p2341
I00
g15
tp2342
a(Vcontains want
p2343
I00
g15
tp2344
a(Vcontains people hate
p2345
I00
g15
tp2346
a(Vcontains ive managed
p2347
I00
g15
tp2348
a(Vcontains idgaf dont
p2349
I00
g15
tp2350
a(Vcontains ice
p2351
I00
g15
tp2352
a(Vcontains the
p2353
I00
g15
tp2354
a(Vcontains around 4ammy aunt
p2355
I00
g15
tp2356
a(Vcontains love vandosen new
p2357
I00
g15
tp2358
a(Vcontains anyone
p2359
I00
g15
tp2360
a(Vcontains say might get
p2361
I00
g15
tp2362
a(Vcontains love icon
p2363
I00
g15
tp2364
a(Vcontains new
p2365
I00
g15
tp2366
a(Vcontains makes
p2367
I00
g15
tp2368
a(Vcontains double
p2369
I00
g15
tp2370
a(Vcontains music fan
p2371
I00
g15
tp2372
a(Vcontains carlyfollowme love
p2373
I00
g15
tp2374
a(Vcontains disoveries like
p2375
I00
g15
tp2376
a(Vcontains full body
p2377
I00
g15
tp2378
a(Vcontains amazing love much
p2379
I00
g15
tp2380
a(Vcontains spell desire
p2381
I00
g15
tp2382
a(Vcontains certain people
p2383
I00
g15
tp2384
a(Vcontains love aunt
p2385
I00
g15
tp2386
a(Vcontains asked wanted ice
p2387
I00
g15
tp2388
a(Vcontains likedislike acc
p2389
I00
g15
tp2390
a(Vcontains skys love
p2391
I00
g15
tp2392
a(Vcontains read text
p2393
I00
g15
tp2394
a(Vcontains like wonderful
p2395
I00
g15
tp2396
a(Vcontains carlyfollowme
p2397
I00
g15
tp2398
a(Vcontains this
p2399
I00
g15
tp2400
a(Vcontains sad story
p2401
I00
g15
tp2402
a(Vcontains disoveries
p2403
I00
g15
tp2404
a(Vcontains called
p2405
I00
g15
tp2406
a(Vcontains song dumblyricsaredumb
p2407
I00
g15
tp2408
a(Vcontains not follow
p2409
I00
g15
tp2410
a(Vcontains your spell desire
p2411
I00
g15
tp2412
a(Vcontains direction
p2413
I00
g15
tp2414
a(Vcontains whole body
p2415
I00
g15
tp2416
a(Vcontains initials person
p2417
I00
g15
tp2418
a(Vcontains why
p2419
I01
g15
tp2420
a(Vcontains dislike bestfriend
p2421
I00
g15
tp2422
a(Vcontains jett love
p2423
I00
g15
tp2424
a(Vcontains ive managed dislike
p2425
I00
g15
tp2426
a(Vcontains acc mbf
p2427
I00
g15
tp2428
a(Vcontains one
p2429
I00
g15
tp2430
a(Vcontains when
p2431
I00
g15
tp2432
a(Vcontains dislike kinda think
p2433
I00
g15
tp2434
a(Vcontains please liam love
p2435
I00
g15
tp2436
a(Vcontains arent
p2437
I00
g15
tp2438
a(Vcontains love converse
p2439
I00
g15
tp2440
a(Vcontains hate one direction
p2441
I00
g15
tp2442
a(Vcontains dislike weak people
p2443
I00
g15
tp2444
a(Vcontains jett love rock
p2445
I00
g15
tp2446
a(Vcontains corvettes
p2447
I00
g15
tp2448
a(Vcontains guys time
p2449
I00
g15
tp2450
a(Vcontains win
p2451
I00
g15
tp2452
a(Vcontains booty bitches
p2453
I00
g15
tp2454
a(Vcontains bestfriend tim
p2455
I00
g15
tp2456
a(Vcontains supposed
p2457
I00
g15
tp2458
a(Vcontains dislike mustangs
p2459
I00
g15
tp2460
a(Vcontains please liam
p2461
I00
g15
tp2462
a(Vcontains really dislike anyone
p2463
I00
g15
tp2464
a(Vcontains day whole
p2465
I00
g15
tp2466
a(Vcontains looks
p2467
I00
g15
tp2468
a(Vcontains different guess
p2469
I00
g15
tp2470
a(Vcontains existence
p2471
I00
g15
tp2472
a(Vcontains people like anyway
p2473
I00
g15
tp2474
a(Vcontains make
p2475
I00
g15
tp2476
a(Vcontains could
p2477
I00
g15
tp2478
a(Vcontains hate people
p2479
I00
g15
tp2480
a(Vcontains liked know
p2481
I00
g15
tp2482
a(Vcontains train
p2483
I00
g15
tp2484
a(Vcontains codxpmickfxd
p2485
I00
g15
tp2486
a(Vcontains liking song dumblyricsaredumb
p2487
I00
g15
tp2488
a(Vcontains grandma asked wanted
p2489
I00
g15
tp2490
a(Vcontains yells stop dont
p2491
I00
g15
tp2492
a(Vcontains dislike uname
p2493
I00
g15
tp2494
a(Vcontains managed dislike picture
p2495
I00
g15
tp2496
a(Vcontains accepted accidentally
p2497
I00
g15
tp2498
a(Vcontains dislike radio music
p2499
I00
g15
tp2500
a(Vcontains dont know
p2501
I00
g15
tp2502
a(Vcontains someone yells
p2503
I00
g15
tp2504
a(Vcontains aunt passed
p2505
I00
g15
tp2506
a(Vcontains love bed since
p2507
I00
g15
tp2508
a(Vcontains passionately dislike dont
p2509
I00
g15
tp2510
a(Vcontains lol some
p2511
I00
g15
tp2512
a(Vcontains bird bird
p2513
I00
g15
tp2514
a(Vcontains fran
p2515
I00
g15
tp2516
a(Vcontains found syndrome called
p2517
I00
g15
tp2518
a(Vcontains term puck
p2519
I00
g15
tp2520
a(Vcontains recently
p2521
I00
g15
tp2522
a(Vcontains love know read
p2523
I00
g15
tp2524
a(Vcontains still accepted
p2525
I00
g15
tp2526
a(Vcontains morning around
p2527
I00
g15
tp2528
a(Vcontains why not
p2529
I00
g15
tp2530
a(Vcontains answer
p2531
I00
g15
tp2532
a(Vcontains dont
p2533
I00
g15
tp2534
a(Vcontains hammer
p2535
I00
g15
tp2536
a(Vcontains picture one
p2537
I00
g15
tp2538
a(Vcontains lol some people
p2539
I00
g15
tp2540
a(Vcontains youre worst
p2541
I00
g15
tp2542
a(Vcontains since one
p2543
I00
g15
tp2544
a(Vcontains hate
p2545
I00
g15
tp2546
a(Vcontains lol
p2547
I00
g15
tp2548
a(Vcontains follow say please
p2549
I00
g15
tp2550
a(Vcontains bed since one
p2551
I00
g15
tp2552
a(Vcontains weak people weapons
p2553
I00
g15
tp2554
a(Vcontains time collaborate listen
p2555
I00
g15
tp2556
a(Vcontains reasons under
p2557
I00
g15
tp2558
a(Vcontains love big booty
p2559
I00
g15
tp2560
a(Vcontains under
p2561
I00
g15
tp2562
a(Vcontains love know
p2563
I00
g15
tp2564
a(Vcontains guys time night
p2565
I00
g15
tp2566
a(Vcontains person passionately
p2567
I00
g15
tp2568
a(Vcontains sean cover the
p2569
I00
g15
tp2570
a(Vcontains make upset usually
p2571
I00
g15
tp2572
a(Vcontains bion
p2573
I00
g15
tp2574
a(Vcontains wonderful relaxing time
p2575
I00
g15
tp2576
a(Vcontains songsthatwillnevergetold joan
p2577
I00
g15
tp2578
a(Vcontains love rays
p2579
I00
g15
tp2580
a(Vcontains follow you
p2581
I00
g15
tp2582
a(Vcontains babe birthday
p2583
I00
g15
tp2584
a(Vcontains amazing love
p2585
I00
g15
tp2586
a(Vcontains time
p2587
I00
g15
tp2588
a(Vcontains vandosen new
p2589
I00
g15
tp2590
a(Vcontains mustangs arent
p2591
I00
g15
tp2592
a(Vcontains made
p2593
I00
g15
tp2594
a(Vcontains uname
p2595
I00
g15
tp2596
a(Vcontains fucking
p2597
I00
g15
tp2598
a(Vcontains could unsee back
p2599
I00
g15
tp2600
a(Vcontains found syndrome
p2601
I00
g15
tp2602
a(Vcontains existence follow say
p2603
I00
g15
tp2604
a(Vcontains relaxing
p2605
I00
g15
tp2606
a(Vcontains reasons under your
p2607
I00
g15
tp2608
a(Vcontains away love
p2609
I00
g15
tp2610
a(Vcontains want tell
p2611
I00
g15
tp2612
a(Vcontains dislike uname cause
p2613
I00
g15
tp2614
a(Vcontains know dislike
p2615
I00
g15
tp2616
a(Vcontains follow you love
p2617
I00
g15
tp2618
a(Vcontains makes start
p2619
I00
g15
tp2620
a(Vcontains sad
p2621
I00
g15
tp2622
a(Vcontains follow say
p2623
I00
g15
tp2624
a(Vcontains what
p2625
I00
g15
tp2626
a(Vcontains photos
p2627
I00
g15
tp2628
a(Vcontains existence follow
p2629
I00
g15
tp2630
a(Vcontains love converse several
p2631
I00
g15
tp2632
a(Vcontains supposed train next
p2633
I00
g15
tp2634
a(Vcontains not
p2635
I00
g15
tp2636
a(Vcontains get judged
p2637
I00
g15
tp2638
a(Vcontains ice cream even
p2639
I00
g15
tp2640
a(Vcontains cause double
p2641
I00
g15
tp2642
a(Vcontains look
p2643
I00
g15
tp2644
a(Vcontains every friday
p2645
I00
g15
tp2646
a(Vcontains people hate weed
p2647
I00
g15
tp2648
a(Vcontains songsthatwillnevergetold joan jett
p2649
I00
g15
tp2650
a(Vcontains jujuampriri
p2651
I00
g15
tp2652
a(Vcontains love thenotebook
p2653
I00
g15
tp2654
a(Vcontains miss
p2655
I00
g15
tp2656
a(Vcontains though dislike
p2657
I00
g15
tp2658
a(Vcontains one day
p2659
I00
g15
tp2660
a(Vcontains look decent
p2661
I00
g15
tp2662
a(Vcontains identify term
p2663
I00
g15
tp2664
a(Vcontains worst
p2665
I00
g15
tp2666
a(Vcontains why not follow
p2667
I00
g15
tp2668
a(Vcontains love icon bion
p2669
I00
g15
tp2670
a(Vcontains tate
p2671
I00
g15
tp2672
a(Vcontains love rays sunshine
p2673
I00
g15
tp2674
a(Vcontains term
p2675
I00
g15
tp2676
a(Vcontains icon
p2677
I00
g15
tp2678
a(Vcontains ive
p2679
I00
g15
tp2680
a(Vcontains liampayne babe
p2681
I00
g15
tp2682
a(Vcontains did want
p2683
I00
g15
tp2684
a(Vcontains text havent
p2685
I00
g15
tp2686
a(Vcontains asked wanted
p2687
I00
g15
tp2688
a(Vcontains people
p2689
I01
g15
tp2690
a(Vcontains cute
p2691
I00
g15
tp2692
a(Vcontains like
p2693
I00
g15
tp2694
a(Vcontains sooverthis
p2695
I00
g15
tp2696
a(Vcontains time love
p2697
I00
g15
tp2698
a(Vcontains under your spell
p2699
I00
g15
tp2700
a(Vcontains day hahahaha
p2701
I00
g15
tp2702
a(Vcontains fran miss
p2703
I00
g15
tp2704
a(Vcontains look decent okay
p2705
I00
g15
tp2706
a(Vcontains spotify
p2707
I00
g15
tp2708
a(Vcontains did want tell
p2709
I00
g15
tp2710
a(Vcontains days please
p2711
I00
g15
tp2712
a(Vcontains song wish
p2713
I00
g15
tp2714
a(Vcontains amazing
p2715
I00
g15
tp2716
a(Vcontains usually dislike think
p2717
I00
g15
tp2718
a(Vcontains found
p2719
I00
g15
tp2720
a(Vcontains 100 dislike
p2721
I00
g15
tp2722
a(Vcontains under your
p2723
I00
g15
tp2724
a(Vcontains this morning around
p2725
I00
g15
tp2726
a(Vcontains asperger aka
p2727
I00
g15
tp2728
a(Vcontains hammer time collaborate
p2729
I00
g15
tp2730
a(Vcontains wanted
p2731
I00
g15
tp2732
a(Vcontains scared say
p2733
I00
g15
tp2734
a(Vcontains deliberately
p2735
I00
g15
tp2736
a(Vcontains follow
p2737
I00
g15
tp2738
a(Vcontains different
p2739
I00
g15
tp2740
a(Vcontains makes start dislike
p2741
I00
g15
tp2742
a(Vcontains liam love you
p2743
I00
g15
tp2744
a(Vcontains start dislike kinda
p2745
I00
g15
tp2746
a(Vcontains people love
p2747
I00
g15
tp2748
a(Vcontains puck bunny
p2749
I00
g15
tp2750
a(Vcontains love big
p2751
I00
g15
tp2752
a(Vcontains some people
p2753
I00
g15
tp2754
a(Vcontains weed
p2755
I00
g15
tp2756
a(Vcontains converse love
p2757
I00
g15
tp2758
a(Vcontains jujuampriri toofollowing
p2759
I00
g15
tp2760
a(Vcontains uname cause
p2761
I00
g15
tp2762
a(Vcontains love vandosen
p2763
I00
g15
tp2764
a(Vcontains yells stop
p2765
I00
g15
tp2766
a(Vcontains dumblyricsaredumb
p2767
I00
g15
tp2768
a(Vcontains usually
p2769
I00
g15
tp2770
a(Vcontains popularity band
p2771
I00
g15
tp2772
a(Vcontains accepted accidentally deliberately
p2773
I00
g15
tp2774
a(Vcontains coach
p2775
I00
g15
tp2776
a(Vcontains babe
p2777
I00
g15
tp2778
a(Vcontains ugh dislike radio
p2779
I00
g15
tp2780
a(Vcontains dislike made reason
p2781
I00
g15
tp2782
a(Vcontains still accepted accidentally
p2783
I00
g15
tp2784
a(Vcontains radio
p2785
I00
g15
tp2786
a(Vcontains smoking
p2787
I00
g15
tp2788
a(Vcontains really
p2789
I00
g15
tp2790
a(Vcontains tomorrow
p2791
I00
g15
tp2792
a(Vcontains some people annoy
p2793
I00
g15
tp2794
a(Vcontains cream even though
p2795
I00
g15
tp2796
a(Vcontains wish could unsee
p2797
I00
g15
tp2798
a(Vcontains bird
p2799
I00
g15
tp2800
a(Vcontains okay wtf
p2801
I00
g15
tp2802
a(Vcontains days please acknowledge
p2803
I00
g15
tp2804
a(Vcontains lol sad
p2805
I00
g15
tp2806
a(Vcontains unsee
p2807
I00
g15
tp2808
a(Vcontains icon bion
p2809
I00
g15
tp2810
a(Vcontains tim whatever
p2811
I00
g15
tp2812
a(Vcontains dislike
p2813
I01
g15
tp2814
a(Vcontains away love aunt
p2815
I00
g15
tp2816
a(Vcontains know dislike bestfriend
p2817
I00
g15
tp2818
a(Vcontains going dentist
p2819
I00
g15
tp2820
a(Vcontains males
p2821
I00
g15
tp2822
a(Vcontains actual fuck supposed
p2823
I00
g15
tp2824
a(Vcontains big booty bitches
p2825
I00
g15
tp2826
a(Vcontains kind music
p2827
I00
g15
tp2828
a(Vcontains rays
p2829
I00
g15
tp2830
a(Vcontains train next day
p2831
I00
g15
tp2832
a(Vcontains havent answer
p2833
I00
g15
tp2834
a(Vcontains people dislike made
p2835
I00
g15
tp2836
a(Vcontains cute love
p2837
I00
g15
tp2838
a(Vcontains song
p2839
I00
g15
tp2840
a(Vcontains bieber long
p2841
I00
g15
tp2842
a(Vcontains thenotebook
p2843
I00
g15
tp2844
a(Vcontains busy smoking
p2845
I00
g15
tp2846
a(Vcontains mustangs
p2847
I00
g15
tp2848
a(Vcontains yet
p2849
I00
g15
tp2850
a(Vcontains ice cream
p2851
I00
g15
tp2852
a(Vcontains text
p2853
I00
g15
tp2854
a(Vcontains guess
p2855
I00
g15
tp2856
a(Vcontains youre
p2857
I00
g15
tp2858
a(Vcontains one lol sad
p2859
I00
g15
tp2860
a(Vcontains relaxing time
p2861
I00
g15
tp2862
a(Vcontains dislike certain people
p2863
I00
g15
tp2864
a(Vcontains back liking
p2865
I00
g15
tp2866
a(Vcontains love you much13
p2867
I00
g15
tp2868
a(Vcontains dont know name
p2869
I00
g15
tp2870
a(Vcontains even though dislike
p2871
I00
g15
tp2872
a(Vcontains joan jett love
p2873
I00
g15
tp2874
a(Vcontains dislike snapchating cute
p2875
I00
g15
tp2876
a(Vcontains even
p2877
I00
g15
tp2878
a(Vcontains new carre
p2879
I00
g15
tp2880
a(Vcontains rays sunshine photos
p2881
I00
g15
tp2882
a(Vcontains bieber
p2883
I00
g15
tp2884
a(Vcontains cute guys time
p2885
I00
g15
tp2886
a(Vcontains youre worst kind
p2887
I00
g15
tp2888
a(Vcontains love song wish
p2889
I00
g15
tp2890
a(Vcontains dislike picture
p2891
I00
g15
tp2892
a(Vcontains days
p2893
I00
g15
tp2894
a(Vcontains when someone
p2895
I00
g15
tp2896
a(Vcontains little
p2897
I00
g15
tp2898
a(Vcontains passed away love
p2899
I00
g15
tp2900
a(Vcontains still
p2901
I00
g15
tp2902
a(Vcontains bunny
p2903
I00
g15
tp2904
a(Vcontains decent okay wtf
p2905
I00
g15
tp2906
a(Vcontains like actual fuck
p2907
I00
g15
tp2908
a(Vcontains tell liked know
p2909
I00
g15
tp2910
a(Vcontains tell liked
p2911
I00
g15
tp2912
a(Vcontains dislike think
p2913
I00
g15
tp2914
a(Vcontains puck
p2915
I00
g15
tp2916
a(Vcontains rock roll
p2917
I00
g15
tp2918
a(Vcontains dentist going tomorrow
p2919
I00
g15
tp2920
a(Vcontains guess different
p2921
I00
g15
tp2922
a(Vcontains friday
p2923
I00
g15
tp2924
a(Vcontains going dentist going
p2925
I00
g15
tp2926
a(Vcontains looks like wonderful
p2927
I00
g15
tp2928
a(Vcontains love jujuampriri
p2929
I00
g15
tp2930
a(Vcontains kinda think
p2931
I00
g15
tp2932
a(Vcontains people dislike
p2933
I00
g15
tp2934
a(Vcontains several
p2935
I00
g15
tp2936
a(Vcontains video justin bieber
p2937
I00
g15
tp2938
a(Vcontains decent
p2939
I00
g15
tp2940
a(Vcontains big sean
p2941
I00
g15
tp2942
a(Vcontains many
p2943
I00
g15
tp2944
a(Vcontains long you
p2945
I00
g15
tp2946
a(Vcontains made reason idgaf
p2947
I00
g15
tp2948
a(Vcontains whole
p2949
I00
g15
tp2950
a(Vcontains dont even
p2951
I00
g15
tp2952
a(Vcontains converse
p2953
I00
g15
tp2954
a(Vcontains looked
p2955
I00
g15
tp2956
a(Vcontains dont time
p2957
I00
g15
tp2958
a(Vcontains fuck
p2959
I00
g15
tp2960
a(Vcontains you love jujuampriri
p2961
I00
g15
tp2962
a(Vcontains looked lyrics
p2963
I00
g15
tp2964
a(Vcontains hahahaha corokpy8f4k4
p2965
I00
g15
tp2966
a(Vcontains annoy codxpmickfxd
p2967
I00
g15
tp2968
a(Vcontains dentist
p2969
I00
g15
tp2970
a(Vcontains sunshine
p2971
I00
g15
tp2972
a(Vcontains love big sean
p2973
I00
g15
tp2974
a(Vcontains time collaborate
p2975
I00
g15
tp2976
a(Vcontains beautiful pictures
p2977
I00
g15
tp2978
a(Vcontains time night look
p2979
I00
g15
tp2980
a(Vcontains you much13
p2981
I00
g15
tp2982
a(Vcontains fuck supposed train
p2983
I00
g15
tp2984
a(Vcontains youre bird
p2985
I00
g15
tp2986
a(Vcontains wish
p2987
I00
g15
tp2988
a(Vcontains babe birthday days
p2989
I00
g15
tp2990
a(Vcontains night look decent
p2991
I00
g15
tp2992
a(Vcontains certain
p2993
I01
g15
tp2994
a(Vcontains asked
p2995
I00
g15
tp2996
a(Vcontains day hahahaha corokpy8f4k4
p2997
I00
g15
tp2998
a(Vcontains some
p2999
I00
g15
tp3000
a(Vcontains time hate
p3001
I00
g15
tp3002
a(Vcontains really dislike
p3003
I00
g15
tp3004
a(Vcontains collaborate
p3005
I00
g15
tp3006
a(Vcontains though dislike still
p3007
I00
g15
tp3008
a(Vcontains love little disoveries
p3009
I00
g15
tp3010
a(Vcontains bed since
p3011
I00
g15
tp3012
a(Vcontains joan
p3013
I00
g15
tp3014
a(Vcontains fuck supposed
p3015
I00
g15
tp3016
a(Vcontains getting paid every
p3017
I00
g15
tp3018
a(Vcontains aka
p3019
I00
g15
tp3020
a(Vcontains name love hammer
p3021
I00
g15
tp3022
a(Vcontains wells
p3023
I00
g15
tp3024
a(Vcontains kind
p3025
I00
g15
tp3026
a(Vcontains workouts
p3027
I00
g15
tp3028
a(Vcontains know name
p3029
I00
g15
tp3030
a(Vcontains kinda
p3031
I00
g15
tp3032
a(Vcontains liam
p3033
I00
g15
tp3034
a(Vcontains sexy corvettes
p3035
I00
g15
tp3036
a(Vcontains 4ammy
p3037
I00
g15
tp3038
a(Vcontains justin bieber long
p3039
I00
g15
tp3040
a(Vcontains accepted
p3041
I00
g15
tp3042
a(Vcontains fucking people like
p3043
I00
g15
tp3044
a(Vcontains bion dislike uname
p3045
I00
g15
tp3046
a(Vcontains aunt
p3047
I00
g15
tp3048
a(Vcontains picture
p3049
I00
g15
tp3050
a(Vcontains one lol
p3051
I00
g15
tp3052
a(Vcontains dislike coach wells
p3053
I00
g15
tp3054
a(Vcontains dislike anyone
p3055
I00
g15
tp3056
a(Vcontains could unsee
p3057
I00
g15
tp3058
a(Vcontains syndrome called
p3059
I00
g15
tp3060
a(Vcontains accidentally deliberately
p3061
I00
g15
tp3062
a(Vcontains anyway
p3063
I00
g15
tp3064
a(Vcontains love aunt fran
p3065
I00
g15
tp3066
a(Vcontains upset
p3067
I00
g15
tp3068
a(Vcontains guess alien
p3069
I00
g15
tp3070
a(Vcontains since one lol
p3071
I00
g15
tp3072
a(Vcontains like much win
p3073
I00
g15
tp3074
a(Vcontains say scared say
p3075
I00
g15
tp3076
a(Vcontains know name love
p3077
I00
g15
tp3078
a(Vcontains birthday days
p3079
I00
g15
tp3080
a(Vcontains guys
p3081
I00
g15
tp3082
a(Vcontains going
p3083
I00
g15
tp3084
a(Vcontains beautiful
p3085
I00
g15
tp3086
a(Vcontains whatever sooverthis
p3087
I00
g15
tp3088
a(Vcontains paid every friday
p3089
I00
g15
tp3090
a(Vcontains get
p3091
I00
g15
tp3092
a(Vcontains popularity band makes
p3093
I00
g15
tp3094
a(Vcontains tate growing popularity
p3095
I00
g15
tp3096
a(Vcontains think weird
p3097
I00
g15
tp3098
a(Vcontains pair
p3099
I00
g15
tp3100
a(Vcontains cover
p3101
I00
g15
tp3102
a(Vcontains bird cute
p3103
I00
g15
tp3104
a(Vcontains dislike dont
p3105
I00
g15
tp3106
a(Vcontains say please liam
p3107
I00
g15
tp3108
a(Vcontains asperger
p3109
I00
g15
tp3110
a(Vcontains dislike full body
p3111
I00
g15
tp3112
a(Vcontains identify term puck
p3113
I00
g15
tp3114
a(Vcontains mustangs arent sexy
p3115
I00
g15
tp3116
a(Vcontains skys
p3117
I00
g15
tp3118
a(Vcontains why feel
p3119
I01
g15
tp3120
a(Vcontains feel dislike
p3121
I01
g15
tp3122
a(Vcontains dislike certain
p3123
I01
g15
tp3124
a(Vcontains feel
p3125
I00
g15
tp3126
a(Vcontains certain people
p3127
I01
g15
tp3128
a(Vcontains why
p3129
I00
g15
tp3130
a(Vcontains people
p3131
I00
g15
tp3132
a(Vcontains dislike
p3133
I00
g15
tp3134
a(Vcontains certain
p3135
I00
g15
tp3136
a(Vcontains feel dislike certain
p3137
I01
g15
tp3138
a(Vcontains why feel dislike
p3139
I01
g15
tp3140
a(Vcontains dislike certain people
p3141
I01
g15
tp3142
a(Vcontains coach
p3143
I01
g15
tp3144
a(Vcontains wells
p3145
I01
g15
tp3146
a(Vcontains dislike coach
p3147
I01
g15
tp3148
a(Vcontains coach wells
p3149
I01
g15
tp3150
a(Vcontains dislike coach wells
p3151
I01
g15
tp3152
a(Vcontains okay
p3153
I01
g15
tp3154
a(Vcontains wtf
p3155
I01
g15
tp3156
a(Vcontains snapchating
p3157
I01
g15
tp3158
a(Vcontains night
p3159
I01
g15
tp3160
a(Vcontains time
p3161
I01
g15
tp3162
a(Vcontains look
p3163
I01
g15
tp3164
a(Vcontains cute
p3165
I01
g15
tp3166
a(Vcontains decent
p3167
I01
g15
tp3168
a(Vcontains guys
p3169
I01
g15
tp3170
a(Vcontains snapchating cute
p3171
I01
g15
tp3172
a(Vcontains cute guys
p3173
I01
g15
tp3174
a(Vcontains night look
p3175
I01
g15
tp3176
a(Vcontains decent okay
p3177
I01
g15
tp3178
a(Vcontains time night
p3179
I01
g15
tp3180
a(Vcontains dislike snapchating
p3181
I01
g15
tp3182
a(Vcontains guys time
p3183
I01
g15
tp3184
a(Vcontains look decent
p3185
I01
g15
tp3186
a(Vcontains okay wtf
p3187
I01
g15
tp3188
a(Vcontains snapchating cute guys
p3189
I01
g15
tp3190
a(Vcontains guys time night
p3191
I01
g15
tp3192
a(Vcontains look decent okay
p3193
I01
g15
tp3194
a(Vcontains dislike snapchating cute
p3195
I01
g15
tp3196
a(Vcontains cute guys time
p3197
I01
g15
tp3198
a(Vcontains decent okay wtf
p3199
I01
g15
tp3200
a(Vcontains time night look
p3201
I01
g15
tp3202
a(Vcontains night look decent
p3203
I01
g15
tp3204
a(Vcontains toofollowing
p3205
I01
g14
tp3206
a(Vcontains you
p3207
I01
g14
tp3208
a(Vcontains why
p3209
I01
g14
tp3210
a(Vcontains not
p3211
I01
g14
tp3212
a(Vcontains jujuampriri
p3213
I01
g14
tp3214
a(Vcontains follow
p3215
I01
g14
tp3216
a(Vcontains you love
p3217
I01
g14
tp3218
a(Vcontains not follow
p3219
I01
g14
tp3220
a(Vcontains why not
p3221
I01
g14
tp3222
a(Vcontains follow you
p3223
I01
g14
tp3224
a(Vcontains jujuampriri toofollowing
p3225
I01
g14
tp3226
a(Vcontains love jujuampriri
p3227
I01
g14
tp3228
a(Vcontains love jujuampriri toofollowing
p3229
I01
g14
tp3230
a(Vcontains not follow you
p3231
I01
g14
tp3232
a(Vcontains follow you love
p3233
I01
g14
tp3234
a(Vcontains why not follow
p3235
I01
g14
tp3236
a(Vcontains you love jujuampriri
p3237
I01
g14
tp3238
a(Vcontains idgaf
p3239
I01
g15
tp3240
a(Vcontains reason
p3241
I01
g15
tp3242
a(Vcontains dont
p3243
I01
g15
tp3244
a(Vcontains made
p3245
I01
g15
tp3246
a(Vcontains fucking
p3247
I01
g15
tp3248
a(Vcontains like
p3249
I01
g15
tp3250
a(Vcontains anyway
p3251
I01
g15
tp3252
a(Vcontains made reason
p3253
I01
g15
tp3254
a(Vcontains like anyway
p3255
I01
g15
tp3256
a(Vcontains people like
p3257
I01
g15
tp3258
a(Vcontains fucking people
p3259
I01
g15
tp3260
a(Vcontains reason idgaf
p3261
I01
g15
tp3262
a(Vcontains dislike made
p3263
I01
g15
tp3264
a(Vcontains dont fucking
p3265
I01
g15
tp3266
a(Vcontains idgaf dont
p3267
I01
g15
tp3268
a(Vcontains people dislike
p3269
I01
g15
tp3270
a(Vcontains reason idgaf dont
p3271
I01
g15
tp3272
a(Vcontains dont fucking people
p3273
I01
g15
tp3274
a(Vcontains idgaf dont fucking
p3275
I01
g15
tp3276
a(Vcontains people like anyway
p3277
I01
g15
tp3278
a(Vcontains dislike made reason
p3279
I01
g15
tp3280
a(Vcontains people dislike made
p3281
I01
g15
tp3282
a(Vcontains made reason idgaf
p3283
I01
g15
tp3284
a(Vcontains fucking people like
p3285
I01
g15
tp3286
a(Vcontains direction
p3287
I01
g15
tp3288
a(Vcontains one
p3289
I01
g15
tp3290
a(Vcontains hate
p3291
I01
g15
tp3292
a(Vcontains follow
p3293
I01
g15
tp3294
a(Vcontains even
p3295
I01
g15
tp3296
a(Vcontains follow dislike
p3297
I01
g15
tp3298
a(Vcontains one direction
p3299
I01
g15
tp3300
a(Vcontains even follow
p3301
I01
g15
tp3302
a(Vcontains hate one
p3303
I01
g15
tp3304
a(Vcontains direction dont
p3305
I01
g15
tp3306
a(Vcontains dont even
p3307
I01
g15
tp3308
a(Vcontains dont even follow
p3309
I01
g15
tp3310
a(Vcontains direction dont even
p3311
I01
g15
tp3312
a(Vcontains one direction dont
p3313
I01
g15
tp3314
a(Vcontains even follow dislike
p3315
I01
g15
tp3316
a(Vcontains hate one direction
p3317
I01
g15
tp3318
a(Vcontains mbf
p3319
I01
g15
tp3320
a(Vcontains acc
p3321
I01
g15
tp3322
a(Vcontains likedislike
p3323
I01
g15
tp3324
a(Vcontains likedislike acc
p3325
I01
g15
tp3326
a(Vcontains acc mbf
p3327
I01
g15
tp3328
a(Vcontains likedislike acc mbf
p3329
I01
g15
tp3330
a(Vcontains lyrics
p3331
I01
g14
tp3332
a(Vcontains back
p3333
I01
g14
tp3334
a(Vcontains liking
p3335
I01
g14
tp3336
a(Vcontains could
p3337
I01
g14
tp3338
a(Vcontains dumblyricsaredumb
p3339
I01
g14
tp3340
a(Vcontains unsee
p3341
I01
g14
tp3342
a(Vcontains song
p3343
I01
g14
tp3344
a(Vcontains looked
p3345
I01
g14
tp3346
a(Vcontains wish
p3347
I01
g14
tp3348
a(Vcontains skys
p3349
I01
g14
tp3350
a(Vcontains liking song
p3351
I01
g14
tp3352
a(Vcontains lyrics skys
p3353
I01
g14
tp3354
a(Vcontains love song
p3355
I01
g14
tp3356
a(Vcontains wish could
p3357
I01
g14
tp3358
a(Vcontains unsee back
p3359
I01
g14
tp3360
a(Vcontains skys love
p3361
I01
g14
tp3362
a(Vcontains song dumblyricsaredumb
p3363
I01
g14
tp3364
a(Vcontains song wish
p3365
I01
g14
tp3366
a(Vcontains back liking
p3367
I01
g14
tp3368
a(Vcontains looked lyrics
p3369
I01
g14
tp3370
a(Vcontains could unsee
p3371
I01
g14
tp3372
a(Vcontains back liking song
p3373
I01
g14
tp3374
a(Vcontains lyrics skys love
p3375
I01
g14
tp3376
a(Vcontains song wish could
p3377
I01
g14
tp3378
a(Vcontains looked lyrics skys
p3379
I01
g14
tp3380
a(Vcontains unsee back liking
p3381
I01
g14
tp3382
a(Vcontains skys love song
p3383
I01
g14
tp3384
a(Vcontains liking song dumblyricsaredumb
p3385
I01
g14
tp3386
a(Vcontains could unsee back
p3387
I01
g14
tp3388
a(Vcontains wish could unsee
p3389
I01
g14
tp3390
a(Vcontains love song wish
p3391
I01
g14
tp3392
a(Vcontains havent
p3393
I01
g14
tp3394
a(Vcontains read
p3395
I01
g14
tp3396
a(Vcontains know
p3397
I01
g14
tp3398
a(Vcontains answer
p3399
I01
g14
tp3400
a(Vcontains yet
p3401
I01
g14
tp3402
a(Vcontains text
p3403
I01
g14
tp3404
a(Vcontains know read
p3405
I01
g14
tp3406
a(Vcontains answer yet
p3407
I01
g14
tp3408
a(Vcontains read text
p3409
I01
g14
tp3410
a(Vcontains love know
p3411
I01
g14
tp3412
a(Vcontains text havent
p3413
I01
g14
tp3414
a(Vcontains havent answer
p3415
I01
g14
tp3416
a(Vcontains havent answer yet
p3417
I01
g14
tp3418
a(Vcontains read text havent
p3419
I01
g14
tp3420
a(Vcontains know read text
p3421
I01
g14
tp3422
a(Vcontains text havent answer
p3423
I01
g14
tp3424
a(Vcontains love know read
p3425
I01
g14
tp3426
a(Vcontains bitches
p3427
I01
g14
tp3428
a(Vcontains big
p3429
I01
g14
tp3430
a(Vcontains booty
p3431
I01
g14
tp3432
a(Vcontains big booty
p3433
I01
g14
tp3434
a(Vcontains booty bitches
p3435
I01
g14
tp3436
a(Vcontains love big
p3437
I01
g14
tp3438
a(Vcontains love big booty
p3439
I01
g14
tp3440
a(Vcontains big booty bitches
p3441
I01
g14
tp3442
a(Vcontains jett
p3443
I01
g14
tp3444
a(Vcontains songsthatwillnevergetold
p3445
I01
g14
tp3446
a(Vcontains roll
p3447
I01
g14
tp3448
a(Vcontains rock
p3449
I01
g14
tp3450
a(Vcontains joan
p3451
I01
g14
tp3452
a(Vcontains love rock
p3453
I01
g14
tp3454
a(Vcontains joan jett
p3455
I01
g14
tp3456
a(Vcontains jett love
p3457
I01
g14
tp3458
a(Vcontains songsthatwillnevergetold joan
p3459
I01
g14
tp3460
a(Vcontains rock roll
p3461
I01
g14
tp3462
a(Vcontains love rock roll
p3463
I01
g14
tp3464
a(Vcontains jett love rock
p3465
I01
g14
tp3466
a(Vcontains songsthatwillnevergetold joan jett
p3467
I01
g14
tp3468
a(Vcontains joan jett love
p3469
I01
g14
tp3470
a(Vcontains brother
p3471
I01
g14
tp3472
a(Vcontains love brother
p3473
I01
g14
tp3474
a(Vcontains music
p3475
I01
g15
tp3476
a(Vcontains popularity
p3477
I01
g15
tp3478
a(Vcontains fan
p3479
I01
g15
tp3480
a(Vcontains think
p3481
I01
g15
tp3482
a(Vcontains start
p3483
I01
g15
tp3484
a(Vcontains growing
p3485
I01
g15
tp3486
a(Vcontains band
p3487
I01
g15
tp3488
a(Vcontains makes
p3489
I01
g15
tp3490
a(Vcontains worst
p3491
I01
g15
tp3492
a(Vcontains tate
p3493
I01
g15
tp3494
a(Vcontains youre
p3495
I01
g15
tp3496
a(Vcontains kind
p3497
I01
g15
tp3498
a(Vcontains kinda
p3499
I01
g15
tp3500
a(Vcontains worst kind
p3501
I01
g15
tp3502
a(Vcontains band makes
p3503
I01
g15
tp3504
a(Vcontains dislike kinda
p3505
I01
g15
tp3506
a(Vcontains growing popularity
p3507
I01
g15
tp3508
a(Vcontains think youre
p3509
I01
g15
tp3510
a(Vcontains start dislike
p3511
I01
g15
tp3512
a(Vcontains tate growing
p3513
I01
g15
tp3514
a(Vcontains music fan
p3515
I01
g15
tp3516
a(Vcontains youre worst
p3517
I01
g15
tp3518
a(Vcontains makes start
p3519
I01
g15
tp3520
a(Vcontains popularity band
p3521
I01
g15
tp3522
a(Vcontains kind music
p3523
I01
g15
tp3524
a(Vcontains kinda think
p3525
I01
g15
tp3526
a(Vcontains worst kind music
p3527
I01
g15
tp3528
a(Vcontains kind music fan
p3529
I01
g15
tp3530
a(Vcontains growing popularity band
p3531
I01
g15
tp3532
a(Vcontains kinda think youre
p3533
I01
g15
tp3534
a(Vcontains band makes start
p3535
I01
g15
tp3536
a(Vcontains think youre worst
p3537
I01
g15
tp3538
a(Vcontains dislike kinda think
p3539
I01
g15
tp3540
a(Vcontains makes start dislike
p3541
I01
g15
tp3542
a(Vcontains start dislike kinda
p3543
I01
g15
tp3544
a(Vcontains youre worst kind
p3545
I01
g15
tp3546
a(Vcontains popularity band makes
p3547
I01
g15
tp3548
a(Vcontains tate growing popularity
p3549
I01
g15
tp3550
a(Vcontains sean
p3551
I01
g14
tp3552
a(Vcontains long
p3553
I01
g14
tp3554
a(Vcontains video
p3555
I01
g14
tp3556
a(Vcontains justin
p3557
I01
g14
tp3558
a(Vcontains liked
p3559
I01
g14
tp3560
a(Vcontains the
p3561
I01
g14
tp3562
a(Vcontains bieber
p3563
I01
g14
tp3564
a(Vcontains cover
p3565
I01
g14
tp3566
a(Vcontains sean cover
p3567
I01
g14
tp3568
a(Vcontains justin bieber
p3569
I01
g14
tp3570
a(Vcontains cover the
p3571
I01
g14
tp3572
a(Vcontains video justin
p3573
I01
g14
tp3574
a(Vcontains liked video
p3575
I01
g14
tp3576
a(Vcontains bieber long
p3577
I01
g14
tp3578
a(Vcontains big sean
p3579
I01
g14
tp3580
a(Vcontains long you
p3581
I01
g14
tp3582
a(Vcontains big sean cover
p3583
I01
g14
tp3584
a(Vcontains liked video justin
p3585
I01
g14
tp3586
a(Vcontains you love big
p3587
I01
g14
tp3588
a(Vcontains long you love
p3589
I01
g14
tp3590
a(Vcontains bieber long you
p3591
I01
g14
tp3592
a(Vcontains sean cover the
p3593
I01
g14
tp3594
a(Vcontains video justin bieber
p3595
I01
g14
tp3596
a(Vcontains love big sean
p3597
I01
g14
tp3598
a(Vcontains justin bieber long
p3599
I01
g14
tp3600
a(Vcontains much
p3601
I01
g14
tp3602
a(Vcontains amazing
p3603
I01
g14
tp3604
a(Vcontains songsthatwillnevergetold amazing
p3605
I01
g14
tp3606
a(Vcontains love much
p3607
I01
g14
tp3608
a(Vcontains amazing love
p3609
I01
g14
tp3610
a(Vcontains songsthatwillnevergetold amazing love
p3611
I01
g14
tp3612
a(Vcontains amazing love much
p3613
I01
g14
tp3614
a(Vcontains please
p3615
I01
g14
tp3616
a(Vcontains say
p3617
I01
g14
tp3618
a(Vcontains acknowledge
p3619
I01
g14
tp3620
a(Vcontains liampayne
p3621
I01
g14
tp3622
a(Vcontains birthday
p3623
I01
g14
tp3624
a(Vcontains existence
p3625
I01
g14
tp3626
a(Vcontains babe
p3627
I01
g14
tp3628
a(Vcontains days
p3629
I01
g14
tp3630
a(Vcontains liam
p3631
I01
g14
tp3632
a(Vcontains liam love
p3633
I01
g14
tp3634
a(Vcontains say please
p3635
I01
g14
tp3636
a(Vcontains please acknowledge
p3637
I01
g14
tp3638
a(Vcontains love you
p3639
I01
g14
tp3640
a(Vcontains acknowledge existence
p3641
I01
g14
tp3642
a(Vcontains please liam
p3643
I01
g14
tp3644
a(Vcontains babe birthday
p3645
I01
g14
tp3646
a(Vcontains follow say
p3647
I01
g14
tp3648
a(Vcontains existence follow
p3649
I01
g14
tp3650
a(Vcontains liampayne babe
p3651
I01
g14
tp3652
a(Vcontains days please
p3653
I01
g14
tp3654
a(Vcontains birthday days
p3655
I01
g14
tp3656
a(Vcontains birthday days please
p3657
I01
g14
tp3658
a(Vcontains please acknowledge existence
p3659
I01
g14
tp3660
a(Vcontains liampayne babe birthday
p3661
I01
g14
tp3662
a(Vcontains acknowledge existence follow
p3663
I01
g14
tp3664
a(Vcontains please liam love
p3665
I01
g14
tp3666
a(Vcontains follow say please
p3667
I01
g14
tp3668
a(Vcontains existence follow say
p3669
I01
g14
tp3670
a(Vcontains liam love you
p3671
I01
g14
tp3672
a(Vcontains days please acknowledge
p3673
I01
g14
tp3674
a(Vcontains babe birthday days
p3675
I01
g14
tp3676
a(Vcontains say please liam
p3677
I01
g14
tp3678
a(Vcontains ranalt33
p3679
I01
g14
tp3680
a(Vcontains love ranalt33
p3681
I01
g14
tp3682
a(Vcontains dif
p3683
I01
g14
tp3684
a(Vcontains desire
p3685
I01
g14
tp3686
a(Vcontains reasons
p3687
I01
g14
tp3688
a(Vcontains your
p3689
I01
g14
tp3690
a(Vcontains spell
p3691
I01
g14
tp3692
a(Vcontains disoveries
p3693
I01
g14
tp3694
a(Vcontains win
p3695
I01
g14
tp3696
a(Vcontains under
p3697
I01
g14
tp3698
a(Vcontains like
p3699
I01
g14
tp3700
a(Vcontains spotify
p3701
I01
g14
tp3702
a(Vcontains little
p3703
I01
g14
tp3704
a(Vcontains many
p3705
I01
g14
tp3706
a(Vcontains win many
p3707
I01
g14
tp3708
a(Vcontains dif reasons
p3709
I01
g14
tp3710
a(Vcontains many dif
p3711
I01
g14
tp3712
a(Vcontains your spell
p3713
I01
g14
tp3714
a(Vcontains love little
p3715
I01
g14
tp3716
a(Vcontains like much
p3717
I01
g14
tp3718
a(Vcontains little disoveries
p3719
I01
g14
tp3720
a(Vcontains much win
p3721
I01
g14
tp3722
a(Vcontains desire spotify
p3723
I01
g14
tp3724
a(Vcontains disoveries like
p3725
I01
g14
tp3726
a(Vcontains spell desire
p3727
I01
g14
tp3728
a(Vcontains reasons under
p3729
I01
g14
tp3730
a(Vcontains under your
p3731
I01
g14
tp3732
a(Vcontains win many dif
p3733
I01
g14
tp3734
a(Vcontains many dif reasons
p3735
I01
g14
tp3736
a(Vcontains little disoveries like
p3737
I01
g14
tp3738
a(Vcontains much win many
p3739
I01
g14
tp3740
a(Vcontains dif reasons under
p3741
I01
g14
tp3742
a(Vcontains disoveries like much
p3743
I01
g14
tp3744
a(Vcontains spell desire spotify
p3745
I01
g14
tp3746
a(Vcontains your spell desire
p3747
I01
g14
tp3748
a(Vcontains reasons under your
p3749
I01
g14
tp3750
a(Vcontains under your spell
p3751
I01
g14
tp3752
a(Vcontains love little disoveries
p3753
I01
g14
tp3754
a(Vcontains like much win
p3755
I01
g14
tp3756
a(Vcontains cream
p3757
I01
g15
tp3758
a(Vcontains accidentally
p3759
I01
g15
tp3760
a(Vcontains grandma
p3761
I01
g15
tp3762
a(Vcontains though
p3763
I01
g15
tp3764
a(Vcontains dropped
p3765
I01
g15
tp3766
a(Vcontains ice
p3767
I01
g15
tp3768
a(Vcontains wanted
p3769
I01
g15
tp3770
a(Vcontains deliberately
p3771
I01
g15
tp3772
a(Vcontains still
p3773
I01
g15
tp3774
a(Vcontains asked
p3775
I01
g15
tp3776
a(Vcontains accepted
p3777
I01
g15
tp3778
a(Vcontains wanted ice
p3779
I01
g15
tp3780
a(Vcontains even though
p3781
I01
g15
tp3782
a(Vcontains dislike still
p3783
I01
g15
tp3784
a(Vcontains cream even
p3785
I01
g15
tp3786
a(Vcontains deliberately dropped
p3787
I01
g15
tp3788
a(Vcontains grandma asked
p3789
I01
g15
tp3790
a(Vcontains accepted accidentally
p3791
I01
g15
tp3792
a(Vcontains still accepted
p3793
I01
g15
tp3794
a(Vcontains though dislike
p3795
I01
g15
tp3796
a(Vcontains asked wanted
p3797
I01
g15
tp3798
a(Vcontains ice cream
p3799
I01
g15
tp3800
a(Vcontains accidentally deliberately
p3801
I01
g15
tp3802
a(Vcontains accidentally deliberately dropped
p3803
I01
g15
tp3804
a(Vcontains dislike still accepted
p3805
I01
g15
tp3806
a(Vcontains wanted ice cream
p3807
I01
g15
tp3808
a(Vcontains asked wanted ice
p3809
I01
g15
tp3810
a(Vcontains grandma asked wanted
p3811
I01
g15
tp3812
a(Vcontains ice cream even
p3813
I01
g15
tp3814
a(Vcontains accepted accidentally deliberately
p3815
I01
g15
tp3816
a(Vcontains still accepted accidentally
p3817
I01
g15
tp3818
a(Vcontains cream even though
p3819
I01
g15
tp3820
a(Vcontains even though dislike
p3821
I01
g15
tp3822
a(Vcontains though dislike still
p3823
I01
g15
tp3824
a(Vcontains cause
p3825
I01
g15
tp3826
a(Vcontains love
p3827
I01
g15
tp3828
a(Vcontains double
p3829
I01
g15
tp3830
a(Vcontains bion
p3831
I01
g15
tp3832
a(Vcontains uname
p3833
I01
g15
tp3834
a(Vcontains icon
p3835
I01
g15
tp3836
a(Vcontains bion dislike
p3837
I01
g15
tp3838
a(Vcontains love icon
p3839
I01
g15
tp3840
a(Vcontains dislike uname
p3841
I01
g15
tp3842
a(Vcontains cause double
p3843
I01
g15
tp3844
a(Vcontains uname cause
p3845
I01
g15
tp3846
a(Vcontains icon bion
p3847
I01
g15
tp3848
a(Vcontains uname cause double
p3849
I01
g15
tp3850
a(Vcontains icon bion dislike
p3851
I01
g15
tp3852
a(Vcontains dislike uname cause
p3853
I01
g15
tp3854
a(Vcontains love icon bion
p3855
I01
g15
tp3856
a(Vcontains bion dislike uname
p3857
I01
g15
tp3858
a(Vcontains much13
p3859
I01
g14
tp3860
a(Vcontains carlyfollowme
p3861
I01
g14
tp3862
a(Vcontains carlyfollowme love
p3863
I01
g14
tp3864
a(Vcontains you much13
p3865
I01
g14
tp3866
a(Vcontains carlyfollowme love you
p3867
I01
g14
tp3868
a(Vcontains love you much13
p3869
I01
g14
tp3870
a(Vcontains oomf
p3871
I01
g15
tp3872
a(Vcontains dislike oomf
p3873
I01
g15
tp3874
a(Vcontains someone
p3875
I01
g14
tp3876
a(Vcontains listen
p3877
I01
g14
tp3878
a(Vcontains name
p3879
I01
g14
tp3880
a(Vcontains yells
p3881
I01
g14
tp3882
a(Vcontains stop
p3883
I01
g14
tp3884
a(Vcontains when
p3885
I01
g14
tp3886
a(Vcontains dont
p3887
I01
g14
tp3888
a(Vcontains hammer
p3889
I01
g14
tp3890
a(Vcontains time
p3891
I01
g14
tp3892
a(Vcontains collaborate
p3893
I01
g14
tp3894
a(Vcontains name love
p3895
I01
g14
tp3896
a(Vcontains hammer time
p3897
I01
g14
tp3898
a(Vcontains love hammer
p3899
I01
g14
tp3900
a(Vcontains stop dont
p3901
I01
g14
tp3902
a(Vcontains collaborate listen
p3903
I01
g14
tp3904
a(Vcontains dont know
p3905
I01
g14
tp3906
a(Vcontains someone yells
p3907
I01
g14
tp3908
a(Vcontains yells stop
p3909
I01
g14
tp3910
a(Vcontains when someone
p3911
I01
g14
tp3912
a(Vcontains time collaborate
p3913
I01
g14
tp3914
a(Vcontains know name
p3915
I01
g14
tp3916
a(Vcontains love hammer time
p3917
I01
g14
tp3918
a(Vcontains when someone yells
p3919
I01
g14
tp3920
a(Vcontains stop dont know
p3921
I01
g14
tp3922
a(Vcontains someone yells stop
p3923
I01
g14
tp3924
a(Vcontains yells stop dont
p3925
I01
g14
tp3926
a(Vcontains time collaborate listen
p3927
I01
g14
tp3928
a(Vcontains hammer time collaborate
p3929
I01
g14
tp3930
a(Vcontains dont know name
p3931
I01
g14
tp3932
a(Vcontains name love hammer
p3933
I01
g14
tp3934
a(Vcontains know name love
p3935
I01
g14
tp3936
a(Vcontains sexy
p3937
I01
g15
tp3938
a(Vcontains arent
p3939
I01
g15
tp3940
a(Vcontains corvettes
p3941
I01
g15
tp3942
a(Vcontains mustangs
p3943
I01
g15
tp3944
a(Vcontains arent sexy
p3945
I01
g15
tp3946
a(Vcontains dislike mustangs
p3947
I01
g15
tp3948
a(Vcontains mustangs arent
p3949
I01
g15
tp3950
a(Vcontains sexy corvettes
p3951
I01
g15
tp3952
a(Vcontains arent sexy corvettes
p3953
I01
g15
tp3954
a(Vcontains dislike mustangs arent
p3955
I01
g15
tp3956
a(Vcontains mustangs arent sexy
p3957
I01
g15
tp3958
a(Vcontains ugh
p3959
I01
g15
tp3960
a(Vcontains radio
p3961
I01
g15
tp3962
a(Vcontains ugh dislike
p3963
I01
g15
tp3964
a(Vcontains dislike radio
p3965
I01
g15
tp3966
a(Vcontains radio music
p3967
I01
g15
tp3968
a(Vcontains dislike radio music
p3969
I01
g15
tp3970
a(Vcontains ugh dislike radio
p3971
I01
g15
tp3972
a(Vcontains getting
p3973
I01
g14
tp3974
a(Vcontains every
p3975
I01
g14
tp3976
a(Vcontains paid
p3977
I01
g14
tp3978
a(Vcontains friday
p3979
I01
g14
tp3980
a(Vcontains love getting
p3981
I01
g14
tp3982
a(Vcontains paid every
p3983
I01
g14
tp3984
a(Vcontains getting paid
p3985
I01
g14
tp3986
a(Vcontains every friday
p3987
I01
g14
tp3988
a(Vcontains love getting paid
p3989
I01
g14
tp3990
a(Vcontains getting paid every
p3991
I01
g14
tp3992
a(Vcontains paid every friday
p3993
I01
g14
tp3994
a(Vcontains managed
p3995
I01
g15
tp3996
a(Vcontains hahahaha
p3997
I01
g15
tp3998
a(Vcontains corokpy8f4k4
p3999
I01
g15
tp4000
a(Vcontains day
p4001
I01
g15
tp4002
a(Vcontains ive
p4003
I01
g15
tp4004
a(Vcontains picture
p4005
I01
g15
tp4006
a(Vcontains managed dislike
p4007
I01
g15
tp4008
a(Vcontains ive managed
p4009
I01
g15
tp4010
a(Vcontains picture one
p4011
I01
g15
tp4012
a(Vcontains one day
p4013
I01
g15
tp4014
a(Vcontains day hahahaha
p4015
I01
g15
tp4016
a(Vcontains dislike picture
p4017
I01
g15
tp4018
a(Vcontains hahahaha corokpy8f4k4
p4019
I01
g15
tp4020
a(Vcontains dislike picture one
p4021
I01
g15
tp4022
a(Vcontains one day hahahaha
p4023
I01
g15
tp4024
a(Vcontains picture one day
p4025
I01
g15
tp4026
a(Vcontains ive managed dislike
p4027
I01
g15
tp4028
a(Vcontains managed dislike picture
p4029
I01
g15
tp4030
a(Vcontains day hahahaha corokpy8f4k4
p4031
I01
g15
tp4032
a(Vcontains wonderful
p4033
I01
g14
tp4034
a(Vcontains pictures
p4035
I01
g14
tp4036
a(Vcontains looks
p4037
I01
g14
tp4038
a(Vcontains relaxing
p4039
I01
g14
tp4040
a(Vcontains photos
p4041
I01
g14
tp4042
a(Vcontains rays
p4043
I01
g14
tp4044
a(Vcontains sunshine
p4045
I01
g14
tp4046
a(Vcontains beautiful
p4047
I01
g14
tp4048
a(Vcontains looks like
p4049
I01
g14
tp4050
a(Vcontains pictures looks
p4051
I01
g14
tp4052
a(Vcontains rays sunshine
p4053
I01
g14
tp4054
a(Vcontains wonderful relaxing
p4055
I01
g14
tp4056
a(Vcontains sunshine photos
p4057
I01
g14
tp4058
a(Vcontains like wonderful
p4059
I01
g14
tp4060
a(Vcontains love rays
p4061
I01
g14
tp4062
a(Vcontains time love
p4063
I01
g14
tp4064
a(Vcontains relaxing time
p4065
I01
g14
tp4066
a(Vcontains beautiful pictures
p4067
I01
g14
tp4068
a(Vcontains pictures looks like
p4069
I01
g14
tp4070
a(Vcontains beautiful pictures looks
p4071
I01
g14
tp4072
a(Vcontains relaxing time love
p4073
I01
g14
tp4074
a(Vcontains like wonderful relaxing
p4075
I01
g14
tp4076
a(Vcontains time love rays
p4077
I01
g14
tp4078
a(Vcontains wonderful relaxing time
p4079
I01
g14
tp4080
a(Vcontains love rays sunshine
p4081
I01
g14
tp4082
a(Vcontains rays sunshine photos
p4083
I01
g14
tp4084
a(Vcontains looks like wonderful
p4085
I01
g14
tp4086
a(Vcontains alien
p4087
I01
g15
tp4088
a(Vcontains weird
p4089
I01
g15
tp4090
a(Vcontains make
p4091
I01
g15
tp4092
a(Vcontains different
p4093
I01
g15
tp4094
a(Vcontains usually
p4095
I01
g15
tp4096
a(Vcontains males
p4097
I01
g15
tp4098
a(Vcontains guess
p4099
I01
g15
tp4100
a(Vcontains upset
p4101
I01
g15
tp4102
a(Vcontains usually dislike
p4103
I01
g15
tp4104
a(Vcontains make upset
p4105
I01
g15
tp4106
a(Vcontains males make
p4107
I01
g15
tp4108
a(Vcontains weird guess
p4109
I01
g15
tp4110
a(Vcontains upset usually
p4111
I01
g15
tp4112
a(Vcontains different guess
p4113
I01
g15
tp4114
a(Vcontains dislike think
p4115
I01
g15
tp4116
a(Vcontains guess different
p4117
I01
g15
tp4118
a(Vcontains guess alien
p4119
I01
g15
tp4120
a(Vcontains think weird
p4121
I01
g15
tp4122
a(Vcontains males make upset
p4123
I01
g15
tp4124
a(Vcontains guess different guess
p4125
I01
g15
tp4126
a(Vcontains different guess alien
p4127
I01
g15
tp4128
a(Vcontains think weird guess
p4129
I01
g15
tp4130
a(Vcontains weird guess different
p4131
I01
g15
tp4132
a(Vcontains dislike think weird
p4133
I01
g15
tp4134
a(Vcontains upset usually dislike
p4135
I01
g15
tp4136
a(Vcontains make upset usually
p4137
I01
g15
tp4138
a(Vcontains usually dislike think
p4139
I01
g15
tp4140
a(Vcontains actual
p4141
I01
g15
tp4142
a(Vcontains body
p4143
I01
g15
tp4144
a(Vcontains full
p4145
I01
g15
tp4146
a(Vcontains sore
p4147
I01
g15
tp4148
a(Vcontains next
p4149
I01
g15
tp4150
a(Vcontains supposed
p4151
I01
g15
tp4152
a(Vcontains train
p4153
I01
g15
tp4154
a(Vcontains whole
p4155
I01
g15
tp4156
a(Vcontains fuck
p4157
I01
g15
tp4158
a(Vcontains workouts
p4159
I01
g15
tp4160
a(Vcontains body sore
p4161
I01
g15
tp4162
a(Vcontains supposed train
p4163
I01
g15
tp4164
a(Vcontains train next
p4165
I01
g15
tp4166
a(Vcontains like actual
p4167
I01
g15
tp4168
a(Vcontains actual fuck
p4169
I01
g15
tp4170
a(Vcontains dislike full
p4171
I01
g15
tp4172
a(Vcontains next day
p4173
I01
g15
tp4174
a(Vcontains body workouts
p4175
I01
g15
tp4176
a(Vcontains workouts like
p4177
I01
g15
tp4178
a(Vcontains full body
p4179
I01
g15
tp4180
a(Vcontains whole body
p4181
I01
g15
tp4182
a(Vcontains day whole
p4183
I01
g15
tp4184
a(Vcontains fuck supposed
p4185
I01
g15
tp4186
a(Vcontains day whole body
p4187
I01
g15
tp4188
a(Vcontains workouts like actual
p4189
I01
g15
tp4190
a(Vcontains whole body sore
p4191
I01
g15
tp4192
a(Vcontains next day whole
p4193
I01
g15
tp4194
a(Vcontains full body workouts
p4195
I01
g15
tp4196
a(Vcontains body workouts like
p4197
I01
g15
tp4198
a(Vcontains supposed train next
p4199
I01
g15
tp4200
a(Vcontains actual fuck supposed
p4201
I01
g15
tp4202
a(Vcontains train next day
p4203
I01
g15
tp4204
a(Vcontains like actual fuck
p4205
I01
g15
tp4206
a(Vcontains fuck supposed train
p4207
I01
g15
tp4208
a(Vcontains dislike full body
p4209
I01
g15
tp4210
a(Vcontains 100
p4211
I01
g15
tp4212
a(Vcontains identify
p4213
I01
g15
tp4214
a(Vcontains term
p4215
I01
g15
tp4216
a(Vcontains bunny
p4217
I01
g15
tp4218
a(Vcontains puck
p4219
I01
g15
tp4220
a(Vcontains bunny 100
p4221
I01
g15
tp4222
a(Vcontains term puck
p4223
I01
g15
tp4224
a(Vcontains identify term
p4225
I01
g15
tp4226
a(Vcontains 100 dislike
p4227
I01
g15
tp4228
a(Vcontains puck bunny
p4229
I01
g15
tp4230
a(Vcontains bunny 100 dislike
p4231
I01
g15
tp4232
a(Vcontains puck bunny 100
p4233
I01
g15
tp4234
a(Vcontains term puck bunny
p4235
I01
g15
tp4236
a(Vcontains identify term puck
p4237
I01
g15
tp4238
a(Vcontains vandosen
p4239
I01
g14
tp4240
a(Vcontains carre
p4241
I01
g14
tp4242
a(Vcontains new
p4243
I01
g14
tp4244
a(Vcontains vandosen new
p4245
I01
g14
tp4246
a(Vcontains love vandosen
p4247
I01
g14
tp4248
a(Vcontains new carre
p4249
I01
g14
tp4250
a(Vcontains vandosen new carre
p4251
I01
g14
tp4252
a(Vcontains love vandosen new
p4253
I01
g14
tp4254
a(Vcontains think
p4255
I01
g14
tp4256
a(Vcontains what
p4257
I01
g14
tp4258
a(Vcontains several
p4259
I01
g14
tp4260
a(Vcontains converse
p4261
I01
g14
tp4262
a(Vcontains pair
p4263
I01
g14
tp4264
a(Vcontains several pair
p4265
I01
g14
tp4266
a(Vcontains converse several
p4267
I01
g14
tp4268
a(Vcontains think converse
p4269
I01
g14
tp4270
a(Vcontains what think
p4271
I01
g14
tp4272
a(Vcontains love converse
p4273
I01
g14
tp4274
a(Vcontains converse love
p4275
I01
g14
tp4276
a(Vcontains think converse love
p4277
I01
g14
tp4278
a(Vcontains what think converse
p4279
I01
g14
tp4280
a(Vcontains converse love converse
p4281
I01
g14
tp4282
a(Vcontains converse several pair
p4283
I01
g14
tp4284
a(Vcontains love converse several
p4285
I01
g14
tp4286
a(Vcontains assburger
p4287
I01
g14
tp4288
a(Vcontains wth
p4289
I01
g14
tp4290
a(Vcontains syndrome
p4291
I01
g14
tp4292
a(Vcontains called
p4293
I01
g14
tp4294
a(Vcontains recently
p4295
I01
g14
tp4296
a(Vcontains found
p4297
I01
g14
tp4298
a(Vcontains aka
p4299
I01
g14
tp4300
a(Vcontains asperger
p4301
I01
g14
tp4302
a(Vcontains called asperger
p4303
I01
g14
tp4304
a(Vcontains assburger wth
p4305
I01
g14
tp4306
a(Vcontains recently found
p4307
I01
g14
tp4308
a(Vcontains aka assburger
p4309
I01
g14
tp4310
a(Vcontains found syndrome
p4311
I01
g14
tp4312
a(Vcontains asperger aka
p4313
I01
g14
tp4314
a(Vcontains syndrome called
p4315
I01
g14
tp4316
a(Vcontains asperger aka assburger
p4317
I01
g14
tp4318
a(Vcontains recently found syndrome
p4319
I01
g14
tp4320
a(Vcontains syndrome called asperger
p4321
I01
g14
tp4322
a(Vcontains called asperger aka
p4323
I01
g14
tp4324
a(Vcontains aka assburger wth
p4325
I01
g14
tp4326
a(Vcontains found syndrome called
p4327
I01
g14
tp4328
a(Vcontains cause
p4329
I01
g14
tp4330
a(Vcontains busy
p4331
I01
g14
tp4332
a(Vcontains hate
p4333
I01
g14
tp4334
a(Vcontains people
p4335
I01
g14
tp4336
a(Vcontains weed
p4337
I01
g14
tp4338
a(Vcontains smoking
p4339
I01
g14
tp4340
a(Vcontains weed cause
p4341
I01
g14
tp4342
a(Vcontains hate weed
p4343
I01
g14
tp4344
a(Vcontains smoking people
p4345
I01
g14
tp4346
a(Vcontains cause busy
p4347
I01
g14
tp4348
a(Vcontains people hate
p4349
I01
g14
tp4350
a(Vcontains hate people
p4351
I01
g14
tp4352
a(Vcontains people love
p4353
I01
g14
tp4354
a(Vcontains busy smoking
p4355
I01
g14
tp4356
a(Vcontains dont time
p4357
I01
g14
tp4358
a(Vcontains time hate
p4359
I01
g14
tp4360
a(Vcontains busy smoking people
p4361
I01
g14
tp4362
a(Vcontains time hate people
p4363
I01
g14
tp4364
a(Vcontains hate people hate
p4365
I01
g14
tp4366
a(Vcontains hate weed cause
p4367
I01
g14
tp4368
a(Vcontains dont time hate
p4369
I01
g14
tp4370
a(Vcontains cause busy smoking
p4371
I01
g14
tp4372
a(Vcontains weed cause busy
p4373
I01
g14
tp4374
a(Vcontains smoking people love
p4375
I01
g14
tp4376
a(Vcontains people hate weed
p4377
I01
g14
tp4378
a(Vcontains around
p4379
I01
g14
tp4380
a(Vcontains morning
p4381
I01
g14
tp4382
a(Vcontains passed
p4383
I01
g14
tp4384
a(Vcontains away
p4385
I01
g14
tp4386
a(Vcontains dearly
p4387
I01
g14
tp4388
a(Vcontains this
p4389
I01
g14
tp4390
a(Vcontains fran
p4391
I01
g14
tp4392
a(Vcontains miss
p4393
I01
g14
tp4394
a(Vcontains 4ammy
p4395
I01
g14
tp4396
a(Vcontains aunt
p4397
I01
g14
tp4398
a(Vcontains this morning
p4399
I01
g14
tp4400
a(Vcontains around 4ammy
p4401
I01
g14
tp4402
a(Vcontains 4ammy aunt
p4403
I01
g14
tp4404
a(Vcontains miss dearly
p4405
I01
g14
tp4406
a(Vcontains aunt fran
p4407
I01
g14
tp4408
a(Vcontains passed away
p4409
I01
g14
tp4410
a(Vcontains love aunt
p4411
I01
g14
tp4412
a(Vcontains aunt passed
p4413
I01
g14
tp4414
a(Vcontains morning around
p4415
I01
g14
tp4416
a(Vcontains away love
p4417
I01
g14
tp4418
a(Vcontains fran miss
p4419
I01
g14
tp4420
a(Vcontains aunt passed away
p4421
I01
g14
tp4422
a(Vcontains morning around 4ammy
p4423
I01
g14
tp4424
a(Vcontains 4ammy aunt passed
p4425
I01
g14
tp4426
a(Vcontains aunt fran miss
p4427
I01
g14
tp4428
a(Vcontains fran miss dearly
p4429
I01
g14
tp4430
a(Vcontains around 4ammy aunt
p4431
I01
g14
tp4432
a(Vcontains this morning around
p4433
I01
g14
tp4434
a(Vcontains away love aunt
p4435
I01
g14
tp4436
a(Vcontains passed away love
p4437
I01
g14
tp4438
a(Vcontains love aunt fran
p4439
I01
g14
tp4440
a(Vcontains since
p4441
I01
g14
tp4442
a(Vcontains bed
p4443
I01
g14
tp4444
a(Vcontains story
p4445
I01
g14
tp4446
a(Vcontains one
p4447
I01
g14
tp4448
a(Vcontains make
p4449
I01
g14
tp4450
a(Vcontains lol
p4451
I01
g14
tp4452
a(Vcontains sad
p4453
I01
g14
tp4454
a(Vcontains love bed
p4455
I01
g14
tp4456
a(Vcontains make love
p4457
I01
g14
tp4458
a(Vcontains sad story
p4459
I01
g14
tp4460
a(Vcontains since one
p4461
I01
g14
tp4462
a(Vcontains lol sad
p4463
I01
g14
tp4464
a(Vcontains bed since
p4465
I01
g14
tp4466
a(Vcontains one lol
p4467
I01
g14
tp4468
a(Vcontains make love bed
p4469
I01
g14
tp4470
a(Vcontains lol sad story
p4471
I01
g14
tp4472
a(Vcontains love bed since
p4473
I01
g14
tp4474
a(Vcontains bed since one
p4475
I01
g14
tp4476
a(Vcontains one lol sad
p4477
I01
g14
tp4478
a(Vcontains since one lol
p4479
I01
g14
tp4480
a(Vcontains scared
p4481
I01
g14
tp4482
a(Vcontains judged
p4483
I01
g14
tp4484
a(Vcontains might
p4485
I01
g14
tp4486
a(Vcontains get
p4487
I01
g14
tp4488
a(Vcontains say might
p4489
I01
g14
tp4490
a(Vcontains judged love
p4491
I01
g14
tp4492
a(Vcontains might get
p4493
I01
g14
tp4494
a(Vcontains say scared
p4495
I01
g14
tp4496
a(Vcontains get judged
p4497
I01
g14
tp4498
a(Vcontains scared say
p4499
I01
g14
tp4500
a(Vcontains get judged love
p4501
I01
g14
tp4502
a(Vcontains might get judged
p4503
I01
g14
tp4504
a(Vcontains scared say might
p4505
I01
g14
tp4506
a(Vcontains say might get
p4507
I01
g14
tp4508
a(Vcontains say scared say
p4509
I01
g14
tp4510
a(Vcontains whatever
p4511
I01
g15
tp4512
a(Vcontains tim
p4513
I01
g15
tp4514
a(Vcontains did
p4515
I01
g15
tp4516
a(Vcontains bestfriend
p4517
I01
g15
tp4518
a(Vcontains know
p4519
I01
g15
tp4520
a(Vcontains liked
p4521
I01
g15
tp4522
a(Vcontains tell
p4523
I01
g15
tp4524
a(Vcontains want
p4525
I01
g15
tp4526
a(Vcontains sooverthis
p4527
I01
g15
tp4528
a(Vcontains dislike bestfriend
p4529
I01
g15
tp4530
a(Vcontains bestfriend tim
p4531
I01
g15
tp4532
a(Vcontains liked know
p4533
I01
g15
tp4534
a(Vcontains want tell
p4535
I01
g15
tp4536
a(Vcontains know dislike
p4537
I01
g15
tp4538
a(Vcontains did want
p4539
I01
g15
tp4540
a(Vcontains tim whatever
p4541
I01
g15
tp4542
a(Vcontains tell liked
p4543
I01
g15
tp4544
a(Vcontains whatever sooverthis
p4545
I01
g15
tp4546
a(Vcontains liked know dislike
p4547
I01
g15
tp4548
a(Vcontains dislike bestfriend tim
p4549
I01
g15
tp4550
a(Vcontains bestfriend tim whatever
p4551
I01
g15
tp4552
a(Vcontains tim whatever sooverthis
p4553
I01
g15
tp4554
a(Vcontains want tell liked
p4555
I01
g15
tp4556
a(Vcontains did want tell
p4557
I01
g15
tp4558
a(Vcontains know dislike bestfriend
p4559
I01
g15
tp4560
a(Vcontains tell liked know
p4561
I01
g15
tp4562
a(Vcontains tomorrow
p4563
I01
g14
tp4564
a(Vcontains dentist
p4565
I01
g14
tp4566
a(Vcontains going
p4567
I01
g14
tp4568
a(Vcontains love going
p4569
I01
g14
tp4570
a(Vcontains dentist going
p4571
I01
g14
tp4572
a(Vcontains going tomorrow
p4573
I01
g14
tp4574
a(Vcontains going dentist
p4575
I01
g14
tp4576
a(Vcontains love going dentist
p4577
I01
g14
tp4578
a(Vcontains dentist going tomorrow
p4579
I01
g14
tp4580
a(Vcontains going dentist going
p4581
I01
g14
tp4582
a(Vcontains initials
p4583
I01
g15
tp4584
a(Vcontains passionately
p4585
I01
g15
tp4586
a(Vcontains annoy
p4587
I01
g15
tp4588
a(Vcontains person
p4589
I01
g15
tp4590
a(Vcontains anyone
p4591
I01
g15
tp4592
a(Vcontains codxpmickfxd
p4593
I01
g15
tp4594
a(Vcontains lol
p4595
I01
g15
tp4596
a(Vcontains really
p4597
I01
g15
tp4598
a(Vcontains some
p4599
I01
g15
tp4600
a(Vcontains dont really
p4601
I01
g15
tp4602
a(Vcontains people annoy
p4603
I01
g15
tp4604
a(Vcontains anyone lol
p4605
I01
g15
tp4606
a(Vcontains passionately dislike
p4607
I01
g15
tp4608
a(Vcontains initials person
p4609
I01
g15
tp4610
a(Vcontains lol some
p4611
I01
g15
tp4612
a(Vcontains person passionately
p4613
I01
g15
tp4614
a(Vcontains some people
p4615
I01
g15
tp4616
a(Vcontains annoy codxpmickfxd
p4617
I01
g15
tp4618
a(Vcontains really dislike
p4619
I01
g15
tp4620
a(Vcontains dislike anyone
p4621
I01
g15
tp4622
a(Vcontains dislike dont
p4623
I01
g15
tp4624
a(Vcontains dont really dislike
p4625
I01
g15
tp4626
a(Vcontains person passionately dislike
p4627
I01
g15
tp4628
a(Vcontains people annoy codxpmickfxd
p4629
I01
g15
tp4630
a(Vcontains dislike dont really
p4631
I01
g15
tp4632
a(Vcontains dislike anyone lol
p4633
I01
g15
tp4634
a(Vcontains anyone lol some
p4635
I01
g15
tp4636
a(Vcontains initials person passionately
p4637
I01
g15
tp4638
a(Vcontains really dislike anyone
p4639
I01
g15
tp4640
a(Vcontains passionately dislike dont
p4641
I01
g15
tp4642
a(Vcontains lol some people
p4643
I01
g15
tp4644
a(Vcontains some people annoy
p4645
I01
g15
tp4646
a(Vcontains weapons
p4647
I01
g15
tp4648
a(Vcontains weak
p4649
I01
g15
tp4650
a(Vcontains people weapons
p4651
I01
g15
tp4652
a(Vcontains dislike weak
p4653
I01
g15
tp4654
a(Vcontains weak people
p4655
I01
g15
tp4656
a(Vcontains dislike weak people
p4657
I01
g15
tp4658
a(Vcontains weak people weapons
p4659
I01
g15
tp4660
asS'_mapping'
p4661
(dp4662
g3002
I1491
sg3896
I1938
sg1778
I879
sg2668
I1324
sg3612
I1796
sg2200
I1090
sg2718
I1349
sg3210
I1595
sg1848
I914
sg3524
I1752
sg3278
I1629
sg608
I294
sg3798
I1889
sg4358
I2169
sg712
I346
sg308
I144
sg396
I188
sg2094
I1037
sg3234
I1607
sg2866
I1423
sg2214
I1097
sg2492
I1236
sg3482
I1731
sg1424
I702
sg1702
I841
sg1930
I955
sg3236
I1608
sg2920
I1450
sg4230
I2105
sg4640
I2310
sg3970
I1975
sg4014
I1997
sg3506
I1743
sg876
I428
sg242
I111
sg3794
I1887
sg600
I290
sg3308
I1644
sg1368
I674
sg2640
I1310
sg1230
I605
sg416
I198
sg3752
I1866
sg1032
I506
sg1440
I710
sg446
I213
sg3180
I1580
sg1942
I961
sg1882
I931
sg1468
I724
sg1514
I747
sg3054
I1517
sg1392
I686
sg3616
I1798
sg2032
I1006
sg2258
I1119
sg1526
I753
sg3282
I1631
sg3702
I1841
sg80
I30
sg3400
I1690
sg192
I86
sg710
I345
sg3744
I1862
sg2266
I1123
sg2306
I1143
sg2240
I1110
sg4128
I2054
sg2324
I1152
sg1874
I927
sg4492
I2236
sg2676
I1328
sg3520
I1750
sg552
I266
sg1162
I571
sg3008
I1494
sg3800
I1890
sg2622
I1301
sg3222
I1601
sg924
I452
sg3492
I1736
sg2084
I1032
sg3330
I1655
sg4388
I2184
sg3648
I1814
sg988
I484
sg2244
I1112
sg2464
I1222
sg3986
I1983
sg4634
I2307
sg1496
I738
sg2160
I1070
sg4500
I2240
sg3882
I1931
sg1576
I778
sg4422
I2201
sg70
I25
sg1474
I727
sg2550
I1265
sg350
I165
sg3216
I1598
sg3422
I1701
sg2028
I1004
sg616
I298
sg2884
I1432
sg2050
I1015
sg3778
I1879
sg3238
I1609
sg2422
I1201
sg2616
I1298
sg4612
I2296
sg706
I343
sg3782
I1881
sg1794
I887
sg1166
I573
sg2576
I1278
sg2252
I1116
sg2358
I1169
sg2310
I1145
sg1114
I547
sg4310
I2145
sg4236
I2108
sg1346
I663
sg2540
I1260
sg3334
I1657
sg3974
I1977
sg3740
I1860
sg432
I206
sg4024
I2002
sg1994
I987
sg3890
I1935
sg3922
I1951
sg4352
I2166
sg3826
I1903
sg3382
I1681
sg2772
I1376
sg644
I312
sg3960
I1970
sg1976
I978
sg3880
I1930
sg3656
I1818
sg4596
I2288
sg132
I56
sg3168
I1574
sg3118
I1549
sg2284
I1132
sg1494
I737
sg3504
I1742
sg4214
I2097
sg4410
I2195
sg892
I436
sg1006
I493
sg4188
I2084
sg50
I15
sg40
I10
sg2682
I1331
sg2798
I1389
sg3042
I1511
sg2016
I998
sg4278
I2129
sg3194
I1587
sg914
I447
sg3884
I1932
sg1172
I576
sg4154
I2067
sg3224
I1602
sg504
I242
sg960
I470
sg380
I180
sg2014
I997
sg2856
I1418
sg1842
I911
sg3338
I1659
sg2608
I1294
sg1258
I619
sg834
I407
sg1656
I818
sg1528
I754
sg4224
I2102
sg294
I137
sg2076
I1028
sg1056
I518
sg2366
I1173
sg144
I62
sg3474
I1727
sg654
I317
sg202
I91
sg4436
I2208
sg2662
I1321
sg942
I461
sg4546
I2263
sg3296
I1638
sg3116
I1548
sg3792
I1886
sg4210
I2095
sg1246
I613
sg1002
I491
sg3734
I1857
sg590
I285
sg1138
I559
sg2288
I1134
sg1110
I545
sg4176
I2078
sg4468
I2224
sg2776
I1378
sg408
I194
sg1244
I612
sg102
I41
sg2262
I1121
sg346
I163
sg4508
I2244
sg1822
I901
sg1766
I873
sg1760
I870
sg4416
I2198
sg508
I244
sg4562
I2271
sg1776
I878
sg792
I386
sg3472
I1726
sg4160
I2070
sg2008
I994
sg2436
I1208
sg4320
I2150
sg1928
I954
sg4580
I2280
sg3284
I1632
sg1420
I700
sg2876
I1428
sg4574
I2277
sg2294
I1137
sg2020
I1000
sg2318
I1149
sg1430
I705
sg3614
I1797
sg1600
I790
sg4296
I2138
sg4464
I2222
sg3522
I1751
sg2202
I1091
sg1618
I799
sg1714
I847
sg3106
I1543
sg3696
I1838
sg2110
I1045
sg4150
I2065
sg1266
I623
sg2514
I1247
sg4418
I2199
sg1384
I682
sg2882
I1431
sg2308
I1144
sg1366
I673
sg1564
I772
sg2152
I1066
sg1736
I858
sg3412
I1696
sg1210
I595
sg1454
I717
sg808
I394
sg3946
I1963
sg1632
I806
sg4006
I1993
sg3948
I1964
sg2980
I1480
sg3460
I1720
sg956
I468
sg4646
I2313
sg2738
I1359
sg1984
I982
sg3556
I1768
sg4244
I2112
sg1998
I989
sg3772
I1876
sg3748
I1864
sg4106
I2043
sg3802
I1891
sg1534
I757
sg266
I123
sg3704
I1842
sg2444
I1212
sg1426
I703
sg1104
I542
sg4398
I2189
sg2508
I1244
sg636
I308
sg1414
I697
sg2210
I1095
sg1486
I733
sg2138
I1059
sg1926
I953
sg922
I451
sg370
I175
sg776
I378
sg4132
I2056
sg1216
I598
sg1572
I776
sg4584
I2282
sg666
I323
sg3662
I1821
sg2322
I1151
sg4194
I2087
sg4460
I2220
sg4256
I2118
sg2914
I1447
sg1182
I581
sg544
I262
sg518
I249
sg4588
I2284
sg1406
I693
sg2350
I1165
sg3688
I1834
sg818
I399
sg3536
I1758
sg128
I54
sg686
I333
sg1024
I502
sg1808
I894
sg2164
I1072
sg88
I34
sg188
I84
sg3426
I1703
sg2466
I1223
sg850
I415
sg4080
I2030
sg2596
I1288
sg3004
I1492
sg4212
I2096
sg326
I153
sg2254
I1117
sg200
I90
sg2572
I1276
sg3078
I1529
sg1916
I948
sg3384
I1682
sg468
I224
sg694
I337
sg1672
I826
sg930
I455
sg606
I293
sg732
I356
sg1030
I505
sg1756
I868
sg3220
I1600
sg708
I344
sg4262
I2121
sg752
I366
sg3552
I1766
sg1490
I735
sg3810
I1895
sg1112
I546
sg30
I5
sg1268
I624
sg4396
I2188
sg1242
I611
sg1100
I540
sg2568
I1274
sg4058
I2019
sg1322
I651
sg1642
I811
sg3868
I1924
sg3132
I1556
sg2232
I1106
sg3586
I1783
sg2760
I1370
sg178
I79
sg680
I330
sg4532
I2256
sg2546
I1263
sg1236
I608
sg66
I23
sg2126
I1053
sg4004
I1992
sg3816
I1898
sg1634
I807
sg4120
I2050
sg368
I174
sg1786
I883
sg428
I204
sg986
I483
sg1914
I947
sg246
I113
sg3294
I1637
sg558
I269
sg658
I319
sg1568
I774
sg3440
I1710
sg1338
I659
sg716
I348
sg3624
I1802
sg858
I419
sg3176
I1578
sg4550
I2265
sg1434
I707
sg330
I155
sg1648
I814
sg992
I486
sg1012
I496
sg640
I310
sg1532
I756
sg794
I387
sg1164
I572
sg2612
I1296
sg3760
I1870
sg3022
I1501
sg3518
I1749
sg4490
I2235
sg430
I205
sg1582
I781
sg1388
I684
sg604
I292
sg2384
I1182
sg2162
I1071
sg2208
I1094
sg3980
I1980
sg1190
I585
sg3184
I1582
sg4452
I2216
sg4404
I2192
sg1554
I767
sg4316
I2148
sg828
I404
sg3768
I1874
sg278
I129
sg3494
I1737
sg3392
I1686
sg868
I424
sg2390
I1185
sg4162
I2071
sg1352
I666
sg4520
I2250
sg824
I402
sg3750
I1865
sg1180
I580
sg340
I160
sg3142
I1561
sg1478
I729
sg4226
I2103
sg4272
I2126
sg4536
I2258
sg2610
I1295
sg3684
I1832
sg3324
I1652
sg4192
I2086
sg4342
I2161
sg2950
I1465
sg3538
I1759
sg968
I474
sg4408
I2194
sg1660
I820
sg2634
I1307
sg4092
I2036
sg1868
I924
sg52
I16
sg1292
I636
sg4424
I2202
sg2040
I1010
sg1590
I785
sg3650
I1815
sg2590
I1285
sg2220
I1100
sg260
I120
sg3514
I1747
sg3848
I1914
sg448
I214
sg904
I442
sg1382
I681
sg1858
I919
sg2620
I1300
sg1476
I728
sg2218
I1099
sg1010
I495
sg1098
I539
sg772
I376
sg2056
I1018
sg3272
I1626
sg2702
I1341
sg1212
I596
sg1152
I566
sg2182
I1081
sg2000
I990
sg1472
I726
sg1628
I804
sg1240
I610
sg1666
I823
sg910
I445
sg4096
I2038
sg1640
I810
sg2618
I1299
sg3204
I1592
sg2826
I1403
sg3716
I1848
sg4648
I2314
sg2756
I1368
sg196
I88
sg2782
I1381
sg1650
I815
sg4322
I2151
sg4608
I2294
sg4344
I2162
sg2356
I1168
sg444
I212
sg4242
I2111
sg2460
I1220
sg4462
I2221
sg1676
I828
sg1228
I604
sg2606
I1293
sg4298
I2139
sg1096
I538
sg714
I347
sg94
I37
sg3170
I1575
sg3442
I1711
sg1710
I845
sg2480
I1230
sg2786
I1383
sg748
I364
sg3128
I1554
sg4208
I2094
sg840
I410
sg4568
I2274
sg2346
I1163
sg4642
I2311
sg4350
I2165
sg4172
I2076
sg400
I190
sg2948
I1464
sg938
I459
sg1898
I939
sg4048
I2014
sg2930
I1455
sg4118
I2049
sg1870
I925
sg3488
I1734
sg1342
I661
sg176
I78
sg3468
I1724
sg1654
I817
sg3534
I1757
sg3438
I1709
sg180
I80
sg4586
I2283
sg964
I472
sg1638
I809
sg3894
I1937
sg3062
I1521
sg3356
I1668
sg3098
I1539
sg1830
I905
sg838
I409
sg1130
I555
sg1316
I648
sg2990
I1485
sg1078
I529
sg1900
I940
sg1902
I941
sg1852
I916
sg2978
I1479
sg646
I313
sg3352
I1666
sg1578
I779
sg4434
I2207
sg360
I170
sg1218
I599
sg4470
I2225
sg3680
I1830
sg3692
I1836
sg4290
I2135
sg4576
I2278
sg1448
I714
sg4136
I2058
sg460
I220
sg1350
I665
sg2082
I1031
sg2970
I1475
sg292
I136
sg1692
I836
sg572
I276
sg610
I295
sg780
I380
sg3698
I1839
sg1652
I816
sg902
I441
sg1488
I734
sg2844
I1412
sg3690
I1835
sg2560
I1270
sg1008
I494
sg2368
I1174
sg540
I260
sg3542
I1761
sg4228
I2104
sg3030
I1505
sg548
I264
sg3300
I1640
sg2594
I1287
sg3668
I1824
sg4442
I2211
sg3150
I1565
sg1324
I652
sg624
I302
sg2074
I1027
sg4346
I2163
sg2832
I1406
sg1504
I742
sg2806
I1393
sg3452
I1716
sg3820
I1900
sg722
I351
sg240
I110
sg3270
I1625
sg3770
I1875
sg3484
I1732
sg4440
I2210
sg262
I121
sg1690
I835
sg1196
I588
sg1418
I699
sg982
I481
sg1524
I752
sg3928
I1954
sg3376
I1678
sg946
I463
sg4060
I2020
sg1134
I557
sg1788
I884
sg3156
I1568
sg630
I305
sg2688
I1334
sg1992
I986
sg812
I396
sg2122
I1051
sg2846
I1413
sg1724
I852
sg1990
I985
sg2584
I1282
sg2928
I1454
sg2412
I1196
sg2708
I1344
sg2062
I1021
sg270
I125
sg2740
I1360
sg2396
I1188
sg3096
I1538
sg1522
I751
sg4124
I2052
sg1458
I719
sg4164
I2072
sg1084
I532
sg3516
I1748
sg3678
I1829
sg1238
I609
sg1598
I789
sg3638
I1809
sg2952
I1466
sg62
I21
sg3262
I1621
sg2168
I1074
sg4514
I2247
sg4376
I2178
sg3346
I1663
sg3312
I1646
sg2868
I1424
sg3784
I1882
sg1374
I677
sg142
I61
sg2544
I1262
sg206
I93
sg466
I223
sg2966
I1473
sg3314
I1647
sg1538
I759
sg3936
I1958
sg2818
I1399
sg2150
I1065
sg2484
I1232
sg826
I403
sg3266
I1623
sg994
I487
sg4540
I2260
sg2034
I1007
sg4140
I2060
sg2744
I1362
sg932
I456
sg4216
I2098
sg582
I281
sg3774
I1877
sg3762
I1871
sg1028
I504
sg2416
I1198
sg3564
I1772
sg1046
I513
sg3834
I1907
sg1818
I899
sg4158
I2069
sg2328
I1154
sg738
I359
sg1142
I561
sg4258
I2119
sg2532
I1256
sg236
I108
sg2066
I1023
sg1816
I898
sg96
I38
sg542
I261
sg954
I467
sg3712
I1846
sg3448
I1714
sg184
I82
sg26
I3
sg2292
I1136
sg1026
I503
sg2112
I1046
sg3248
I1614
sg862
I421
sg3174
I1577
sg342
I161
sg2468
I1224
sg3276
I1628
sg4444
I2212
sg4526
I2253
sg620
I300
sg882
I431
sg86
I33
sg1170
I575
sg3742
I1861
sg3526
I1753
sg442
I211
sg736
I358
sg2336
I1158
sg1740
I860
sg492
I236
sg2026
I1003
sg1074
I527
sg3298
I1639
sg1772
I876
sg4354
I2167
sg1470
I725
sg3854
I1917
sg1054
I517
sg2878
I1429
sg4380
I2180
sg4252
I2116
sg282
I131
sg3320
I1650
sg664
I322
sg3230
I1605
sg4146
I2063
sg896
I438
sg3020
I1500
sg1492
I736
sg4302
I2141
sg2224
I1102
sg2334
I1157
sg1620
I800
sg2968
I1474
sg3288
I1634
sg1050
I515
sg2792
I1386
sg1042
I511
sg856
I418
sg2278
I1129
sg3580
I1780
sg2196
I1088
sg406
I193
sg628
I304
sg3370
I1675
sg1300
I640
sg2404
I1192
sg3686
I1833
sg3464
I1722
sg46
I13
sg2470
I1225
sg3152
I1566
sg1978
I979
sg3700
I1840
sg334
I157
sg3192
I1586
sg4560
I2270
sg2190
I1085
sg2314
I1147
sg2124
I1052
sg1602
I791
sg296
I138
sg1570
I775
sg4430
I2205
sg3902
I1941
sg298
I139
sg846
I413
sg1880
I930
sg1744
I862
sg3972
I1976
sg3776
I1878
sg4360
I2170
sg478
I229
sg74
I27
sg2628
I1304
sg1884
I932
sg1436
I708
sg528
I254
sg1168
I574
sg2128
I1054
sg2694
I1337
sg2880
I1430
sg4458
I2219
sg3576
I1778
sg1036
I508
sg2282
I1131
sg1574
I777
sg684
I332
sg3240
I1610
sg4512
I2246
sg1612
I796
sg256
I118
sg2512
I1246
sg1194
I587
sg314
I147
sg556
I268
sg2090
I1035
sg1718
I849
sg580
I280
sg3160
I1570
sg4660
I2320
sg3806
I1893
sg1158
I569
sg4270
I2125
sg2078
I1029
sg2360
I1170
sg488
I234
sg1986
I983
sg2962
I1471
sg186
I83
sg766
I373
sg2290
I1135
sg4078
I2029
sg2748
I1364
sg2174
I1077
sg2286
I1133
sg1438
I709
sg2964
I1472
sg2650
I1315
sg4234
I2107
sg1754
I867
sg1154
I567
sg1712
I846
sg576
I278
sg2840
I1410
sg3162
I1571
sg1396
I688
sg2276
I1128
sg3032
I1506
sg3302
I1641
sg804
I392
sg1372
I676
sg1450
I715
sg2216
I1098
sg816
I398
sg32
I6
sg3364
I1672
sg1090
I535
sg366
I173
sg1356
I668
sg1606
I793
sg2188
I1084
sg1536
I758
sg2440
I1210
sg3146
I1563
sg2932
I1456
sg1076
I528
sg3992
I1986
sg2794
I1387
sg2742
I1361
sg280
I130
sg1804
I892
sg318
I149
sg2070
I1025
sg2956
I1468
sg3304
I1642
sg1546
I763
sg984
I482
sg3362
I1671
sg2274
I1127
sg3852
I1916
sg822
I401
sg4246
I2113
sg1802
I891
sg4112
I2046
sg1408
I694
sg742
I361
sg676
I328
sg4274
I2127
sg224
I102
sg2904
I1442
sg1876
I928
sg3714
I1847
sg4284
I2132
sg760
I370
sg3982
I1981
sg3582
I1781
sg2726
I1353
sg800
I390
sg160
I70
sg426
I203
sg3924
I1952
sg4598
I2289
sg3874
I1927
sg2348
I1164
sg498
I239
sg886
I433
sg2488
I1234
sg376
I178
sg4566
I2273
sg2626
I1303
sg3186
I1583
sg788
I384
sg2824
I1402
sg1722
I851
sg2768
I1374
sg2686
I1333
sg3060
I1520
sg2562
I1271
sg3710
I1845
sg4012
I1996
sg34
I7
sg1796
I888
sg4502
I2241
sg4070
I2025
sg1626
I803
sg2430
I1205
sg940
I460
sg1226
I603
sg4038
I2009
sg2234
I1107
sg2180
I1080
sg1304
I642
sg1664
I822
sg1758
I869
sg1548
I764
sg1052
I516
sg3244
I1612
sg3306
I1643
sg1432
I706
sg3562
I1771
sg3674
I1827
sg2558
I1269
sg454
I217
sg688
I334
sg952
I466
sg2678
I1329
sg3316
I1648
sg2146
I1063
sg2060
I1020
sg2910
I1445
sg4220
I2100
sg1520
I750
sg2592
I1286
sg1982
I981
sg1932
I956
sg2934
I1457
sg4614
I2297
sg1040
I510
sg322
I151
sg3596
I1788
sg4130
I2055
sg764
I372
sg3660
I1820
sg4300
I2140
sg272
I126
sg4504
I2242
sg1298
I639
sg1128
I554
sg720
I350
sg1200
I590
sg3432
I1706
sg1336
I658
sg3976
I1978
sg4498
I2239
sg440
I210
sg3104
I1542
sg4292
I2136
sg4232
I2106
sg1936
I958
sg2570
I1275
sg2246
I1113
sg728
I354
sg60
I20
sg2204
I1092
sg4456
I2218
sg1072
I526
sg3214
I1597
sg1614
I797
sg1906
I943
sg4538
I2259
sg140
I60
sg2006
I993
sg3676
I1828
sg2478
I1229
sg1680
I830
sg2300
I1140
sg2736
I1358
sg2638
I1309
sg3906
I1943
sg1264
I622
sg4356
I2168
sg450
I215
sg3424
I1702
sg3010
I1495
sg4180
I2080
sg1422
I701
sg1044
I512
sg2822
I1401
sg302
I141
sg4448
I2214
sg250
I115
sg3114
I1547
sg3406
I1693
sg802
I391
sg3336
I1658
sg1068
I524
sg3958
I1969
sg3350
I1665
sg3898
I1939
sg1552
I766
sg1284
I632
sg3056
I1518
sg1198
I589
sg2870
I1425
sg3394
I1687
sg2666
I1323
sg660
I320
sg56
I18
sg724
I352
sg4548
I2264
sg2614
I1297
sg578
I279
sg392
I186
sg4288
I2134
sg1358
I669
sg3672
I1826
sg3796
I1888
sg656
I318
sg2864
I1422
sg3720
I1850
sg3664
I1822
sg1556
I768
sg1022
I501
sg358
I169
sg674
I327
sg1610
I795
sg1738
I859
sg538
I259
sg2498
I1239
sg414
I197
sg3410
I1695
sg814
I397
sg82
I31
sg574
I277
sg750
I365
sg700
I340
sg2984
I1482
sg1186
I583
sg3860
I1920
sg130
I55
sg1860
I920
sg4200
I2090
sg730
I355
sg1988
I984
sg754
I367
sg4152
I2066
sg4478
I2229
sg3454
I1717
sg2536
I1258
sg36
I8
sg1016
I498
sg2926
I1453
sg1064
I522
sg3828
I1904
sg2092
I1036
sg1444
I712
sg4630
I2305
sg1542
I761
sg3746
I1863
sg118
I49
sg3450
I1715
sg622
I301
sg948
I464
sg3402
I1691
sg4476
I2228
sg2428
I1204
sg1318
I649
sg1510
I745
sg3642
I1811
sg4534
I2257
sg3018
I1499
sg3598
I1789
sg2520
I1250
sg1948
I964
sg1120
I550
sg1174
I577
sg3998
I1989
sg2472
I1226
sg696
I338
sg796
I388
sg3584
I1782
sg484
I232
sg4334
I2157
sg1398
I689
sg3198
I1589
sg3932
I1956
sg1184
I582
sg3904
I1942
sg4002
I1991
sg3952
I1966
sg1840
I910
sg1400
I690
sg4590
I2285
sg3930
I1955
sg1506
I743
sg1086
I533
sg944
I462
sg4306
I2143
sg148
I64
sg3050
I1515
sg1156
I568
sg1018
I499
sg1276
I628
sg3754
I1867
sg2206
I1093
sg500
I240
sg2340
I1160
sg1892
I936
sg1094
I537
sg2936
I1458
sg2320
I1150
sg4390
I2185
sg758
I369
sg1792
I886
sg44
I12
sg1102
I541
sg2746
I1363
sg2108
I1044
sg3286
I1633
sg978
I479
sg786
I383
sg874
I427
sg2382
I1181
sg3456
I1718
sg1066
I523
sg42
I11
sg2250
I1115
sg4064
I2022
sg2588
I1284
sg3390
I1685
sg344
I162
sg4304
I2142
sg3570
I1775
sg2414
I1197
sg1108
I544
sg1394
I687
sg2494
I1237
sg3006
I1493
sg3260
I1620
sg662
I321
sg2170
I1075
sg2296
I1138
sg3268
I1624
sg2272
I1126
sg238
I109
sg1220
I600
sg1274
I627
sg436
I208
sg1340
I660
sg312
I146
sg58
I19
sg4056
I2018
sg198
I89
sg2132
I1056
sg894
I437
sg134
I57
sg4544
I2262
sg2364
I1172
sg4042
I2011
sg3256
I1618
sg2788
I1384
sg438
I209
sg784
I382
sg3428
I1704
sg1126
I553
sg3622
I1801
sg2178
I1079
sg668
I324
sg2134
I1057
sg3242
I1611
sg3264
I1622
sg3956
I1968
sg3604
I1792
sg1062
I521
sg3530
I1755
sg830
I405
sg1260
I620
sg158
I69
sg474
I227
sg4018
I1999
sg1122
I551
sg1512
I746
sg998
I489
sg4428
I2204
sg4406
I2193
sg1810
I895
sg248
I114
sg2504
I1242
sg2790
I1385
sg124
I52
sg670
I325
sg704
I342
sg2602
I1291
sg2080
I1030
sg100
I40
sg842
I411
sg2902
I1441
sg3954
I1967
sg3602
I1791
sg898
I439
sg1206
I593
sg1726
I853
sg2130
I1055
sg2044
I1012
sg1894
I937
sg84
I32
sg3048
I1514
sg4558
I2269
sg2728
I1354
sg472
I226
sg3088
I1534
sg496
I238
sg3208
I1594
sg4144
I2062
sg3876
I1928
sg2604
I1292
sg4604
I2292
sg612
I296
sg820
I400
sg598
I289
sg3758
I1869
sg1428
I704
sg2754
I1367
sg110
I45
sg1836
I908
sg4248
I2114
sg3886
I1933
sg1146
I563
sg3670
I1825
sg4074
I2027
sg3228
I1604
sg494
I237
sg4218
I2099
sg682
I331
sg2916
I1448
sg3398
I1689
sg2388
I1184
sg3942
I1961
sg2636
I1308
sg1586
I783
sg4522
I2251
sg1348
I664
sg1402
I691
sg72
I26
sg2960
I1470
sg4340
I2160
sg3274
I1627
sg4028
I2004
sg3446
I1713
sg3206
I1593
sg2656
I1318
sg1704
I842
sg2690
I1335
sg2530
I1255
sg2714
I1347
sg3140
I1560
sg2624
I1302
sg2938
I1459
sg1720
I850
sg1296
I638
sg1070
I525
sg388
I184
sg4606
I2293
sg2198
I1089
sg534
I257
sg490
I235
sg4412
I2196
sg4378
I2179
sg2986
I1483
sg3340
I1660
sg1270
I625
sg1866
I923
sg774
I377
sg2490
I1235
sg3756
I1868
sg4658
I2319
sg354
I167
sg2012
I996
sg1814
I897
sg1550
I765
sg4076
I2028
sg3814
I1897
sg2632
I1306
sg2976
I1478
sg1248
I614
sg3918
I1949
sg2118
I1049
sg4294
I2137
sg4578
I2279
sg4370
I2175
sg2762
I1371
sg4250
I2115
sg1798
I889
sg3938
I1959
sg532
I256
sg3164
I1572
sg768
I374
sg2452
I1216
sg4108
I2044
sg2716
I1348
sg2142
I1061
sg3592
I1786
sg618
I299
sg1856
I918
sg2474
I1227
sg3200
I1590
sg1502
I741
sg1288
I634
sg76
I28
sg3498
I1739
sg4472
I2226
sg2370
I1175
sg652
I316
sg1678
I829
sg2796
I1388
sg1694
I837
sg2586
I1283
sg1922
I951
sg4050
I2015
sg3790
I1885
sg2418
I1199
sg2446
I1213
sg174
I77
sg2102
I1041
sg3430
I1705
sg1354
I667
sg2378
I1179
sg1646
I813
sg1746
I863
sg3310
I1645
sg2264
I1122
sg778
I379
sg4174
I2077
sg3550
I1765
sg1310
I645
sg112
I46
sg4036
I2008
sg1380
I680
sg2526
I1253
sg1658
I819
sg1410
I695
sg3574
I1777
sg972
I476
sg424
I202
sg146
I63
sg3232
I1606
sg916
I448
sg2670
I1325
sg1362
I671
sg3254
I1617
sg4652
I2316
sg1896
I938
sg3786
I1883
sg268
I124
sg3396
I1688
sg3736
I1858
sg844
I412
sg1682
I831
sg4348
I2164
sg1508
I744
sg1088
I534
sg386
I183
sg3590
I1785
sg2890
I1435
sg2100
I1040
sg3496
I1738
sg2906
I1443
sg2086
I1033
sg3122
I1551
sg90
I35
sg3500
I1740
sg3872
I1926
sg1684
I832
sg2528
I1254
sg908
I444
sg836
I408
sg3126
I1553
sg2260
I1120
sg2442
I1211
sg2048
I1014
sg3292
I1636
sg1518
I749
sg2402
I1191
sg1272
I626
sg3366
I1673
sg2534
I1257
sg2642
I1311
sg1308
I644
sg214
I97
sg336
I158
sg2158
I1069
sg1850
I915
sg4072
I2026
sg4314
I2147
sg284
I132
sg1278
I629
sg3434
I1707
sg1924
I952
sg3646
I1813
sg328
I154
sg2658
I1319
sg1960
I970
sg3344
I1662
sg1302
I641
sg3058
I1519
sg228
I104
sg1608
I794
sg4308
I2144
sg1464
I722
sg1360
I670
sg2024
I1002
sg928
I454
sg3824
I1902
sg2542
I1261
sg3458
I1719
sg2438
I1209
sg3172
I1576
sg3804
I1892
sg3620
I1800
sg4148
I2064
sg3870
I1925
sg1806
I893
sg4420
I2200
sg2522
I1251
sg378
I179
sg990
I485
sg4034
I2007
sg2672
I1326
sg1888
I934
sg1662
I821
sg2958
I1469
sg3076
I1528
sg3502
I1741
sg1082
I531
sg3090
I1535
sg1442
I711
sg2692
I1336
sg2476
I1228
sg2850
I1415
sg4650
I2315
sg4084
I2032
sg3950
I1965
sg122
I51
sg2784
I1382
sg702
I341
sg2330
I1155
sg4022
I2001
sg762
I371
sg2888
I1434
sg1622
I801
sg974
I477
sg4496
I2238
sg1762
I871
sg568
I274
sg1466
I723
sg2116
I1048
sg1698
I839
sg3148
I1564
sg324
I152
sg1854
I917
sg3566
I1773
sg4632
I2306
sg264
I122
sg3842
I1911
sg672
I326
sg4450
I2215
sg1058
I519
sg1826
I903
sg3418
I1699
sg64
I22
sg2394
I1187
sg1192
I586
sg3608
I1794
sg4572
I2276
sg3990
I1985
sg306
I143
sg3470
I1725
sg1700
I840
sg4266
I2123
sg2194
I1087
sg3038
I1509
sg1124
I552
sg1968
I974
sg3100
I1540
sg1812
I896
sg464
I222
sg1668
I824
sg1320
I650
sg1038
I509
sg486
I233
sg1958
I969
sg1946
I963
sg4186
I2083
sg1364
I672
sg848
I414
sg4260
I2120
sg2462
I1221
sg398
I189
sg4366
I2173
sg2770
I1375
sg3436
I1708
sg4044
I2012
sg4654
I2317
sg230
I105
sg2730
I1355
sg740
I360
sg1484
I732
sg832
I406
sg746
I363
sg220
I100
sg4474
I2227
sg3636
I1808
sg3280
I1630
sg3024
I1502
sg4330
I2155
sg4286
I2133
sg4054
I2017
sg1452
I716
sg1208
I594
sg4600
I2290
sg3994
I1987
sg1696
I838
sg3246
I1613
sg3558
I1769
sg4094
I2037
sg3544
I1762
sg2058
I1019
sg2456
I1218
sg920
I450
sg4324
I2152
sg3258
I1619
sg1780
I880
sg470
I225
sg3962
I1971
sg1828
I904
sg2496
I1238
sg1604
I792
sg22
I1
sg3064
I1522
sg106
I43
sg3862
I1921
sg3360
I1670
sg1234
I607
sg3322
I1651
sg1344
I662
sg2704
I1342
sg4336
I2158
sg966
I473
sg4386
I2183
sg3378
I1679
sg3628
I1804
sg2302
I1141
sg1060
I520
sg3864
I1922
sg1790
I885
sg156
I68
sg1800
I890
sg2068
I1024
sg3372
I1676
sg502
I241
sg252
I116
sg2524
I1252
sg1952
I966
sg1944
I962
sg2518
I1249
sg2054
I1017
sg3822
I1901
sg1446
I713
sg4010
I1995
sg2454
I1217
sg1584
I782
sg2338
I1159
sg2398
I1189
sg4182
I2081
sg3188
I1584
sg2516
I1248
sg2426
I1203
sg1202
I591
sg512
I246
sg4656
I2318
sg2734
I1357
sg2212
I1096
sg1412
I696
sg3858
I1919
sg164
I72
sg234
I107
sg734
I357
sg2154
I1067
sg2332
I1156
sg208
I94
sg3388
I1684
sg2764
I1372
sg698
I339
sg4454
I2217
sg2564
I1272
sg1910
I945
sg1314
I647
sg2256
I1118
sg1846
I913
sg3630
I1805
sg1838
I909
sg3594
I1787
sg2088
I1034
sg1560
I770
sg2072
I1026
sg212
I96
sg4116
I2048
sg872
I426
sg1456
I718
sg116
I48
sg4374
I2177
sg402
I191
sg4628
I2304
sg2946
I1463
sg1312
I646
sg1404
I692
sg4554
I2267
sg456
I218
sg2814
I1397
sg3404
I1692
sg3136
I1558
sg3130
I1555
sg2974
I1477
sg4000
I1990
sg884
I432
sg3988
I1984
sg2242
I1111
sg54
I17
sg690
I335
sg152
I66
sg2834
I1407
sg950
I465
sg3072
I1526
sg3560
I1770
sg2652
I1316
sg4402
I2191
sg3348
I1664
sg348
I164
sg1950
I965
sg1326
I653
sg374
I177
sg2800
I1390
sg536
I258
sg3532
I1756
sg560
I270
sg2500
I1240
sg2774
I1377
sg38
I9
sg4372
I2176
sg4026
I2003
sg3252
I1616
sg1416
I698
sg3968
I1974
sg3780
I1880
sg1862
I921
sg120
I50
sg2700
I1340
sg2042
I1011
sg878
I429
sg320
I150
sg3808
I1894
sg4394
I2187
sg2732
I1356
sg3082
I1531
sg880
I430
sg4528
I2254
sg2238
I1109
sg1566
I773
sg2872
I1426
sg594
I287
sg286
I133
sg3766
I1873
sg718
I349
sg476
I228
sg1148
I564
sg3908
I1944
sg3512
I1746
sg2248
I1114
sg1734
I857
sg362
I171
sg2486
I1233
sg1934
I957
sg2030
I1005
sg3342
I1661
sg3026
I1503
sg2120
I1050
sg2780
I1380
sg1530
I755
sg154
I67
sg2230
I1105
sg3812
I1896
sg482
I231
sg4610
I2295
sg4282
I2131
sg2722
I1351
sg3028
I1504
sg2924
I1452
sg4636
I2308
sg4206
I2093
sg422
I201
sg4110
I2045
sg3844
I1912
sg3158
I1569
sg4268
I2124
sg1750
I865
sg3966
I1973
sg726
I353
sg3634
I1807
sg244
I112
sg4240
I2110
sg190
I85
sg4046
I2013
sg1752
I866
sg2896
I1438
sg2140
I1060
sg3892
I1936
sg958
I469
sg1890
I935
sg2802
I1391
sg2148
I1064
sg2554
I1267
sg3836
I1908
sg1764
I872
sg352
I166
sg98
I39
sg3014
I1497
sg3728
I1854
sg108
I44
sg3830
I1905
sg1562
I771
sg912
I446
sg2380
I1180
sg1596
I788
sg3094
I1537
sg1286
I633
sg2654
I1317
sg1686
I833
sg1252
I616
sg4156
I2068
sg4486
I2233
sg1774
I877
sg2316
I1148
sg3328
I1654
sg3374
I1677
sg4570
I2275
sg390
I185
sg2778
I1379
sg2858
I1419
sg1594
I787
sg2482
I1231
sg4198
I2089
sg3610
I1795
sg290
I135
sg1178
I579
sg166
I73
sg2664
I1322
sg1004
I492
sg1844
I912
sg2886
I1433
sg78
I29
sg2236
I1108
sg506
I243
sg2046
I1013
sg3110
I1545
sg2548
I1264
sg1742
I861
sg3080
I1530
sg3878
I1929
sg3332
I1656
sg1376
I678
sg2810
I1395
sg2386
I1183
sg4166
I2073
sg4438
I2209
sg1630
I805
sg4516
I2248
sg2972
I1476
sg562
I271
sg136
I58
sg2156
I1068
sg3212
I1596
sg4602
I2291
sg222
I101
sg4102
I2041
sg404
I192
sg458
I219
sg860
I420
sg1188
I584
sg3326
I1653
sg2166
I1073
sg2222
I1101
sg104
I42
sg218
I99
sg382
I181
sg4482
I2231
sg3476
I1728
sg2280
I1130
sg3408
I1694
sg1588
I784
sg1962
I971
sg4222
I2101
sg2450
I1215
sg2998
I1489
sg4020
I2000
sg1940
I960
sg3486
I1733
sg2696
I1338
sg2304
I1142
sg2556
I1268
sg1160
I570
sg3914
I1947
sg2352
I1166
sg1204
I592
sg3044
I1512
sg1784
I882
sg3196
I1588
sg4040
I2010
sg4414
I2197
sg4638
I2309
sg232
I106
sg1460
I720
sg866
I423
sg1256
I618
sg3016
I1498
sg4142
I2061
sg1328
I654
sg194
I87
sg3112
I1546
sg2392
I1186
sg3354
I1667
sg3618
I1799
sg4556
I2268
sg3654
I1817
sg2432
I1206
sg3510
I1745
sg2018
I999
sg216
I98
sg4190
I2085
sg1904
I942
sg1500
I740
sg1670
I825
sg798
I389
sg3084
I1532
sg2894
I1437
sg2908
I1444
sg418
I199
sg4488
I2234
sg1732
I856
sg1370
I675
sg1140
I560
sg1886
I933
sg2114
I1047
sg1688
I834
sg3182
I1581
sg226
I103
sg806
I393
sg2842
I1411
sg3166
I1573
sg3462
I1721
sg2598
I1289
sg3414
I1697
sg2900
I1440
sg304
I142
sg1616
I798
sg2854
I1417
sg1540
I760
sg410
I195
sg372
I176
sg20
I0
sg3818
I1899
sg870
I425
sg1624
I802
sg4104
I2042
sg1768
I874
sg258
I119
sg2766
I1373
sg1280
I630
sg394
I187
sg3040
I1510
sg4086
I2033
sg648
I314
sg4480
I2230
sg3644
I1812
sg1558
I769
sg4432
I2206
sg3578
I1779
sg3856
I1918
sg3900
I1940
sg4364
I2172
sg3368
I1674
sg2298
I1139
sg4254
I2117
sg2828
I1404
sg4326
I2153
sg3036
I1508
sg2804
I1392
sg1000
I490
sg3490
I1735
sg3202
I1591
sg692
I336
sg3682
I1831
sg3290
I1635
sg1262
I621
sg274
I127
sg1864
I922
sg524
I252
sg1636
I808
sg3626
I1803
sg1378
I679
sg3694
I1837
sg2994
I1487
sg4426
I2203
sg3568
I1774
sg2848
I1414
sg1334
I657
sg1966
I973
sg1306
I643
sg2860
I1420
sg1956
I968
sg2660
I1320
sg3416
I1698
sg2922
I1451
sg4484
I2232
sg4276
I2128
sg1222
I601
sg906
I443
sg2448
I1214
sg678
I329
sg4392
I2186
sg3508
I1744
sg782
I381
sg1716
I848
sg4594
I2287
sg4082
I2031
sg2502
I1241
sg934
I457
sg1080
I530
sg2354
I1167
sg1938
I959
sg2004
I992
sg2954
I1467
sg3178
I1579
sg3652
I1816
sg936
I458
sg2750
I1365
sg1250
I615
sg4626
I2303
sg4138
I2059
sg1136
I558
sg1282
I631
sg3444
I1712
sg2852
I1416
sg2580
I1280
sg3724
I1852
sg3846
I1913
sg1498
I739
sg4280
I2130
sg1232
I606
sg2374
I1177
sg2874
I1427
sg28
I4
sg3764
I1872
sg2186
I1083
sg3046
I1513
sg4382
I2181
sg864
I422
sg3108
I1544
sg338
I159
sg288
I134
sg2712
I1346
sg3074
I1527
sg4170
I2075
sg170
I75
sg2578
I1279
sg4506
I2243
sg1462
I721
sg3838
I1909
sg4518
I2249
sg384
I182
sg2684
I1332
sg4238
I2109
sg4494
I2237
sg356
I168
sg4510
I2245
sg2944
I1462
sg2326
I1153
sg4202
I2091
sg4622
I2301
sg970
I475
sg2136
I1058
sg2344
I1162
sg2680
I1330
sg276
I128
sg3070
I1525
sg4564
I2272
sg3554
I1767
sg2420
I1200
sg1332
I656
sg3052
I1516
sg2720
I1350
sg2582
I1281
sg2172
I1076
sg3840
I1910
sg642
I311
sg2064
I1022
sg996
I488
sg584
I282
sg4204
I2092
sg1872
I926
sg2104
I1042
sg530
I255
sg756
I368
sg3154
I1567
sg3718
I1849
sg4552
I2266
sg650
I315
sg210
I95
sg2988
I1484
sg3888
I1934
sg4088
I2034
sg138
I59
sg3666
I1823
sg2816
I1398
sg4068
I2024
sg4196
I2088
sg4338
I2159
sg2630
I1305
sg3706
I1843
sg3572
I1776
sg1954
I967
sg1214
I597
sg510
I245
sg918
I449
sg1908
I944
sg3658
I1819
sg1980
I980
sg2862
I1421
sg1730
I855
sg2010
I995
sg2538
I1259
sg4134
I2057
sg68
I24
sg3546
I1763
sg3850
I1915
sg126
I53
sg3926
I1953
sg2226
I1103
sg1516
I748
sg2982
I1481
sg1644
I812
sg2940
I1460
sg1048
I514
sg4052
I2016
sg1832
I906
sg2510
I1245
sg3478
I1729
sg2838
I1409
sg592
I286
sg2698
I1339
sg3708
I1844
sg310
I145
sg2022
I1001
sg2424
I1202
sg2376
I1178
sg2752
I1366
sg2458
I1219
sg1580
I780
sg4318
I2149
sg602
I291
sg4264
I2122
sg1782
I881
sg1020
I500
sg1912
I946
sg1224
I602
sg2002
I991
sg3386
I1683
sg24
I2
sg3722
I1851
sg1144
I562
sg3068
I1524
sg1834
I907
sg4114
I2047
sg614
I297
sg1132
I556
sg520
I250
sg2646
I1313
sg570
I275
sg4530
I2255
sg2724
I1352
sg1176
I578
sg2038
I1009
sg3086
I1533
sg1480
I730
sg3380
I1680
sg3940
I1960
sg596
I288
sg3358
I1669
sg2648
I1314
sg4100
I2040
sg3124
I1552
sg4644
I2312
sg2820
I1400
sg3910
I1945
sg2892
I1436
sg1386
I683
sg516
I248
sg1706
I843
sg980
I480
sg1770
I875
sg4368
I2174
sg2270
I1125
sg4016
I1998
sg162
I71
sg566
I273
sg3102
I1541
sg480
I230
sg1254
I617
sg586
I283
sg4582
I2281
sg4328
I2154
sg3640
I1810
sg1824
I902
sg2036
I1008
sg976
I478
sg2362
I1171
sg3738
I1859
sg1330
I655
sg3420
I1700
sg1996
I988
sg852
I416
sg168
I74
sg4062
I2021
sg550
I265
sg2176
I1078
sg254
I117
sg3606
I1793
sg2992
I1486
sg412
I196
sg4446
I2213
sg1674
I827
sg4122
I2051
sg2706
I1343
sg588
I284
sg316
I148
sg2106
I1043
sg1034
I507
sg2710
I1345
sg3934
I1957
sg2552
I1266
sg1290
I635
sg1974
I977
sg1748
I864
sg2434
I1207
sg204
I92
sg3726
I1853
sg3218
I1599
sg3996
I1988
sg3466
I1723
sg4332
I2156
sg2912
I1446
sg1118
I549
sg900
I440
sg2184
I1082
sg2574
I1277
sg452
I216
sg4616
I2298
sg1092
I536
sg4030
I2005
sg4032
I2006
sg1150
I565
sg4624
I2302
sg4168
I2074
sg462
I221
sg3732
I1856
sg3226
I1603
sg634
I307
sg2098
I1039
sg3978
I1979
sg3034
I1507
sg4618
I2299
sg3144
I1562
sg3548
I1764
sg526
I253
sg926
I453
sg92
I36
sg3092
I1536
sg3120
I1550
sg1918
I949
sg2228
I1104
sg300
I140
sg1964
I972
sg1708
I844
sg2942
I1461
sg4592
I2286
sg2812
I1396
sg2506
I1243
sg4066
I2023
sg4466
I2223
sg4312
I2146
sg554
I267
sg2898
I1439
sg2408
I1194
sg2096
I1038
sg4178
I2079
sg2566
I1273
sg1728
I854
sg770
I375
sg888
I434
sg2674
I1327
sg3912
I1946
sg4400
I2190
sg1972
I976
sg3480
I1730
sg4620
I2300
sg4090
I2035
sg2808
I1394
sg4098
I2039
sg3066
I1523
sg632
I306
sg434
I207
sg1970
I975
sg2192
I1086
sg2406
I1193
sg114
I47
sg3920
I1950
sg2996
I1488
sg854
I417
sg3138
I1559
sg3944
I1962
sg3730
I1855
sg3250
I1615
sg3190
I1585
sg2644
I1312
sg790
I385
sg2918
I1449
sg364
I172
sg182
I81
sg626
I303
sg1390
I685
sg2342
I1161
sg4524
I2252
sg3788
I1884
sg3134
I1557
sg4008
I1994
sg962
I471
sg4184
I2082
sg3012
I1496
sg3964
I1972
sg2410
I1195
sg3528
I1754
sg3600
I1790
sg1106
I543
sg3588
I1784
sg4362
I2171
sg332
I156
sg638
I309
sg3000
I1490
sg4542
I2261
sg150
I65
sg810
I395
sg564
I272
sg546
I263
sg2830
I1405
sg1592
I786
sg1482
I731
sg4126
I2053
sg1544
I762
sg2600
I1290
sg744
I362
sg3632
I1806
sg1014
I497
sg3540
I1760
sg2268
I1124
sg1294
I637
sg172
I76
sg48
I14
sg1820
I900
sg522
I251
sg2372
I1176
sg2758
I1369
sg1878
I929
sg3832
I1906
sg2312
I1146
sg2144
I1062
sg4384
I2182
sg420
I200
sg1920
I950
sg890
I435
sg3318
I1649
sg3916
I1948
sg514
I247
sg2400
I1190
sg3984
I1982
sg2052
I1016
sg3866
I1923
sg2836
I1408
sg1116
I548
ssS'_length'
p4663
I2321
sS'_unseen'
p4664
NsS'_alwayson'
p4665
NsbsS'_weights'
p4666
cnumpy.core.multiarray
_reconstruct
p4667
(cnumpy
ndarray
p4668
(I0
tp4669
S'b'
p4670
tp4671
Rp4672
(I1
(I2322
tp4673
cnumpy
dtype
p4674
(S'f8'
p4675
I0
I1
tp4676
Rp4677
(I3
S'<'
p4678
NNNI-1
I-1
I0
tp4679
bI00
S"\xd7z\xa0\x91\xe0\x80\x17?\xd7z\xa0\x91\xe0\x80\x17?H'5\xe8\xe8\xe6\x10?\xd7z\xa0\x91\xe0\x80\x17?H'5\xe8\xe8\xe6\x10?H'5\xe8\xe8\xe6\x10?\xd7z\xa0\x91\xe0\x80\x17?\xd7z\xa0\x91\xe0\x80\x17?\xd7z\xa0\x91\xe0\x80\x17?\xe1]@\xa4\xeeR\x0b?H'5\xe8\xe8\xe6\x10?H'5\xe8\xe8\xe6\x10?H'5\xe8\xe8\xe6\x10?H'5\xe8\xe8\xe6\x10?H'5\xe8\xe8\xe6\x10?H'5\xe8\xe8\xe6\x10?H'5\xe8\xe8\xe6\x10?\xd7z\xa0\x91\xe0\x80\x17?\xd7z\xa0\x91\xe0\x80\x17?\xd7z\xa0\x91\xe0\x80\x17?H'5\xe8\xe8\xe6\x10?H'5\xe8\xe8\xe6\x10?\xd7z\xa0\x91\xe0\x80\x17?\xd7z\xa0\x91\xe0\x80\x17?\xd7z\xa0\x91\xe0\x80\x17?H'5\xe8\xe8\xe6\x10?H'5\xe8\xe8\xe6\x10?\xd7z\xa0\x91\xe0\x80\x17?H'5\xe8\xe8\xe6\x10?H'5\xe8\xe8\xe6\x10?H'5\xe8\xe8\xe6\x10?\xd7z\xa0\x91\xe0\x80\x17?H'5\xe8\xe8\xe6\x10?f\xcd\x06\xd5'n\x1e?H'5\xe8\xe8\xe6\x10?H'5\xe8\xe8\xe6\x10?\xd7z\xa0\x91\xe0\x80\x17?H'5\xe8\xe8\xe6\x10?H'5\xe8\xe8\xe6\x10?H'5\xe8\xe8\xe6\x10?H'5\xe8\xe8\xe6\x10?\xd7z\xa0\x91\xe0\x80\x17?\xd7z\xa0\x91\xe0\x80\x17?\xd7z\xa0\x91\xe0\x80\x17?H'5\xe8\xe8\xe6\x10?H'5\xe8\xe8\xe6\x10?\xd7z\xa0\x91\xe0\x80\x17?S\x06G\xf8d\xf4\x1a?H'5\xe8\xe8\xe6\x10?\xe1]@\xa4\xeeR\x0b?H'5\xe8\xe8\xe6\x10?\xd7z\xa0\x91\xe0\x80\x17?\xd7z\xa0\x91\xe0\x80\x17?\xd7z\xa0\x91\xe0\x80\x17?H'5\xe8\xe8\xe6\x10?\xd7z\xa0\x91\xe0\x80\x17?H'5\xe8\xe8\xe6\x10?\xd7z\xa0\x91\xe0\x80\x17?H'5\xe8\xe8\xe6\x10?\xd7z\xa0\x91\xe0\x80\x17?H'5\xe8\xe8\xe6\x10?\xc5\xb2\xdbNmZ\x14?H'5\xe8\xe8\xe6\x10?H'5\xe8\xe8\xe6\x10?H'5\xe8\xe8\xe6\x10?\xd7z\xa0\x91\xe0\x80\x17?H'5\xe8\xe8\xe6\x10?\xd7z\xa0\x91\xe0\x80\x17?H'5\xe8\xe8\xe6\x10?\xd7z\xa0\x91\xe0\x80\x17?\xd7z\xa0\x91\xe0\x80\x17?H'5\xe8\xe8\xe6\x10?H'5\xe8\xe8\xe6\x10?f\xcd\x06\xd5'n\x1e?\xd7z\xa0\x91\xe0\x80\x17?\xe1]@\xa4\xeeR\x0b?H'5\xe8\xe8\xe6\x10?\xd7z\xa0\x91\xe0\x80\x17?H'5\xe8\xe8\xe6\x10?H'5\xe8\xe8\xe6\x10?\xd7z\xa0\x91\xe0\x80\x17?H'5\xe8\xe8\xe6\x10?H'5\xe8\xe8\xe6\x10?\xd7z\xa0\x91\xe0\x80\x17?\xd7z\xa0\x91\xe0\x80\x17?\xd7z\xa0\x91\xe0\x80\x17?S\x06G\xf8d\xf4\x1a?\xd7z\xa0\x91\xe0\x80\x17?\xd7z\xa0\x91\xe0\x80\x17?\xd7z\xa0\x91\xe0\x80\x17?\xd7z\xa0\x91\xe0\x80\x17?\x17B\xf8\xfb\x02\rT?H'5\xe8\xe8\xe6\x10?\xd7z\xa0\x91\xe0\x80\x17?H'5\xe8\xe8\xe6\x10?H'5\xe8\xe8\xe6\x10?H'5\xe8\xe8\xe6\x10?H'5\xe8\xe8\xe6\x10?H'5\xe8\xe8\xe6\x10?\xd7z\xa0\x91\xe0\x80\x17?H'5\xe8\xe8\xe6\x10?\xd7z\xa0\x91\xe0\x80\x17?S\x06G\xf8d\xf4\x1a?\xd7z\xa0\x91\xe0\x80\x17?\xd7z\xa0\x91\xe0\x80\x17?\xd7z\xa0\x91\xe0\x80\x17?H'5\xe8\xe8\xe6\x10?\xd7z\xa0\x91\xe0\x80\x17?H'5\xe8\xe8\xe6\x10?P\x11|\xf6F\xb5\x04?H'5\xe8\xe8\xe6\x10?\xd7z\xa0\x91\xe0\x80\x17?H'5\xe8\xe8\xe6\x10?H'5\xe8\xe8\xe6\x10?H'5\xe8\xe8\xe6\x10?\xd7z\xa0\x91\xe0\x80\x17?H'5\xe8\xe8\xe6\x10?H'5\xe8\xe8\xe6\x10?H'5\xe8\xe8\xe6\x10?\xd7z\xa0\x91\xe0\x80\x17?S\x06G\xf8d\xf4\x1a?H'5\xe8\xe8\xe6\x10?\xd7z\xa0\x91\xe0\x80\x17?\xd7z\xa0\x91\xe0\x80\x17?H'5\xe8\xe8\xe6\x10?\xd7z\xa0\x91\xe0\x80\x17?H'5\xe8\xe8\xe6\x10?\xd7z\xa0\x91\xe0\x80\x17?\xd7z\xa0\x91\xe0\x80\x17?H'5\xe8\xe8\xe6\x10?\xd7z\xa0\x91\xe0\x80\x17?\xd7z\xa0\x91\xe0\x80\x17?\xd7z\xa0\x91\xe0\x80\x17?H'5\xe8\xe8\xe6\x10?H'5\xe8\xe8\xe6\x10?\xd7z\xa0\x91\xe0\x80\x17?\xd7z\xa0\x91\xe0\x80\x17?f\xcd\x06\xd5'n\x1e?\xd7z\xa0\x91\xe0\x80\x17?\xd7z\xa0\x91\xe0\x80\x17?\xd8y\x9b+0\xd4\x17?H'5\xe8\xe8\xe6\x10?\xd7z\xa0\x91\xe0\x80\x17?H'5\xe8\xe8\xe6\x10?\xe1]@\xa4\xeeR\x0b?H'5\xe8\xe8\xe6\x10?\xd7z\xa0\x91\xe0\x80\x17?\xd7z\xa0\x91\xe0\x80\x17?H'5\xe8\xe8\xe6\x10?\xd7z\xa0\x91\xe0\x80\x17?\xd7z\xa0\x91\xe0\x80\x17?H'5\xe8\xe8\xe6\x10?H'5\xe8\xe8\xe6\x10?H'5\xe8\xe8\xe6\x10?H'5\xe8\xe8\xe6\x10?\xd7z\xa0\x91\xe0\x80\x17?\xd7z\xa0\x91\xe0\x80\x17?\xd7z\xa0\x91\xe0\x80\x17?H'5\xe8\xe8\xe6\x10?H'5\xe8\xe8\xe6\x10?\xd7z\xa0\x91\xe0\x80\x17?\xd7z\xa0\x91\xe0\x80\x17?H'5\xe8\xe8\xe6\x10?H'5\xe8\xe8\xe6\x10?H'5\xe8\xe8\xe6\x10?H'5\xe8\xe8\xe6\x10?H'5\xe8\xe8\xe6\x10?H'5\xe8\xe8\xe6\x10?H'5\xe8\xe8\xe6\x10?\xd7z\xa0\x91\xe0\x80\x17?H'5\xe8\xe8\xe6\x10?\xd7z\xa0\x91\xe0\x80\x17?H'5\xe8\xe8\xe6\x10?H'5\xe8\xe8\xe6\x10?\xd7z\xa0\x91\xe0\x80\x17?\xd7z\xa0\x91\xe0\x80\x17?\xd7z\xa0\x91\xe0\x80\x17?\xd7z\xa0\x91\xe0\x80\x17?H'5\xe8\xe8\xe6\x10?f\xcd\x06\xd5'n\x1e?H'5\xe8\xe8\xe6\x10?\xe1]@\xa4\xeeR\x0b?H'5\xe8\xe8\xe6\x10?H'5\xe8\xe8\xe6\x10?\xd7z\xa0\x91\xe0\x80\x17?\xd7z\xa0\x91\xe0\x80\x17?H'5\xe8\xe8\xe6\x10?H'5\xe8\xe8\xe6\x10?H'5\xe8\xe8\xe6\x10?H'5\xe8\xe8\xe6\x10?\xd7z\xa0\x91\xe0\x80\x17?H'5\xe8\xe8\xe6\x10?H'5\xe8\xe8\xe6\x10?\xd7z\xa0\x91\xe0\x80\x17?H'5\xe8\xe8\xe6\x10?H'5\xe8\xe8\xe6\x10?\xd7z\xa0\x91\xe0\x80\x17?H'5\xe8\xe8\xe6\x10?\xd7z\xa0\x91\xe0\x80\x17?H'5\xe8\xe8\xe6\x10?H'5\xe8\xe8\xe6\x10?H'5\xe8\xe8\xe6\x10?H'5\xe8\xe8\xe6\x10?H'5\xe8\xe8\xe6\x10?H'5\xe8\xe8\xe6\x10?H'5\xe8\xe8\xe6\x10?\xd7z\xa0\x91\xe0\x80\x17?\xd7z\xa0\x91\xe0\x80\x17?H'5\xe8\xe8\xe6\x10?\xd7z\xa0\x91\xe0\x80\x17?H'5\xe8\xe8\xe6\x10?\xd7z\xa0\x91\xe0\x80\x17?\xd7z\xa0\x91\xe0\x80\x17?H'5\xe8\xe8\xe6\x10?H'5\xe8\xe8\xe6\x10?\xd7z\xa0\x91\xe0\x80\x17?\xd7z\xa0\x91\xe0\x80\x17?\xe1]@\xa4\xeeR\x0b?H'5\xe8\xe8\xe6\x10?H'5\xe8\xe8\xe6\x10?\xe1]@\xa4\xeeR\x0b?H'5\xe8\xe8\xe6\x10?H'5\xe8\xe8\xe6\x10?H'5\xe8\xe8\xe6\x10?\xd7z\xa0\x91\xe0\x80\x17?H'5\xe8\xe8\xe6\x10?H'5\xe8\xe8\xe6\x10?\xd7z\xa0\x91\xe0\x80\x17?\xd7z\xa0\x91\xe0\x80\x17?H'5\xe8\xe8\xe6\x10?\xd7z\xa0\x91\xe0\x80\x17?\xd7z\xa0\x91\xe0\x80\x17?H'5\xe8\xe8\xe6\x10?\xd7z\xa0\x91\xe0\x80\x17?\xd7z\xa0\x91\xe0\x80\x17?\xd7z\xa0\x91\xe0\x80\x17?H'5\xe8\xe8\xe6\x10?\xe1]@\xa4\xeeR\x0b?H'5\xe8\xe8\xe6\x10?\xe1]@\xa4\xeeR\x0b?\xd7z\xa0\x91\xe0\x80\x17?H'5\xe8\xe8\xe6\x10?\xd7z\xa0\x91\xe0\x80\x17?H'5\xe8\xe8\xe6\x10?\xe1]@\xa4\xeeR\x0b?\xd7z\xa0\x91\xe0\x80\x17?\xe1]@\xa4\xeeR\x0b?\xd7z\xa0\x91\xe0\x80\x17?\xe1]@\xa4\xeeR\x0b?H'5\xe8\xe8\xe6\x10?\xd7z\xa0\x91\xe0\x80\x17?H'5\xe8\xe8\xe6\x10?H'5\xe8\xe8\xe6\x10?H'5\xe8\xe8\xe6\x10?H'5\xe8\xe8\xe6\x10?\xe1]@\xa4\xeeR\x0b?\xd7z\xa0\x91\xe0\x80\x17?H'5\xe8\xe8\xe6\x10?H'5\xe8\xe8\xe6\x10?H'5\xe8\xe8\xe6\x10?\xd7z\xa0\x91\xe0\x80\x17?H'5\xe8\xe8\xe6\x10?H'5\xe8\xe8\xe6\x10?H'5\xe8\xe8\xe6\x10?H'5\xe8\xe8\xe6\x10?H'5\xe8\xe8\xe6\x10?\xd7z\xa0\x91\xe0\x80\x17?H'5\xe8\xe8\xe6\x10?H'5\xe8\xe8\xe6\x10?\xd7z\xa0\x91\xe0\x80\x17?H'5\xe8\xe8\xe6\x10?H'5\xe8\xe8\xe6\x10?\xd7z\xa0\x91\xe0\x80\x17?\xd7z\xa0\x91\xe0\x80\x17?H'5\xe8\xe8\xe6\x10?H'5\xe8\xe8\xe6\x10?\xd7z\xa0\x91\xe0\x80\x17?\xd7z\xa0\x91\xe0\x80\x17?\xd7z\xa0\x91\xe0\x80\x17?\xd7z\xa0\x91\xe0\x80\x17?H'5\xe8\xe8\xe6\x10?\xd7z\xa0\x91\xe0\x80\x17?H'5\xe8\xe8\xe6\x10?H'5\xe8\xe8\xe6\x10?H'5\xe8\xe8\xe6\x10?H'5\xe8\xe8\xe6\x10?\xd7z\xa0\x91\xe0\x80\x17?H'5\xe8\xe8\xe6\x10?\xd7z\xa0\x91\xe0\x80\x17?\xd7z\xa0\x91\xe0\x80\x17?\xd7z\xa0\x91\xe0\x80\x17?H'5\xe8\xe8\xe6\x10?H'5\xe8\xe8\xe6\x10?H'5\xe8\xe8\xe6\x10?\xd7z\xa0\x91\xe0\x80\x17?\xd7z\xa0\x91\xe0\x80\x17?\xd7z\xa0\x91\xe0\x80\x17?\xd7z\xa0\x91\xe0\x80\x17?\xd7z\xa0\x91\xe0\x80\x17?H'5\xe8\xe8\xe6\x10?H'5\xe8\xe8\xe6\x10?\xd7z\xa0\x91\xe0\x80\x17?P\x11|\xf6F\xb5\x04?\xd7z\xa0\x91\xe0\x80\x17?H'5\xe8\xe8\xe6\x10?\xe1]@\xa4\xeeR\x0b?H'5\xe8\xe8\xe6\x10?\x03\xf6\xdf.:#\x11?H'5\xe8\xe8\xe6\x10?\xd7z\xa0\x91\xe0\x80\x17?H'5\xe8\xe8\xe6\x10?\xd7z\xa0\x91\xe0\x80\x17?\xd7z\xa0\x91\xe0\x80\x17?\xd7z\xa0\x91\xe0\x80\x17?H'5\xe8\xe8\xe6\x10?\xe1]@\xa4\xeeR\x0b?H'5\xe8\xe8\xe6\x10?H'5\xe8\xe8\xe6\x10?\xd7z\xa0\x91\xe0\x80\x17?H'5\xe8\xe8\xe6\x10?S\x06G\xf8d\xf4\x1a?f\xcd\x06\xd5'n\x1e?\xbf\xc3tK$4\xec>H'5\xe8\xe8\xe6\x10?\xd7z\xa0\x91\xe0\x80\x17?H'5\xe8\xe8\xe6\x10?H'5\xe8\xe8\xe6\x10?\xd7z\xa0\x91\xe0\x80\x17?\xc5\xb2\xdbNmZ\x14?H'5\xe8\xe8\xe6\x10?\xd7z\xa0\x91\xe0\x80\x17?\xd7z\xa0\x91\xe0\x80\x17?H'5\xe8\xe8\xe6\x10?\xd7z\xa0\x91\xe0\x80\x17?H'5\xe8\xe8\xe6\x10?H'5\xe8\xe8\xe6\x10?H'5\xe8\xe8\xe6\x10?H'5\xe8\xe8\xe6\x10?H'5\xe8\xe8\xe6\x10?\xd7z\xa0\x91\xe0\x80\x17?H'5\xe8\xe8\xe6\x10?H'5\xe8\xe8\xe6\x10?\xd7z\xa0\x91\xe0\x80\x17?H'5\xe8\xe8\xe6\x10?H'5\xe8\xe8\xe6\x10?\xd7z\xa0\x91\xe0\x80\x17?\xd7z\xa0\x91\xe0\x80\x17?H'5\xe8\xe8\xe6\x10?\xd7z\xa0\x91\xe0\x80\x17?\xd7z\xa0\x91\xe0\x80\x17?\xd7z\xa0\x91\xe0\x80\x17?H'5\xe8\xe8\xe6\x10?\xd7z\xa0\x91\xe0\x80\x17?\xd7z\xa0\x91\xe0\x80\x17?\xe1]@\xa4\xeeR\x0b?\xd7z\xa0\x91\xe0\x80\x17?H'5\xe8\xe8\xe6\x10?H'5\xe8\xe8\xe6\x10?H'5\xe8\xe8\xe6\x10?\xd7z\xa0\x91\xe0\x80\x17?H'5\xe8\xe8\xe6\x10?H'5\xe8\xe8\xe6\x10?H'5\xe8\xe8\xe6\x10?\xd7z\xa0\x91\xe0\x80\x17?\xd7z\xa0\x91\xe0\x80\x17?\xd7z\xa0\x91\xe0\x80\x17?\xd7z\xa0\x91\xe0\x80\x17?\xd7z\xa0\x91\xe0\x80\x17?H'5\xe8\xe8\xe6\x10?H'5\xe8\xe8\xe6\x10?\xd7z\xa0\x91\xe0\x80\x17?\xd7z\xa0\x91\xe0\x80\x17?\xd7z\xa0\x91\xe0\x80\x17?\xd7z\xa0\x91\xe0\x80\x17?\xd7z\xa0\x91\xe0\x80\x17?\xd7z\xa0\x91\xe0\x80\x17?\xd7z\xa0\x91\xe0\x80\x17?H'5\xe8\xe8\xe6\x10?H'5\xe8\xe8\xe6\x10?H'5\xe8\xe8\xe6\x10?\xd7z\xa0\x91\xe0\x80\x17?H'5\xe8\xe8\xe6\x10?\xd7z\xa0\x91\xe0\x80\x17?\xd7z\xa0\x91\xe0\x80\x17?\xd7z\xa0\x91\xe0\x80\x17?H'5\xe8\xe8\xe6\x10?H'5\xe8\xe8\xe6\x10?H'5\xe8\xe8\xe6\x10?\xd7z\xa0\x91\xe0\x80\x17?H'5\xe8\xe8\xe6\x10?\xd7z\xa0\x91\xe0\x80\x17?H'5\xe8\xe8\xe6\x10?\xd7z\xa0\x91\xe0\x80\x17?\xd7z\xa0\x91\xe0\x80\x17?\xd7z\xa0\x91\xe0\x80\x17?H'5\xe8\xe8\xe6\x10?H'5\xe8\xe8\xe6\x10?\xd7z\xa0\x91\xe0\x80\x17?H'5\xe8\xe8\xe6\x10?H'5\xe8\xe8\xe6\x10?\xd7z\xa0\x91\xe0\x80\x17?H'5\xe8\xe8\xe6\x10?\xd7z\xa0\x91\xe0\x80\x17?f\xcd\x06\xd5'n\x1e?H'5\xe8\xe8\xe6\x10?H'5\xe8\xe8\xe6\x10?H'5\xe8\xe8\xe6\x10?H'5\xe8\xe8\xe6\x10?H'5\xe8\xe8\xe6\x10?H'5\xe8\xe8\xe6\x10?H'5\xe8\xe8\xe6\x10?H'5\xe8\xe8\xe6\x10?H'5\xe8\xe8\xe6\x10?H'5\xe8\xe8\xe6\x10?H'5\xe8\xe8\xe6\x10?\xd7z\xa0\x91\xe0\x80\x17?\xd7z\xa0\x91\xe0\x80\x17?\xd7z\xa0\x91\xe0\x80\x17?\xc5\xb2\xdbNmZ\x14?\xd7z\xa0\x91\xe0\x80\x17?H'5\xe8\xe8\xe6\x10?\xd7z\xa0\x91\xe0\x80\x17?f\xcd\x06\xd5'n\x1e?\xd8y\x9b+0\xd4\x17?H'5\xe8\xe8\xe6\x10?\xd7z\xa0\x91\xe0\x80\x17?\xe1]@\xa4\xeeR\x0b?\xd7z\xa0\x91\xe0\x80\x17?H'5\xe8\xe8\xe6\x10?\xd7z\xa0\x91\xe0\x80\x17?\xd7z\xa0\x91\xe0\x80\x17?H'5\xe8\xe8\xe6\x10?\xd7z\xa0\x91\xe0\x80\x17?\xd7z\xa0\x91\xe0\x80\x17?H'5\xe8\xe8\xe6\x10?H'5\xe8\xe8\xe6\x10?\xd7z\xa0\x91\xe0\x80\x17?\xd7z\xa0\x91\xe0\x80\x17?\xd7z\xa0\x91\xe0\x80\x17?\xe1]@\xa4\xeeR\x0b?\xd7z\xa0\x91\xe0\x80\x17?\xd7z\xa0\x91\xe0\x80\x17?H'5\xe8\xe8\xe6\x10?\xd7z\xa0\x91\xe0\x80\x17?\xe1]@\xa4\xeeR\x0b?\xd7z\xa0\x91\xe0\x80\x17?\xc5\xb2\xdbNmZ\x14?H'5\xe8\xe8\xe6\x10?H'5\xe8\xe8\xe6\x10?\xd7z\xa0\x91\xe0\x80\x17?\xd7z\xa0\x91\xe0\x80\x17?\xd7z\xa0\x91\xe0\x80\x17?H'5\xe8\xe8\xe6\x10?\xd7z\xa0\x91\xe0\x80\x17?H'5\xe8\xe8\xe6\x10?\xd7z\xa0\x91\xe0\x80\x17?\xd7z\xa0\x91\xe0\x80\x17?\xd7z\xa0\x91\xe0\x80\x17?S\x06G\xf8d\xf4\x1a?H'5\xe8\xe8\xe6\x10?H'5\xe8\xe8\xe6\x10?H'5\xe8\xe8\xe6\x10?H'5\xe8\xe8\xe6\x10?\xd7z\xa0\x91\xe0\x80\x17?\xd7z\xa0\x91\xe0\x80\x17?H'5\xe8\xe8\xe6\x10?H'5\xe8\xe8\xe6\x10?H'5\xe8\xe8\xe6\x10?\xd7z\xa0\x91\xe0\x80\x17?H'5\xe8\xe8\xe6\x10?H'5\xe8\xe8\xe6\x10?\xd7z\xa0\x91\xe0\x80\x17?H'5\xe8\xe8\xe6\x10?H'5\xe8\xe8\xe6\x10?H'5\xe8\xe8\xe6\x10?i\xc49\xcc\xd6)\x18?H'5\xe8\xe8\xe6\x10?\xd7z\xa0\x91\xe0\x80\x17?\xd7z\xa0\x91\xe0\x80\x17?\xd7z\xa0\x91\xe0\x80\x17?H'5\xe8\xe8\xe6\x10?\xc5\xb2\xdbNmZ\x14?\xc5\xb2\xdbNmZ\x14?\xe1]@\xa4\xeeR\x0b?H'5\xe8\xe8\xe6\x10?\xd7z\xa0\x91\xe0\x80\x17?H'5\xe8\xe8\xe6\x10?H'5\xe8\xe8\xe6\x10?H'5\xe8\xe8\xe6\x10?H'5\xe8\xe8\xe6\x10?H'5\xe8\xe8\xe6\x10?\xd7z\xa0\x91\xe0\x80\x17?\xd7z\xa0\x91\xe0\x80\x17?H'5\xe8\xe8\xe6\x10?\xd7z\xa0\x91\xe0\x80\x17?\xd7z\xa0\x91\xe0\x80\x17?H'5\xe8\xe8\xe6\x10?H'5\xe8\xe8\xe6\x10?H'5\xe8\xe8\xe6\x10?H'5\xe8\xe8\xe6\x10?\xe1]@\xa4\xeeR\x0b?H'5\xe8\xe8\xe6\x10?,}R\x1ew\xb5\x0b?H'5\xe8\xe8\xe6\x10?\xd7z\xa0\x91\xe0\x80\x17?\xd7z\xa0\x91\xe0\x80\x17?\xd7z\xa0\x91\xe0\x80\x17?\xd7z\xa0\x91\xe0\x80\x17?H'5\xe8\xe8\xe6\x10?H'5\xe8\xe8\xe6\x10?\xe1]@\xa4\xeeR\x0b?H'5\xe8\xe8\xe6\x10?H'5\xe8\xe8\xe6\x10?H'5\xe8\xe8\xe6\x10?\xd7z\xa0\x91\xe0\x80\x17?\xd7z\xa0\x91\xe0\x80\x17?\xd7z\xa0\x91\xe0\x80\x17?H'5\xe8\xe8\xe6\x10?\xd7z\xa0\x91\xe0\x80\x17?H'5\xe8\xe8\xe6\x10?\xe1]@\xa4\xeeR\x0b?H'5\xe8\xe8\xe6\x10?H'5\xe8\xe8\xe6\x10?\xe1]@\xa4\xeeR\x0b?H'5\xe8\xe8\xe6\x10?\xd7z\xa0\x91\xe0\x80\x17?H'5\xe8\xe8\xe6\x10?H'5\xe8\xe8\xe6\x10?\xd7z\xa0\x91\xe0\x80\x17?\xd7z\xa0\x91\xe0\x80\x17?\xd7z\xa0\x91\xe0\x80\x17?H'5\xe8\xe8\xe6\x10?H'5\xe8\xe8\xe6\x10?H'5\xe8\xe8\xe6\x10?H'5\xe8\xe8\xe6\x10?H'5\xe8\xe8\xe6\x10?H'5\xe8\xe8\xe6\x10?\xd7z\xa0\x91\xe0\x80\x17?\xd7z\xa0\x91\xe0\x80\x17?\xd7z\xa0\x91\xe0\x80\x17?\xd7z\xa0\x91\xe0\x80\x17?\xd7z\xa0\x91\xe0\x80\x17?H'5\xe8\xe8\xe6\x10?\xd7z\xa0\x91\xe0\x80\x17?\xd7z\xa0\x91\xe0\x80\x17?H'5\xe8\xe8\xe6\x10?\xd7z\xa0\x91\xe0\x80\x17?\xd7z\xa0\x91\xe0\x80\x17?\xd7z\xa0\x91\xe0\x80\x17?\xe1]@\xa4\xeeR\x0b?\xd7z\xa0\x91\xe0\x80\x17?H'5\xe8\xe8\xe6\x10?\xd7z\xa0\x91\xe0\x80\x17?=H\xf5\xc8\xcc\xda\x1e?\x00\x00\x00\x00\x00\x00\x00\x00\xf1+\xcbBR\xa3\x14?\xd7z\xa0\x91\xe0\x80\x17?H'5\xe8\xe8\xe6\x10?H'5\xe8\xe8\xe6\x10?\xd7z\xa0\x91\xe0\x80\x17?H'5\xe8\xe8\xe6\x10?\xd7z\xa0\x91\xe0\x80\x17?H'5\xe8\xe8\xe6\x10?\xd7z\xa0\x91\xe0\x80\x17?\xe1]@\xa4\xeeR\x0b?H'5\xe8\xe8\xe6\x10?H'5\xe8\xe8\xe6\x10?\xd7z\xa0\x91\xe0\x80\x17?H'5\xe8\xe8\xe6\x10?\xd7z\xa0\x91\xe0\x80\x17?H'5\xe8\xe8\xe6\x10?H'5\xe8\xe8\xe6\x10?H'5\xe8\xe8\xe6\x10?H'5\xe8\xe8\xe6\x10?\xd7z\xa0\x91\xe0\x80\x17?H'5\xe8\xe8\xe6\x10?\xd7z\xa0\x91\xe0\x80\x17?,}R\x1ew\xb5\x0b?\xd7z\xa0\x91\xe0\x80\x17?\xd7z\xa0\x91\xe0\x80\x17?\xe1]@\xa4\xeeR\x0b?\xd7z\xa0\x91\xe0\x80\x17?H'5\xe8\xe8\xe6\x10?\xd7z\xa0\x91\xe0\x80\x17?\xe1]@\xa4\xeeR\x0b?\xd7z\xa0\x91\xe0\x80\x17?H'5\xe8\xe8\xe6\x10?H'5\xe8\xe8\xe6\x10?H'5\xe8\xe8\xe6\x10?\xd7z\xa0\x91\xe0\x80\x17?H'5\xe8\xe8\xe6\x10?H'5\xe8\xe8\xe6\x10?H'5\xe8\xe8\xe6\x10?\xd7z\xa0\x91\xe0\x80\x17?\xd7z\xa0\x91\xe0\x80\x17?\xd7z\xa0\x91\xe0\x80\x17?\xd7z\xa0\x91\xe0\x80\x17?\xe1]@\xa4\xeeR\x0b?S\x06G\xf8d\xf4\x1a?\xd7z\xa0\x91\xe0\x80\x17?\xd7z\xa0\x91\xe0\x80\x17?S\x06G\xf8d\xf4\x1a?H'5\xe8\xe8\xe6\x10?\xd7z\xa0\x91\xe0\x80\x17?H'5\xe8\xe8\xe6\x10?\xd7z\xa0\x91\xe0\x80\x17?\xd7z\xa0\x91\xe0\x80\x17?H'5\xe8\xe8\xe6\x10?f\xce\x94A;NU?\xd7z\xa0\x91\xe0\x80\x17?\xe1]@\xa4\xeeR\x0b?H'5\xe8\xe8\xe6\x10?H'5\xe8\xe8\xe6\x10?\xd7z\xa0\x91\xe0\x80\x17?\xd7z\xa0\x91\xe0\x80\x17?\xda\xb3C\x86jg7?H'5\xe8\xe8\xe6\x10?\xd7z\xa0\x91\xe0\x80\x17?H'5\xe8\xe8\xe6\x10?\xd7z\xa0\x91\xe0\x80\x17?\xd7z\xa0\x91\xe0\x80\x17?H'5\xe8\xe8\xe6\x10?\xd7z\xa0\x91\xe0\x80\x17?H'5\xe8\xe8\xe6\x10?\xd7z\xa0\x91\xe0\x80\x17?H'5\xe8\xe8\xe6\x10?\xd7z\xa0\x91\xe0\x80\x17?H'5\xe8\xe8\xe6\x10?H'5\xe8\xe8\xe6\x10?H'5\xe8\xe8\xe6\x10?f\xce\x94A;NU?H'5\xe8\xe8\xe6\x10?\xd7z\xa0\x91\xe0\x80\x17?H'5\xe8\xe8\xe6\x10?\xd7z\xa0\x91\xe0\x80\x17?H'5\xe8\xe8\xe6\x10?\xd7z\xa0\x91\xe0\x80\x17?\x00\x00\x00\x00\x00\x00\x00\x00H'5\xe8\xe8\xe6\x10?H'5\xe8\xe8\xe6\x10?\xd7z\xa0\x91\xe0\x80\x17?H'5\xe8\xe8\xe6\x10?H'5\xe8\xe8\xe6\x10?H'5\xe8\xe8\xe6\x10?\xd7z\xa0\x91\xe0\x80\x17?H'5\xe8\xe8\xe6\x10?\xd7z\xa0\x91\xe0\x80\x17?S\x06G\xf8d\xf4\x1a?H'5\xe8\xe8\xe6\x10?H'5\xe8\xe8\xe6\x10?H'5\xe8\xe8\xe6\x10?\xd7z\xa0\x91\xe0\x80\x17?\xd7z\xa0\x91\xe0\x80\x17?H'5\xe8\xe8\xe6\x10?\xd7z\xa0\x91\xe0\x80\x17?\xe1]@\xa4\xeeR\x0b?H'5\xe8\xe8\xe6\x10?H'5\xe8\xe8\xe6\x10?H'5\xe8\xe8\xe6\x10?\xd7z\xa0\x91\xe0\x80\x17?\xd7z\xa0\x91\xe0\x80\x17?\xd7z\xa0\x91\xe0\x80\x17?\xd7z\xa0\x91\xe0\x80\x17?\xd7z\xa0\x91\xe0\x80\x17?\xd7z\xa0\x91\xe0\x80\x17?\xd7z\xa0\x91\xe0\x80\x17?\xd7z\xa0\x91\xe0\x80\x17?H'5\xe8\xe8\xe6\x10?H'5\xe8\xe8\xe6\x10?\xd7z\xa0\x91\xe0\x80\x17?H'5\xe8\xe8\xe6\x10?H'5\xe8\xe8\xe6\x10?H'5\xe8\xe8\xe6\x10?H'5\xe8\xe8\xe6\x10?\xd7z\xa0\x91\xe0\x80\x17?\xd7z\xa0\x91\xe0\x80\x17?H'5\xe8\xe8\xe6\x10?H'5\xe8\xe8\xe6\x10?\xd7z\xa0\x91\xe0\x80\x17?H'5\xe8\xe8\xe6\x10?H'5\xe8\xe8\xe6\x10?H'5\xe8\xe8\xe6\x10?\xd7z\xa0\x91\xe0\x80\x17?\xd7z\xa0\x91\xe0\x80\x17?\xd7z\xa0\x91\xe0\x80\x17?H'5\xe8\xe8\xe6\x10?H'5\xe8\xe8\xe6\x10?H'5\xe8\xe8\xe6\x10?\xd7z\xa0\x91\xe0\x80\x17?H'5\xe8\xe8\xe6\x10?H'5\xe8\xe8\xe6\x10?\xd7z\xa0\x91\xe0\x80\x17?\xd7z\xa0\x91\xe0\x80\x17?H'5\xe8\xe8\xe6\x10?H'5\xe8\xe8\xe6\x10?H'5\xe8\xe8\xe6\x10?H'5\xe8\xe8\xe6\x10?H'5\xe8\xe8\xe6\x10?\xd7z\xa0\x91\xe0\x80\x17?H'5\xe8\xe8\xe6\x10?\xd7z\xa0\x91\xe0\x80\x17?H'5\xe8\xe8\xe6\x10?H'5\xe8\xe8\xe6\x10?\xe1]@\xa4\xeeR\x0b?\xd7z\xa0\x91\xe0\x80\x17?\xd7z\xa0\x91\xe0\x80\x17?\xd7z\xa0\x91\xe0\x80\x17?\xd7z\xa0\x91\xe0\x80\x17?\xd7z\xa0\x91\xe0\x80\x17?H'5\xe8\xe8\xe6\x10?\xd7z\xa0\x91\xe0\x80\x17?H'5\xe8\xe8\xe6\x10?\xd7z\xa0\x91\xe0\x80\x17?H'5\xe8\xe8\xe6\x10?H'5\xe8\xe8\xe6\x10?H'5\xe8\xe8\xe6\x10?\xd7z\xa0\x91\xe0\x80\x17?H'5\xe8\xe8\xe6\x10?H'5\xe8\xe8\xe6\x10?H'5\xe8\xe8\xe6\x10?\xd7z\xa0\x91\xe0\x80\x17?\xd7z\xa0\x91\xe0\x80\x17?\xd7z\xa0\x91\xe0\x80\x17?H'5\xe8\xe8\xe6\x10?\xd7z\xa0\x91\xe0\x80\x17?\xe1]@\xa4\xeeR\x0b?\xd7z\xa0\x91\xe0\x80\x17?H'5\xe8\xe8\xe6\x10?H'5\xe8\xe8\xe6\x10?\xd7z\xa0\x91\xe0\x80\x17?\xd7z\xa0\x91\xe0\x80\x17?\xd7z\xa0\x91\xe0\x80\x17?H'5\xe8\xe8\xe6\x10?\xd7z\xa0\x91\xe0\x80\x17?H'5\xe8\xe8\xe6\x10?\xd7z\xa0\x91\xe0\x80\x17?\xd7z\xa0\x91\xe0\x80\x17?H'5\xe8\xe8\xe6\x10?H'5\xe8\xe8\xe6\x10?\xd7z\xa0\x91\xe0\x80\x17?\xd7z\xa0\x91\xe0\x80\x17?H'5\xe8\xe8\xe6\x10?\xd7z\xa0\x91\xe0\x80\x17?\xd7z\xa0\x91\xe0\x80\x17?H'5\xe8\xe8\xe6\x10?H'5\xe8\xe8\xe6\x10?H'5\xe8\xe8\xe6\x10?H'5\xe8\xe8\xe6\x10?\xe1]@\xa4\xeeR\x0b?\xd7z\xa0\x91\xe0\x80\x17?H'5\xe8\xe8\xe6\x10?H'5\xe8\xe8\xe6\x10?\xd7z\xa0\x91\xe0\x80\x17?H'5\xe8\xe8\xe6\x10?H'5\xe8\xe8\xe6\x10?\xd7z\xa0\x91\xe0\x80\x17?\xd7z\xa0\x91\xe0\x80\x17?\xd7z\xa0\x91\xe0\x80\x17?H'5\xe8\xe8\xe6\x10?H'5\xe8\xe8\xe6\x10?H'5\xe8\xe8\xe6\x10?\xd7z\xa0\x91\xe0\x80\x17?\xe1]@\xa4\xeeR\x0b?H'5\xe8\xe8\xe6\x10?\xd7z\xa0\x91\xe0\x80\x17?\xd7z\xa0\x91\xe0\x80\x17?\xd7z\xa0\x91\xe0\x80\x17?H'5\xe8\xe8\xe6\x10?\x17\xfa\xc0A\xeb\xf32\xbff\xce\x94A;NU?f\xce\x94A;NU?\xc5\xb2\xdbNmZ\x14?H'5\xe8\xe8\xe6\x10?f\xce\x94A;NU?H'5\xe8\xe8\xe6\x10?\xc5\xb2\xdbNmZ\x14?f\xce\x94A;NU?f\xce\x94A;NU?f\xce\x94A;NU?f\xce\x94A;NU?f\xce\x94A;NU?f\xce\x94A;NU?Y\xf5\x8dQ\xec\xae\x18\xbfY\xf5\x8dQ\xec\xae\x18\xbf\xa8\t\xee\x9e\xec\x80\x11\xbfY\xf5\x8dQ\xec\xae\x18\xbf\xa8\t\xee\x9e\xec\x80\x11\xbf\xa8\t\xee\x9e\xec\x80\x11\xbfY\xf5\x8dQ\xec\xae\x18\xbfY\xf5\x8dQ\xec\xae\x18\xbfY\xf5\x8dQ\xec\xae\x18\xbfW\xfc\x8ep\xd0\x1a\x0c\xbf\xa8\t\xee\x9e\xec\x80\x11\xbf\xa8\t\xee\x9e\xec\x80\x11\xbf\xa8\t\xee\x9e\xec\x80\x11\xbf\xa8\t\xee\x9e\xec\x80\x11\xbf\xa8\t\xee\x9e\xec\x80\x11\xbf\xa8\t\xee\x9e\xec\x80\x11\xbf\xa8\t\xee\x9e\xec\x80\x11\xbfY\xf5\x8dQ\xec\xae\x18\xbfY\xf5\x8dQ\xec\xae\x18\xbfY\xf5\x8dQ\xec\xae\x18\xbf\xa8\t\xee\x9e\xec\x80\x11\xbf\xa8\t\xee\x9e\xec\x80\x11\xbfY\xf5\x8dQ\xec\xae\x18\xbfY\xf5\x8dQ\xec\xae\x18\xbfY\xf5\x8dQ\xec\xae\x18\xbf\xa8\t\xee\x9e\xec\x80\x11\xbf\xa8\t\xee\x9e\xec\x80\x11\xbfY\xf5\x8dQ\xec\xae\x18\xbf\xa8\t\xee\x9e\xec\x80\x11\xbf\xa8\t\xee\x9e\xec\x80\x11\xbf\xa8\t\xee\x9e\xec\x80\x11\xbfY\xf5\x8dQ\xec\xae\x18\xbf\xa8\t\xee\x9e\xec\x80\x11\xbf\xe0\xe0\r\x9c\x138 \xbf\xa8\t\xee\x9e\xec\x80\x11\xbf\xa8\t\xee\x9e\xec\x80\x11\xbfY\xf5\x8dQ\xec\xae\x18\xbf\xa8\t\xee\x9e\xec\x80\x11\xbf\xa8\t\xee\x9e\xec\x80\x11\xbf\xa8\t\xee\x9e\xec\x80\x11\xbf\xa8\t\xee\x9e\xec\x80\x11\xbfY\xf5\x8dQ\xec\xae\x18\xbfY\xf5\x8dQ\xec\xae\x18\xbfY\xf5\x8dQ\xec\xae\x18\xbf\xa8\t\xee\x9e\xec\x80\x11\xbf\xa8\t\xee\x9e\xec\x80\x11\xbfY\xf5\x8dQ\xec\xae\x18\xbf\xce\x951\xa6\xa2\x84\x1c\xbf\xa8\t\xee\x9e\xec\x80\x11\xbfW\xfc\x8ep\xd0\x1a\x0c\xbf\xa8\t\xee\x9e\xec\x80\x11\xbfY\xf5\x8dQ\xec\xae\x18\xbfY\xf5\x8dQ\xec\xae\x18\xbfY\xf5\x8dQ\xec\xae\x18\xbf\xa8\t\xee\x9e\xec\x80\x11\xbfY\xf5\x8dQ\xec\xae\x18\xbf\xa8\t\xee\x9e\xec\x80\x11\xbfY\xf5\x8dQ\xec\xae\x18\xbf\xa8\t\xee\x9e\xec\x80\x11\xbfY\xf5\x8dQ\xec\xae\x18\xbf\xa8\t\xee\x9e\xec\x80\x11\xbf\xddi\xe7\xeag;\x15\xbf\xa8\t\xee\x9e\xec\x80\x11\xbf\xa8\t\xee\x9e\xec\x80\x11\xbf\xa8\t\xee\x9e\xec\x80\x11\xbfY\xf5\x8dQ\xec\xae\x18\xbf\xa8\t\xee\x9e\xec\x80\x11\xbfY\xf5\x8dQ\xec\xae\x18\xbf\xa8\t\xee\x9e\xec\x80\x11\xbfY\xf5\x8dQ\xec\xae\x18\xbfY\xf5\x8dQ\xec\xae\x18\xbf\xa8\t\xee\x9e\xec\x80\x11\xbf\xa8\t\xee\x9e\xec\x80\x11\xbf\xe0\xe0\r\x9c\x138 \xbfY\xf5\x8dQ\xec\xae\x18\xbfW\xfc\x8ep\xd0\x1a\x0c\xbf\xa8\t\xee\x9e\xec\x80\x11\xbfY\xf5\x8dQ\xec\xae\x18\xbf\xa8\t\xee\x9e\xec\x80\x11\xbf\xa8\t\xee\x9e\xec\x80\x11\xbfY\xf5\x8dQ\xec\xae\x18\xbf\xa8\t\xee\x9e\xec\x80\x11\xbf\xa8\t\xee\x9e\xec\x80\x11\xbfY\xf5\x8dQ\xec\xae\x18\xbfY\xf5\x8dQ\xec\xae\x18\xbfY\xf5\x8dQ\xec\xae\x18\xbf\xce\x951\xa6\xa2\x84\x1c\xbfY\xf5\x8dQ\xec\xae\x18\xbfY\xf5\x8dQ\xec\xae\x18\xbfY\xf5\x8dQ\xec\xae\x18\xbfY\xf5\x8dQ\xec\xae\x18\xbf\xecz\tc\xecj0?\xa8\t\xee\x9e\xec\x80\x11\xbfY\xf5\x8dQ\xec\xae\x18\xbf\xa8\t\xee\x9e\xec\x80\x11\xbf\xa8\t\xee\x9e\xec\x80\x11\xbf\xa8\t\xee\x9e\xec\x80\x11\xbf\xa8\t\xee\x9e\xec\x80\x11\xbf\xa8\t\xee\x9e\xec\x80\x11\xbfY\xf5\x8dQ\xec\xae\x18\xbf\xa8\t\xee\x9e\xec\x80\x11\xbfY\xf5\x8dQ\xec\xae\x18\xbf\xce\x951\xa6\xa2\x84\x1c\xbfY\xf5\x8dQ\xec\xae\x18\xbfY\xf5\x8dQ\xec\xae\x18\xbfY\xf5\x8dQ\xec\xae\x18\xbf\xa8\t\xee\x9e\xec\x80\x11\xbfY\xf5\x8dQ\xec\xae\x18\xbf\xa8\t\xee\x9e\xec\x80\x11\xbf1n\x0f\xb7J'\x05\xbf\xa8\t\xee\x9e\xec\x80\x11\xbfY\xf5\x8dQ\xec\xae\x18\xbf\xa8\t\xee\x9e\xec\x80\x11\xbf\xa8\t\xee\x9e\xec\x80\x11\xbf\xa8\t\xee\x9e\xec\x80\x11\xbfY\xf5\x8dQ\xec\xae\x18\xbf\xa8\t\xee\x9e\xec\x80\x11\xbf\xa8\t\xee\x9e\xec\x80\x11\xbf\xa8\t\xee\x9e\xec\x80\x11\xbfY\xf5\x8dQ\xec\xae\x18\xbf\xce\x951\xa6\xa2\x84\x1c\xbf\xa8\t\xee\x9e\xec\x80\x11\xbfY\xf5\x8dQ\xec\xae\x18\xbfY\xf5\x8dQ\xec\xae\x18\xbf\xa8\t\xee\x9e\xec\x80\x11\xbfY\xf5\x8dQ\xec\xae\x18\xbf\xa8\t\xee\x9e\xec\x80\x11\xbfY\xf5\x8dQ\xec\xae\x18\xbfY\xf5\x8dQ\xec\xae\x18\xbf\xa8\t\xee\x9e\xec\x80\x11\xbfY\xf5\x8dQ\xec\xae\x18\xbfY\xf5\x8dQ\xec\xae\x18\xbfY\xf5\x8dQ\xec\xae\x18\xbf\xa8\t\xee\x9e\xec\x80\x11\xbf\xa8\t\xee\x9e\xec\x80\x11\xbfY\xf5\x8dQ\xec\xae\x18\xbfY\xf5\x8dQ\xec\xae\x18\xbf\xe0\xe0\r\x9c\x138 \xbfY\xf5\x8dQ\xec\xae\x18\xbfY\xf5\x8dQ\xec\xae\x18\xbf\xbb\xceq\xc9\xdf\n\x19\xbf\xa8\t\xee\x9e\xec\x80\x11\xbfY\xf5\x8dQ\xec\xae\x18\xbf\xa8\t\xee\x9e\xec\x80\x11\xbfW\xfc\x8ep\xd0\x1a\x0c\xbf\xa8\t\xee\x9e\xec\x80\x11\xbfY\xf5\x8dQ\xec\xae\x18\xbfY\xf5\x8dQ\xec\xae\x18\xbf\xa8\t\xee\x9e\xec\x80\x11\xbfY\xf5\x8dQ\xec\xae\x18\xbfY\xf5\x8dQ\xec\xae\x18\xbf\xa8\t\xee\x9e\xec\x80\x11\xbf\xa8\t\xee\x9e\xec\x80\x11\xbf\xa8\t\xee\x9e\xec\x80\x11\xbf\xa8\t\xee\x9e\xec\x80\x11\xbfY\xf5\x8dQ\xec\xae\x18\xbfY\xf5\x8dQ\xec\xae\x18\xbfY\xf5\x8dQ\xec\xae\x18\xbf\xa8\t\xee\x9e\xec\x80\x11\xbf\xa8\t\xee\x9e\xec\x80\x11\xbfY\xf5\x8dQ\xec\xae\x18\xbfY\xf5\x8dQ\xec\xae\x18\xbf\xa8\t\xee\x9e\xec\x80\x11\xbf\xa8\t\xee\x9e\xec\x80\x11\xbf\xa8\t\xee\x9e\xec\x80\x11\xbf\xa8\t\xee\x9e\xec\x80\x11\xbf\xa8\t\xee\x9e\xec\x80\x11\xbf\xa8\t\xee\x9e\xec\x80\x11\xbf\xa8\t\xee\x9e\xec\x80\x11\xbfY\xf5\x8dQ\xec\xae\x18\xbf\xa8\t\xee\x9e\xec\x80\x11\xbfY\xf5\x8dQ\xec\xae\x18\xbf\xa8\t\xee\x9e\xec\x80\x11\xbf\xa8\t\xee\x9e\xec\x80\x11\xbfY\xf5\x8dQ\xec\xae\x18\xbfY\xf5\x8dQ\xec\xae\x18\xbfY\xf5\x8dQ\xec\xae\x18\xbfY\xf5\x8dQ\xec\xae\x18\xbf\xa8\t\xee\x9e\xec\x80\x11\xbf\xe0\xe0\r\x9c\x138 \xbf\xa8\t\xee\x9e\xec\x80\x11\xbfW\xfc\x8ep\xd0\x1a\x0c\xbf\xa8\t\xee\x9e\xec\x80\x11\xbf\xa8\t\xee\x9e\xec\x80\x11\xbfY\xf5\x8dQ\xec\xae\x18\xbfY\xf5\x8dQ\xec\xae\x18\xbf\xa8\t\xee\x9e\xec\x80\x11\xbf\xa8\t\xee\x9e\xec\x80\x11\xbf\xa8\t\xee\x9e\xec\x80\x11\xbf\xa8\t\xee\x9e\xec\x80\x11\xbfY\xf5\x8dQ\xec\xae\x18\xbf\xa8\t\xee\x9e\xec\x80\x11\xbf\xa8\t\xee\x9e\xec\x80\x11\xbfY\xf5\x8dQ\xec\xae\x18\xbf\xa8\t\xee\x9e\xec\x80\x11\xbf\xa8\t\xee\x9e\xec\x80\x11\xbfY\xf5\x8dQ\xec\xae\x18\xbf\xa8\t\xee\x9e\xec\x80\x11\xbfY\xf5\x8dQ\xec\xae\x18\xbf\xa8\t\xee\x9e\xec\x80\x11\xbf\xa8\t\xee\x9e\xec\x80\x11\xbf\xa8\t\xee\x9e\xec\x80\x11\xbf\xa8\t\xee\x9e\xec\x80\x11\xbf\xa8\t\xee\x9e\xec\x80\x11\xbf\xa8\t\xee\x9e\xec\x80\x11\xbf\xa8\t\xee\x9e\xec\x80\x11\xbfY\xf5\x8dQ\xec\xae\x18\xbfY\xf5\x8dQ\xec\xae\x18\xbf\xa8\t\xee\x9e\xec\x80\x11\xbfY\xf5\x8dQ\xec\xae\x18\xbf\xa8\t\xee\x9e\xec\x80\x11\xbfY\xf5\x8dQ\xec\xae\x18\xbfY\xf5\x8dQ\xec\xae\x18\xbf\xa8\t\xee\x9e\xec\x80\x11\xbf\xa8\t\xee\x9e\xec\x80\x11\xbfY\xf5\x8dQ\xec\xae\x18\xbfY\xf5\x8dQ\xec\xae\x18\xbfW\xfc\x8ep\xd0\x1a\x0c\xbf\xa8\t\xee\x9e\xec\x80\x11\xbf\xa8\t\xee\x9e\xec\x80\x11\xbfW\xfc\x8ep\xd0\x1a\x0c\xbf\xa8\t\xee\x9e\xec\x80\x11\xbf\xa8\t\xee\x9e\xec\x80\x11\xbf\xa8\t\xee\x9e\xec\x80\x11\xbfY\xf5\x8dQ\xec\xae\x18\xbf\xa8\t\xee\x9e\xec\x80\x11\xbf\xa8\t\xee\x9e\xec\x80\x11\xbfY\xf5\x8dQ\xec\xae\x18\xbfY\xf5\x8dQ\xec\xae\x18\xbf\xa8\t\xee\x9e\xec\x80\x11\xbfY\xf5\x8dQ\xec\xae\x18\xbfY\xf5\x8dQ\xec\xae\x18\xbf\xa8\t\xee\x9e\xec\x80\x11\xbfY\xf5\x8dQ\xec\xae\x18\xbfY\xf5\x8dQ\xec\xae\x18\xbfY\xf5\x8dQ\xec\xae\x18\xbf\xa8\t\xee\x9e\xec\x80\x11\xbfW\xfc\x8ep\xd0\x1a\x0c\xbf\xa8\t\xee\x9e\xec\x80\x11\xbfW\xfc\x8ep\xd0\x1a\x0c\xbfY\xf5\x8dQ\xec\xae\x18\xbf\xa8\t\xee\x9e\xec\x80\x11\xbfY\xf5\x8dQ\xec\xae\x18\xbf\xa8\t\xee\x9e\xec\x80\x11\xbfW\xfc\x8ep\xd0\x1a\x0c\xbfY\xf5\x8dQ\xec\xae\x18\xbfW\xfc\x8ep\xd0\x1a\x0c\xbfY\xf5\x8dQ\xec\xae\x18\xbfW\xfc\x8ep\xd0\x1a\x0c\xbf\xa8\t\xee\x9e\xec\x80\x11\xbfY\xf5\x8dQ\xec\xae\x18\xbf\xa8\t\xee\x9e\xec\x80\x11\xbf\xa8\t\xee\x9e\xec\x80\x11\xbf\xa8\t\xee\x9e\xec\x80\x11\xbf\xa8\t\xee\x9e\xec\x80\x11\xbfW\xfc\x8ep\xd0\x1a\x0c\xbfY\xf5\x8dQ\xec\xae\x18\xbf\xa8\t\xee\x9e\xec\x80\x11\xbf\xa8\t\xee\x9e\xec\x80\x11\xbf\xa8\t\xee\x9e\xec\x80\x11\xbfY\xf5\x8dQ\xec\xae\x18\xbf\xa8\t\xee\x9e\xec\x80\x11\xbf\xa8\t\xee\x9e\xec\x80\x11\xbf\xa8\t\xee\x9e\xec\x80\x11\xbf\xa8\t\xee\x9e\xec\x80\x11\xbf\xa8\t\xee\x9e\xec\x80\x11\xbfY\xf5\x8dQ\xec\xae\x18\xbf\xa8\t\xee\x9e\xec\x80\x11\xbf\xa8\t\xee\x9e\xec\x80\x11\xbfY\xf5\x8dQ\xec\xae\x18\xbf\xa8\t\xee\x9e\xec\x80\x11\xbf\xa8\t\xee\x9e\xec\x80\x11\xbfY\xf5\x8dQ\xec\xae\x18\xbfY\xf5\x8dQ\xec\xae\x18\xbf\xa8\t\xee\x9e\xec\x80\x11\xbf\xa8\t\xee\x9e\xec\x80\x11\xbfY\xf5\x8dQ\xec\xae\x18\xbfY\xf5\x8dQ\xec\xae\x18\xbfY\xf5\x8dQ\xec\xae\x18\xbfY\xf5\x8dQ\xec\xae\x18\xbf\xa8\t\xee\x9e\xec\x80\x11\xbfY\xf5\x8dQ\xec\xae\x18\xbf\xa8\t\xee\x9e\xec\x80\x11\xbf\xa8\t\xee\x9e\xec\x80\x11\xbf\xa8\t\xee\x9e\xec\x80\x11\xbf\xa8\t\xee\x9e\xec\x80\x11\xbfY\xf5\x8dQ\xec\xae\x18\xbf\xa8\t\xee\x9e\xec\x80\x11\xbfY\xf5\x8dQ\xec\xae\x18\xbfY\xf5\x8dQ\xec\xae\x18\xbfY\xf5\x8dQ\xec\xae\x18\xbf\xa8\t\xee\x9e\xec\x80\x11\xbf\xa8\t\xee\x9e\xec\x80\x11\xbf\xa8\t\xee\x9e\xec\x80\x11\xbfY\xf5\x8dQ\xec\xae\x18\xbfY\xf5\x8dQ\xec\xae\x18\xbfY\xf5\x8dQ\xec\xae\x18\xbfY\xf5\x8dQ\xec\xae\x18\xbfY\xf5\x8dQ\xec\xae\x18\xbf\xa8\t\xee\x9e\xec\x80\x11\xbf\xa8\t\xee\x9e\xec\x80\x11\xbfY\xf5\x8dQ\xec\xae\x18\xbf1n\x0f\xb7J'\x05\xbfY\xf5\x8dQ\xec\xae\x18\xbf\xa8\t\xee\x9e\xec\x80\x11\xbfW\xfc\x8ep\xd0\x1a\x0c\xbf\xa8\t\xee\x9e\xec\x80\x11\xbf\xca\xa2'\x0e\xa5\xc1\x11\xbf\xa8\t\xee\x9e\xec\x80\x11\xbfY\xf5\x8dQ\xec\xae\x18\xbf\xa8\t\xee\x9e\xec\x80\x11\xbfY\xf5\x8dQ\xec\xae\x18\xbfY\xf5\x8dQ\xec\xae\x18\xbfY\xf5\x8dQ\xec\xae\x18\xbf\xa8\t\xee\x9e\xec\x80\x11\xbfW\xfc\x8ep\xd0\x1a\x0c\xbf\xa8\t\xee\x9e\xec\x80\x11\xbf\xa8\t\xee\x9e\xec\x80\x11\xbfY\xf5\x8dQ\xec\xae\x18\xbf\xa8\t\xee\x9e\xec\x80\x11\xbf\xce\x951\xa6\xa2\x84\x1c\xbf\xe0\xe0\r\x9c\x138 \xbf\x94Eo\xf1Eh\xec\xbe\xa8\t\xee\x9e\xec\x80\x11\xbfY\xf5\x8dQ\xec\xae\x18\xbf\xa8\t\xee\x9e\xec\x80\x11\xbf\xa8\t\xee\x9e\xec\x80\x11\xbfY\xf5\x8dQ\xec\xae\x18\xbf\xddi\xe7\xeag;\x15\xbf\xa8\t\xee\x9e\xec\x80\x11\xbfY\xf5\x8dQ\xec\xae\x18\xbfY\xf5\x8dQ\xec\xae\x18\xbf\xa8\t\xee\x9e\xec\x80\x11\xbfY\xf5\x8dQ\xec\xae\x18\xbf\xa8\t\xee\x9e\xec\x80\x11\xbf\xa8\t\xee\x9e\xec\x80\x11\xbf\xa8\t\xee\x9e\xec\x80\x11\xbf\xa8\t\xee\x9e\xec\x80\x11\xbf\xa8\t\xee\x9e\xec\x80\x11\xbfY\xf5\x8dQ\xec\xae\x18\xbf\xa8\t\xee\x9e\xec\x80\x11\xbf\xa8\t\xee\x9e\xec\x80\x11\xbfY\xf5\x8dQ\xec\xae\x18\xbf\xa8\t\xee\x9e\xec\x80\x11\xbf\xa8\t\xee\x9e\xec\x80\x11\xbfY\xf5\x8dQ\xec\xae\x18\xbfY\xf5\x8dQ\xec\xae\x18\xbf\xa8\t\xee\x9e\xec\x80\x11\xbfY\xf5\x8dQ\xec\xae\x18\xbfY\xf5\x8dQ\xec\xae\x18\xbfY\xf5\x8dQ\xec\xae\x18\xbf\xa8\t\xee\x9e\xec\x80\x11\xbfY\xf5\x8dQ\xec\xae\x18\xbfY\xf5\x8dQ\xec\xae\x18\xbfW\xfc\x8ep\xd0\x1a\x0c\xbfY\xf5\x8dQ\xec\xae\x18\xbf\xa8\t\xee\x9e\xec\x80\x11\xbf\xa8\t\xee\x9e\xec\x80\x11\xbf\xa8\t\xee\x9e\xec\x80\x11\xbfY\xf5\x8dQ\xec\xae\x18\xbf\xa8\t\xee\x9e\xec\x80\x11\xbf\xa8\t\xee\x9e\xec\x80\x11\xbf\xa8\t\xee\x9e\xec\x80\x11\xbfY\xf5\x8dQ\xec\xae\x18\xbfY\xf5\x8dQ\xec\xae\x18\xbfY\xf5\x8dQ\xec\xae\x18\xbfY\xf5\x8dQ\xec\xae\x18\xbfY\xf5\x8dQ\xec\xae\x18\xbf\xa8\t\xee\x9e\xec\x80\x11\xbf\xa8\t\xee\x9e\xec\x80\x11\xbfY\xf5\x8dQ\xec\xae\x18\xbff\xce\x94A;NU?Y\xf5\x8dQ\xec\xae\x18\xbfY\xf5\x8dQ\xec\xae\x18\xbfY\xf5\x8dQ\xec\xae\x18\xbfY\xf5\x8dQ\xec\xae\x18\xbfY\xf5\x8dQ\xec\xae\x18\xbf\xa8\t\xee\x9e\xec\x80\x11\xbf\xa8\t\xee\x9e\xec\x80\x11\xbf\xa8\t\xee\x9e\xec\x80\x11\xbfY\xf5\x8dQ\xec\xae\x18\xbf\xa8\t\xee\x9e\xec\x80\x11\xbfY\xf5\x8dQ\xec\xae\x18\xbfY\xf5\x8dQ\xec\xae\x18\xbfY\xf5\x8dQ\xec\xae\x18\xbf\xa8\t\xee\x9e\xec\x80\x11\xbf\xa8\t\xee\x9e\xec\x80\x11\xbf\xa8\t\xee\x9e\xec\x80\x11\xbfY\xf5\x8dQ\xec\xae\x18\xbf\xa8\t\xee\x9e\xec\x80\x11\xbfY\xf5\x8dQ\xec\xae\x18\xbf\xa8\t\xee\x9e\xec\x80\x11\xbfY\xf5\x8dQ\xec\xae\x18\xbfY\xf5\x8dQ\xec\xae\x18\xbfY\xf5\x8dQ\xec\xae\x18\xbf\xa8\t\xee\x9e\xec\x80\x11\xbf\xa8\t\xee\x9e\xec\x80\x11\xbfY\xf5\x8dQ\xec\xae\x18\xbf\xa8\t\xee\x9e\xec\x80\x11\xbf\xa8\t\xee\x9e\xec\x80\x11\xbfY\xf5\x8dQ\xec\xae\x18\xbf\xa8\t\xee\x9e\xec\x80\x11\xbfY\xf5\x8dQ\xec\xae\x18\xbf\xe0\xe0\r\x9c\x138 \xbf\xa8\t\xee\x9e\xec\x80\x11\xbf\xa8\t\xee\x9e\xec\x80\x11\xbf\xa8\t\xee\x9e\xec\x80\x11\xbf\xa8\t\xee\x9e\xec\x80\x11\xbf\xa8\t\xee\x9e\xec\x80\x11\xbf\xa8\t\xee\x9e\xec\x80\x11\xbf\xa8\t\xee\x9e\xec\x80\x11\xbf\xa8\t\xee\x9e\xec\x80\x11\xbf\xa8\t\xee\x9e\xec\x80\x11\xbf\xa8\t\xee\x9e\xec\x80\x11\xbf\xa8\t\xee\x9e\xec\x80\x11\xbfY\xf5\x8dQ\xec\xae\x18\xbfY\xf5\x8dQ\xec\xae\x18\xbfY\xf5\x8dQ\xec\xae\x18\xbf\x00\x00\x00\x00\x00\x00\x00\x00Y\xf5\x8dQ\xec\xae\x18\xbf\xa8\t\xee\x9e\xec\x80\x11\xbfY\xf5\x8dQ\xec\xae\x18\xbf\xe0\xe0\r\x9c\x138 \xbf\xbb\xceq\xc9\xdf\n\x19\xbf\xa8\t\xee\x9e\xec\x80\x11\xbfY\xf5\x8dQ\xec\xae\x18\xbfW\xfc\x8ep\xd0\x1a\x0c\xbfY\xf5\x8dQ\xec\xae\x18\xbf\xa8\t\xee\x9e\xec\x80\x11\xbfY\xf5\x8dQ\xec\xae\x18\xbfY\xf5\x8dQ\xec\xae\x18\xbf\xa8\t\xee\x9e\xec\x80\x11\xbfY\xf5\x8dQ\xec\xae\x18\xbfY\xf5\x8dQ\xec\xae\x18\xbf\xa8\t\xee\x9e\xec\x80\x11\xbf\xa8\t\xee\x9e\xec\x80\x11\xbfY\xf5\x8dQ\xec\xae\x18\xbfY\xf5\x8dQ\xec\xae\x18\xbfY\xf5\x8dQ\xec\xae\x18\xbfW\xfc\x8ep\xd0\x1a\x0c\xbfY\xf5\x8dQ\xec\xae\x18\xbfY\xf5\x8dQ\xec\xae\x18\xbf\xa8\t\xee\x9e\xec\x80\x11\xbfY\xf5\x8dQ\xec\xae\x18\xbfW\xfc\x8ep\xd0\x1a\x0c\xbfY\xf5\x8dQ\xec\xae\x18\xbf\xddi\xe7\xeag;\x15\xbf\xa8\t\xee\x9e\xec\x80\x11\xbf\xa8\t\xee\x9e\xec\x80\x11\xbfY\xf5\x8dQ\xec\xae\x18\xbfY\xf5\x8dQ\xec\xae\x18\xbfY\xf5\x8dQ\xec\xae\x18\xbf\xa8\t\xee\x9e\xec\x80\x11\xbfY\xf5\x8dQ\xec\xae\x18\xbf\xa8\t\xee\x9e\xec\x80\x11\xbfY\xf5\x8dQ\xec\xae\x18\xbfY\xf5\x8dQ\xec\xae\x18\xbfY\xf5\x8dQ\xec\xae\x18\xbf\xce\x951\xa6\xa2\x84\x1c\xbf\xa8\t\xee\x9e\xec\x80\x11\xbf\xa8\t\xee\x9e\xec\x80\x11\xbf\xa8\t\xee\x9e\xec\x80\x11\xbf\xa8\t\xee\x9e\xec\x80\x11\xbfY\xf5\x8dQ\xec\xae\x18\xbfY\xf5\x8dQ\xec\xae\x18\xbf\xa8\t\xee\x9e\xec\x80\x11\xbf\xa8\t\xee\x9e\xec\x80\x11\xbf\xa8\t\xee\x9e\xec\x80\x11\xbfY\xf5\x8dQ\xec\xae\x18\xbf\xa8\t\xee\x9e\xec\x80\x11\xbf\xa8\t\xee\x9e\xec\x80\x11\xbfY\xf5\x8dQ\xec\xae\x18\xbf\xa8\t\xee\x9e\xec\x80\x11\xbf\xa8\t\xee\x9e\xec\x80\x11\xbf\xa8\t\xee\x9e\xec\x80\x11\xbfZ\xf3\xc1\x9a\x8ai\x19\xbf\xa8\t\xee\x9e\xec\x80\x11\xbfY\xf5\x8dQ\xec\xae\x18\xbfY\xf5\x8dQ\xec\xae\x18\xbfY\xf5\x8dQ\xec\xae\x18\xbf\xa8\t\xee\x9e\xec\x80\x11\xbf\xddi\xe7\xeag;\x15\xbf\xddi\xe7\xeag;\x15\xbfW\xfc\x8ep\xd0\x1a\x0c\xbf\xa8\t\xee\x9e\xec\x80\x11\xbfY\xf5\x8dQ\xec\xae\x18\xbf\xa8\t\xee\x9e\xec\x80\x11\xbf\xa8\t\xee\x9e\xec\x80\x11\xbf\xa8\t\xee\x9e\xec\x80\x11\xbf\xa8\t\xee\x9e\xec\x80\x11\xbf\xa8\t\xee\x9e\xec\x80\x11\xbfY\xf5\x8dQ\xec\xae\x18\xbfY\xf5\x8dQ\xec\xae\x18\xbf\xa8\t\xee\x9e\xec\x80\x11\xbfY\xf5\x8dQ\xec\xae\x18\xbfY\xf5\x8dQ\xec\xae\x18\xbf\xa8\t\xee\x9e\xec\x80\x11\xbf\xa8\t\xee\x9e\xec\x80\x11\xbf\xa8\t\xee\x9e\xec\x80\x11\xbf\xa8\t\xee\x9e\xec\x80\x11\xbfW\xfc\x8ep\xd0\x1a\x0c\xbf\xa8\t\xee\x9e\xec\x80\x11\xbf\xb8\xd9x\xf4\x19\x83\x0c\xbf\xa8\t\xee\x9e\xec\x80\x11\xbfY\xf5\x8dQ\xec\xae\x18\xbfY\xf5\x8dQ\xec\xae\x18\xbfY\xf5\x8dQ\xec\xae\x18\xbfY\xf5\x8dQ\xec\xae\x18\xbf\xa8\t\xee\x9e\xec\x80\x11\xbf\xa8\t\xee\x9e\xec\x80\x11\xbfW\xfc\x8ep\xd0\x1a\x0c\xbf\xa8\t\xee\x9e\xec\x80\x11\xbf\xa8\t\xee\x9e\xec\x80\x11\xbf\xa8\t\xee\x9e\xec\x80\x11\xbfY\xf5\x8dQ\xec\xae\x18\xbfY\xf5\x8dQ\xec\xae\x18\xbfY\xf5\x8dQ\xec\xae\x18\xbf\xa8\t\xee\x9e\xec\x80\x11\xbfY\xf5\x8dQ\xec\xae\x18\xbf\xa8\t\xee\x9e\xec\x80\x11\xbfW\xfc\x8ep\xd0\x1a\x0c\xbf\xa8\t\xee\x9e\xec\x80\x11\xbf\xa8\t\xee\x9e\xec\x80\x11\xbfW\xfc\x8ep\xd0\x1a\x0c\xbf\xa8\t\xee\x9e\xec\x80\x11\xbfY\xf5\x8dQ\xec\xae\x18\xbf\xa8\t\xee\x9e\xec\x80\x11\xbf\xa8\t\xee\x9e\xec\x80\x11\xbfY\xf5\x8dQ\xec\xae\x18\xbfY\xf5\x8dQ\xec\xae\x18\xbfY\xf5\x8dQ\xec\xae\x18\xbf\xa8\t\xee\x9e\xec\x80\x11\xbf\xa8\t\xee\x9e\xec\x80\x11\xbf\xa8\t\xee\x9e\xec\x80\x11\xbf\xa8\t\xee\x9e\xec\x80\x11\xbf\xa8\t\xee\x9e\xec\x80\x11\xbf\xa8\t\xee\x9e\xec\x80\x11\xbfY\xf5\x8dQ\xec\xae\x18\xbfY\xf5\x8dQ\xec\xae\x18\xbfY\xf5\x8dQ\xec\xae\x18\xbfY\xf5\x8dQ\xec\xae\x18\xbfY\xf5\x8dQ\xec\xae\x18\xbf\xa8\t\xee\x9e\xec\x80\x11\xbfY\xf5\x8dQ\xec\xae\x18\xbfY\xf5\x8dQ\xec\xae\x18\xbf\xa8\t\xee\x9e\xec\x80\x11\xbfY\xf5\x8dQ\xec\xae\x18\xbfY\xf5\x8dQ\xec\xae\x18\xbfY\xf5\x8dQ\xec\xae\x18\xbfW\xfc\x8ep\xd0\x1a\x0c\xbfY\xf5\x8dQ\xec\xae\x18\xbf\xa8\t\xee\x9e\xec\x80\x11\xbfY\xf5\x8dQ\xec\xae\x18\xbfX\xdf*\xe5\xb8\xe4L?\xddi\xe7\xeag;\x15\xbf\xcd\x98\x86\xb5\xc7\x8a\x15\xbfY\xf5\x8dQ\xec\xae\x18\xbf\xa8\t\xee\x9e\xec\x80\x11\xbf\xa8\t\xee\x9e\xec\x80\x11\xbfY\xf5\x8dQ\xec\xae\x18\xbf\xa8\t\xee\x9e\xec\x80\x11\xbfY\xf5\x8dQ\xec\xae\x18\xbf\xa8\t\xee\x9e\xec\x80\x11\xbfY\xf5\x8dQ\xec\xae\x18\xbfW\xfc\x8ep\xd0\x1a\x0c\xbf\xa8\t\xee\x9e\xec\x80\x11\xbf\xa8\t\xee\x9e\xec\x80\x11\xbfY\xf5\x8dQ\xec\xae\x18\xbf\xa8\t\xee\x9e\xec\x80\x11\xbfY\xf5\x8dQ\xec\xae\x18\xbf\xa8\t\xee\x9e\xec\x80\x11\xbf\xa8\t\xee\x9e\xec\x80\x11\xbf\xa8\t\xee\x9e\xec\x80\x11\xbf\xa8\t\xee\x9e\xec\x80\x11\xbfY\xf5\x8dQ\xec\xae\x18\xbf\xa8\t\xee\x9e\xec\x80\x11\xbfY\xf5\x8dQ\xec\xae\x18\xbf\xb8\xd9x\xf4\x19\x83\x0c\xbfY\xf5\x8dQ\xec\xae\x18\xbfY\xf5\x8dQ\xec\xae\x18\xbfW\xfc\x8ep\xd0\x1a\x0c\xbfY\xf5\x8dQ\xec\xae\x18\xbf\xa8\t\xee\x9e\xec\x80\x11\xbfY\xf5\x8dQ\xec\xae\x18\xbfW\xfc\x8ep\xd0\x1a\x0c\xbfY\xf5\x8dQ\xec\xae\x18\xbf\xa8\t\xee\x9e\xec\x80\x11\xbf\xa8\t\xee\x9e\xec\x80\x11\xbf\xa8\t\xee\x9e\xec\x80\x11\xbfY\xf5\x8dQ\xec\xae\x18\xbf\xa8\t\xee\x9e\xec\x80\x11\xbf\xa8\t\xee\x9e\xec\x80\x11\xbf\xa8\t\xee\x9e\xec\x80\x11\xbfY\xf5\x8dQ\xec\xae\x18\xbfY\xf5\x8dQ\xec\xae\x18\xbfY\xf5\x8dQ\xec\xae\x18\xbfY\xf5\x8dQ\xec\xae\x18\xbfW\xfc\x8ep\xd0\x1a\x0c\xbf\xce\x951\xa6\xa2\x84\x1c\xbfY\xf5\x8dQ\xec\xae\x18\xbfY\xf5\x8dQ\xec\xae\x18\xbf\xce\x951\xa6\xa2\x84\x1c\xbf\xa8\t\xee\x9e\xec\x80\x11\xbfY\xf5\x8dQ\xec\xae\x18\xbf\xa8\t\xee\x9e\xec\x80\x11\xbfY\xf5\x8dQ\xec\xae\x18\xbfY\xf5\x8dQ\xec\xae\x18\xbf\xa8\t\xee\x9e\xec\x80\x11\xbf\xa8\t\xee\x9e\xec\x80\x11\xbfY\xf5\x8dQ\xec\xae\x18\xbfW\xfc\x8ep\xd0\x1a\x0c\xbf\xa8\t\xee\x9e\xec\x80\x11\xbf\xa8\t\xee\x9e\xec\x80\x11\xbfY\xf5\x8dQ\xec\xae\x18\xbfY\xf5\x8dQ\xec\xae\x18\xbfi\xce\x94A;NU?\xa8\t\xee\x9e\xec\x80\x11\xbfY\xf5\x8dQ\xec\xae\x18\xbf\xa8\t\xee\x9e\xec\x80\x11\xbfY\xf5\x8dQ\xec\xae\x18\xbfY\xf5\x8dQ\xec\xae\x18\xbf\xa8\t\xee\x9e\xec\x80\x11\xbfY\xf5\x8dQ\xec\xae\x18\xbf\xa8\t\xee\x9e\xec\x80\x11\xbfY\xf5\x8dQ\xec\xae\x18\xbf\xa8\t\xee\x9e\xec\x80\x11\xbfY\xf5\x8dQ\xec\xae\x18\xbf\xa8\t\xee\x9e\xec\x80\x11\xbf\xa8\t\xee\x9e\xec\x80\x11\xbf\xa8\t\xee\x9e\xec\x80\x11\xbf\xa8\t\xee\x9e\xec\x80\x11\xbf\xa8\t\xee\x9e\xec\x80\x11\xbfY\xf5\x8dQ\xec\xae\x18\xbf\xa8\t\xee\x9e\xec\x80\x11\xbfY\xf5\x8dQ\xec\xae\x18\xbf\xa8\t\xee\x9e\xec\x80\x11\xbfY\xf5\x8dQ\xec\xae\x18\xbf\xddi\xe7\xeag;\x15\xbf\xa8\t\xee\x9e\xec\x80\x11\xbf\xa8\t\xee\x9e\xec\x80\x11\xbfY\xf5\x8dQ\xec\xae\x18\xbf\xa8\t\xee\x9e\xec\x80\x11\xbf\xa8\t\xee\x9e\xec\x80\x11\xbf\xa8\t\xee\x9e\xec\x80\x11\xbfY\xf5\x8dQ\xec\xae\x18\xbf\xa8\t\xee\x9e\xec\x80\x11\xbfY\xf5\x8dQ\xec\xae\x18\xbf\xce\x951\xa6\xa2\x84\x1c\xbf\xa8\t\xee\x9e\xec\x80\x11\xbf\xa8\t\xee\x9e\xec\x80\x11\xbf\xa8\t\xee\x9e\xec\x80\x11\xbfY\xf5\x8dQ\xec\xae\x18\xbfY\xf5\x8dQ\xec\xae\x18\xbf\xa8\t\xee\x9e\xec\x80\x11\xbfY\xf5\x8dQ\xec\xae\x18\xbfW\xfc\x8ep\xd0\x1a\x0c\xbf\xa8\t\xee\x9e\xec\x80\x11\xbf\xa8\t\xee\x9e\xec\x80\x11\xbf\xa8\t\xee\x9e\xec\x80\x11\xbfY\xf5\x8dQ\xec\xae\x18\xbfY\xf5\x8dQ\xec\xae\x18\xbfY\xf5\x8dQ\xec\xae\x18\xbfY\xf5\x8dQ\xec\xae\x18\xbfY\xf5\x8dQ\xec\xae\x18\xbfY\xf5\x8dQ\xec\xae\x18\xbfY\xf5\x8dQ\xec\xae\x18\xbfY\xf5\x8dQ\xec\xae\x18\xbf\xa8\t\xee\x9e\xec\x80\x11\xbf\xa8\t\xee\x9e\xec\x80\x11\xbfY\xf5\x8dQ\xec\xae\x18\xbf\xa8\t\xee\x9e\xec\x80\x11\xbf\xa8\t\xee\x9e\xec\x80\x11\xbf\xa8\t\xee\x9e\xec\x80\x11\xbf\xa8\t\xee\x9e\xec\x80\x11\xbfY\xf5\x8dQ\xec\xae\x18\xbfY\xf5\x8dQ\xec\xae\x18\xbf\xa8\t\xee\x9e\xec\x80\x11\xbf\xa8\t\xee\x9e\xec\x80\x11\xbfY\xf5\x8dQ\xec\xae\x18\xbf\xa8\t\xee\x9e\xec\x80\x11\xbf\xa8\t\xee\x9e\xec\x80\x11\xbf\xa8\t\xee\x9e\xec\x80\x11\xbfY\xf5\x8dQ\xec\xae\x18\xbfY\xf5\x8dQ\xec\xae\x18\xbfY\xf5\x8dQ\xec\xae\x18\xbf\xa8\t\xee\x9e\xec\x80\x11\xbf\xa8\t\xee\x9e\xec\x80\x11\xbf\xa8\t\xee\x9e\xec\x80\x11\xbfY\xf5\x8dQ\xec\xae\x18\xbf\xa8\t\xee\x9e\xec\x80\x11\xbf\xa8\t\xee\x9e\xec\x80\x11\xbfY\xf5\x8dQ\xec\xae\x18\xbfY\xf5\x8dQ\xec\xae\x18\xbf\xa8\t\xee\x9e\xec\x80\x11\xbf\xa8\t\xee\x9e\xec\x80\x11\xbf\xa8\t\xee\x9e\xec\x80\x11\xbf\xa8\t\xee\x9e\xec\x80\x11\xbf\xa8\t\xee\x9e\xec\x80\x11\xbfY\xf5\x8dQ\xec\xae\x18\xbf\xa8\t\xee\x9e\xec\x80\x11\xbfY\xf5\x8dQ\xec\xae\x18\xbf\xa8\t\xee\x9e\xec\x80\x11\xbf\xa8\t\xee\x9e\xec\x80\x11\xbfW\xfc\x8ep\xd0\x1a\x0c\xbfY\xf5\x8dQ\xec\xae\x18\xbff\xce\x94A;NU?Y\xf5\x8dQ\xec\xae\x18\xbfY\xf5\x8dQ\xec\xae\x18\xbfY\xf5\x8dQ\xec\xae\x18\xbf\xa8\t\xee\x9e\xec\x80\x11\xbfY\xf5\x8dQ\xec\xae\x18\xbf\xa8\t\xee\x9e\xec\x80\x11\xbfY\xf5\x8dQ\xec\xae\x18\xbf\xa8\t\xee\x9e\xec\x80\x11\xbf\xa8\t\xee\x9e\xec\x80\x11\xbf\xa8\t\xee\x9e\xec\x80\x11\xbfY\xf5\x8dQ\xec\xae\x18\xbf\xa8\t\xee\x9e\xec\x80\x11\xbf\xa8\t\xee\x9e\xec\x80\x11\xbf\xa8\t\xee\x9e\xec\x80\x11\xbfY\xf5\x8dQ\xec\xae\x18\xbfY\xf5\x8dQ\xec\xae\x18\xbfY\xf5\x8dQ\xec\xae\x18\xbf\xa8\t\xee\x9e\xec\x80\x11\xbfY\xf5\x8dQ\xec\xae\x18\xbfW\xfc\x8ep\xd0\x1a\x0c\xbfY\xf5\x8dQ\xec\xae\x18\xbf\xa8\t\xee\x9e\xec\x80\x11\xbf\xa8\t\xee\x9e\xec\x80\x11\xbfY\xf5\x8dQ\xec\xae\x18\xbfY\xf5\x8dQ\xec\xae\x18\xbfY\xf5\x8dQ\xec\xae\x18\xbf\xa8\t\xee\x9e\xec\x80\x11\xbfY\xf5\x8dQ\xec\xae\x18\xbf\xa8\t\xee\x9e\xec\x80\x11\xbfY\xf5\x8dQ\xec\xae\x18\xbfY\xf5\x8dQ\xec\xae\x18\xbf\xa8\t\xee\x9e\xec\x80\x11\xbf\xa8\t\xee\x9e\xec\x80\x11\xbfY\xf5\x8dQ\xec\xae\x18\xbfY\xf5\x8dQ\xec\xae\x18\xbf\xa8\t\xee\x9e\xec\x80\x11\xbfY\xf5\x8dQ\xec\xae\x18\xbfY\xf5\x8dQ\xec\xae\x18\xbf\xa8\t\xee\x9e\xec\x80\x11\xbf\xa8\t\xee\x9e\xec\x80\x11\xbf\xa8\t\xee\x9e\xec\x80\x11\xbf\xa8\t\xee\x9e\xec\x80\x11\xbfW\xfc\x8ep\xd0\x1a\x0c\xbfY\xf5\x8dQ\xec\xae\x18\xbf\xa8\t\xee\x9e\xec\x80\x11\xbf\xa8\t\xee\x9e\xec\x80\x11\xbfY\xf5\x8dQ\xec\xae\x18\xbf\xa8\t\xee\x9e\xec\x80\x11\xbf\xa8\t\xee\x9e\xec\x80\x11\xbfY\xf5\x8dQ\xec\xae\x18\xbfY\xf5\x8dQ\xec\xae\x18\xbfY\xf5\x8dQ\xec\xae\x18\xbf\xa8\t\xee\x9e\xec\x80\x11\xbf\xa8\t\xee\x9e\xec\x80\x11\xbf\xa8\t\xee\x9e\xec\x80\x11\xbfY\xf5\x8dQ\xec\xae\x18\xbfW\xfc\x8ep\xd0\x1a\x0c\xbf\xa8\t\xee\x9e\xec\x80\x11\xbfY\xf5\x8dQ\xec\xae\x18\xbfY\xf5\x8dQ\xec\xae\x18\xbfY\xf5\x8dQ\xec\xae\x18\xbf\xa8\t\xee\x9e\xec\x80\x11\xbff\xce\x94A;NU?f\xce\x94A;NU?f\xce\x94A;NU?Y\xf5\x8dQ\xec\xae\x18\xbff\xce\x94A;NU?\xddi\xe7\xeag;\x15\xbf\xa1\x9d\t\x01\xddu \xbf\xd5\xc2\xff\x12\x8d\xee<\xbfY\xf5\x8dQ\xec\xae\x18\xbff\xce\x94A;NU?f\xce\x94A;NU?f\xce\x94A;NU?f\xce\x94A;NU?f\xce\x94A;NU?f\xce\x94A;NU?f\xce\x94A;NU?f\xce\x94A;NU?f\xce\x94A;NU?f\xce\x94A;NU?f\xce\x94A;NU?f\xce\x94A;NU?f\xce\x94A;NU\xbff\xce\x94A;NU?\x00\x00\x00\x00\x00\x00\x00\x00f\xce\x94A;NU?f\xce\x94A;NU?f\xce\x94A;NU?f\xce\x94A;NU?f\xce\x94A;NU?f\xce\x94A;NU?f\xce\x94A;NU?f\xce\x94A;NU?f\xce\x94A;NU?f\xce\x94A;NU?f\xce\x94A;NU?f\xce\x94A;NU?f\xce\x94A;NU?f\xce\x94A;NU?f\xce\x94A;NU?f\xce\x94A;NU?f\xce\x94A;NU?f\xce\x94A;NU?f\xce\x94A;NU?f\xce\x94A;NU?e\xce\x94A;NU?\x00\x00\x00\x00\x00\x00\x00\x00f\xce\x94A;NU?f\xce\x94A;NU?Jb\xc4\xb0\n\xedH?f\xce\x94A;NU?f\xce\x94A;NU?f\xce\x94A;NU?f\xce\x94A;NU?f\xce\x94A;NU?f\xce\x94A;NU?f\xce\x94A;NU?f\xce\x94A;NU?f\xce\x94A;NU?f\xce\x94A;NU?f\xce\x94A;NU?f\xce\x94A;NU?f\xce\x94A;NU?\xadI\x8b%\x9aj6?f\xce\x94A;NU?f\xce\x94A;NU?\x00\x00\x00\x00\x00\x00\x00\x00f\xce\x94A;NU?f\xce\x94A;NU?f\xce\x94A;NU?f\xce\x94A;NU?f\xce\x94A;NU?f\xce\x94A;NU?f\xce\x94A;NU?f\xce\x94A;NU?f\xce\x94A;NU?f\xce\x94A;NU?f\xce\x94A;NU?f\xce\x94A;NU?f\xce\x94A;NU?f\xce\x94A;NU?f\xce\x94A;NU?f\xce\x94A;NU?f\xce\x94A;NU?f\xce\x94A;NU?f\xce\x94A;NU?\x81:e\xd2k\xafA?\x00\x00\x00\x00\x00\x00\x00\x00f\xce\x94A;NU\xbff\xce\x94A;NU?f\xce\x94A;NU?f\xce\x94A;NU?f\xce\x94A;NU?f\xce\x94A;NU?f\xce\x94A;NU?f\xce\x94A;NU?f\xce\x94A;NU?f\xce\x94A;NU?f\xce\x94A;NU?f\xce\x94A;NU?f\xce\x94A;NU?e\xce\x94A;NU?e\xce\x94A;NU?e\xce\x94A;NU?e\xce\x94A;NU?e\xce\x94A;NU?e\xce\x94A;NU?f\xce\x94A;NU?f\xce\x94A;NU?f\xce\x94A;NU?f\xce\x94A;NU?f\xce\x94A;NU?f\xce\x94A;NU?f\xce\x94A;NU?f\xce\x94A;NU?f\xce\x94A;NU?f\xce\x94A;NU?f\xce\x94A;NU?f\xce\x94A;NU?f\xce\x94A;NU?f\xce\x94A;NU?f\xce\x94A;NU?f\xce\x94A;NU?f\xce\x94A;NU?f\xce\x94A;NU?f\xce\x94A;NU?f\xce\x94A;NU?f\xce\x94A;NU?f\xce\x94A;NU?f\xce\x94A;NU?f\xce\x94A;NU?f\xce\x94A;NU?f\xce\x94A;NU?f\xce\x94A;NU?f\xce\x94A;NU?f\xce\x94A;NU?f\xce\x94A;NU?f\xce\x94A;NU?f\xce\x94A;NU?f\xce\x94A;NU?\x81:e\xd2k\xafA?f\xce\x94A;NU?f\xce\x94A;NU?f\xce\x94A;NU?f\xce\x94A;NU?f\xce\x94A;NU?f\xce\x94A;NU?f\xce\x94A;NU?f\xce\x94A;NU?f\xce\x94A;NU?f\xce\x94A;NU?f\xce\x94A;NU?f\xce\x94A;NU?f\xce\x94A;NU?f\xce\x94A;NU?f\xce\x94A;NU?f\xce\x94A;NU?f\xce\x94A;NU?f\xce\x94A;NU?f\xce\x94A;NU?f\xce\x94A;NU?f\xce\x94A;NU?f\xce\x94A;NU?f\xce\x94A;NU?f\xce\x94A;NU?f\xce\x94A;NU?f\xce\x94A;NU?f\xce\x94A;NU?f\xce\x94A;NU?f\xce\x94A;NU?f\xce\x94A;NU?f\xce\x94A;NU?f\xce\x94A;NU?f\xce\x94A;NU?f\xce\x94A;NU?f\xce\x94A;NU?f\xce\x94A;NU?f\xce\x94A;NU?f\xce\x94A;NU?e\xce\x94A;NU?f\xce\x94A;NU?f\xce\x94A;NU?\x81:e\xd2k\xafA?f\xce\x94A;NU?f\xce\x94A;NU?f\xce\x94A;NU?f\xce\x94A;NU?f\xce\x94A;NU?f\xce\x94A;NU?\x00\x00\x00\x00\x00\x00\x00\x00f\xce\x94A;NU?f\xce\x94A;NU?f\xce\x94A;NU?f\xce\x94A;NU?f\xce\x94A;NU?f\xce\x94A;NU?f\xce\x94A;NU?f\xce\x94A;NU?f\xce\x94A;NU?f\xce\x94A;NU?f\xce\x94A;NU?f\xce\x94A;NU?f\xce\x94A;NU?f\xce\x94A;NU?f\xce\x94A;NU?f\xce\x94A;NU?f\xce\x94A;NU?f\xce\x94A;NU?f\xce\x94A;NU?f\xce\x94A;NU?f\xce\x94A;NU?f\xce\x94A;NU?f\xce\x94A;NU?f\xce\x94A;NU?f\xce\x94A;NU?f\xce\x94A;NU?f\xce\x94A;NU?f\xce\x94A;NU?f\xce\x94A;NU?f\xce\x94A;NU?f\xce\x94A;NU?\x00\x00\x00\x00\x00\x00\x00\x00f\xce\x94A;NU?f\xce\x94A;NU?f\xce\x94A;NU?f\xce\x94A;NU?f\xce\x94A;NU?f\xce\x94A;NU?f\xce\x94A;NU?f\xce\x94A;NU?f\xce\x94A;NU?f\xce\x94A;NU?f\xce\x94A;NU?f\xce\x94A;NU?f\xce\x94A;NU?f\xce\x94A;NU?f\xce\x94A;NU?f\xce\x94A;NU?f\xce\x94A;NU?f\xce\x94A;NU?f\xce\x94A;NU?f\xce\x94A;NU?f\xce\x94A;NU?f\xce\x94A;NU?f\xce\x94A;NU?f\xce\x94A;NU?f\xce\x94A;NU?f\xce\x94A;NU?f\xce\x94A;NU?f\xce\x94A;NU?e\xce\x94A;NU?f\xce\x94A;NU?f\xce\x94A;NU?f\xce\x94A;NU?f\xce\x94A;NU?f\xce\x94A;NU?f\xce\x94A;NU?f\xce\x94A;NU?f\xce\x94A;NU?f\xce\x94A;NU?f\xce\x94A;NU?e\xce\x94A;NU?f\xce\x94A;NU?f\xce\x94A;NU?f\xce\x94A;NU?f\xce\x94A;NU?f\xce\x94A;NU?f\xce\x94A;NU?f\xce\x94A;NU?f\xce\x94A;NU?f\xce\x94A;NU?f\xce\x94A;NU?f\xce\x94A;NU?f\xce\x94A;NU?f\xce\x94A;NU?f\xce\x94A;NU?f\xce\x94A;NU?f\xce\x94A;NU?f\xce\x94A;NU?f\xce\x94A;NU?f\xce\x94A;NU?f\xce\x94A;NU?f\xce\x94A;NU?f\xce\x94A;NU?f\xce\x94A;NU?f\xce\x94A;NU?f\xce\x94A;NU?f\xce\x94A;NU?f\xce\x94A;NU?f\xce\x94A;NU?f\xce\x94A;NU?\x00\x00\x00\x00\x00\x00\x00\x00f\xce\x94A;NU?f\xce\x94A;NU?f\xce\x94A;NU?f\xce\x94A;NU?f\xce\x94A;NU?f\xce\x94A;NU?f\xce\x94A;NU?f\xce\x94A;NU?f\xce\x94A;NU?f\xce\x94A;NU?f\xce\x94A;NU?f\xce\x94A;NU?f\xce\x94A;NU?f\xce\x94A;NU?f\xce\x94A;NU?f\xce\x94A;NU?f\xce\x94A;NU?f\xce\x94A;NU?f\xce\x94A;NU?f\xce\x94A;NU?f\xce\x94A;NU?f\xce\x94A;NU?f\xce\x94A;NU?f\xce\x94A;NU?f\xce\x94A;NU?f\xce\x94A;NU?f\xce\x94A;NU?f\xce\x94A;NU?f\xce\x94A;NU?f\xce\x94A;NU?f\xce\x94A;NU?f\xce\x94A;NU?f\xce\x94A;NU?f\xce\x94A;NU?f\xce\x94A;NU?f\xce\x94A;NU?f\xce\x94A;NU?f\xce\x94A;NU?f\xce\x94A;NU?f\xce\x94A;NU?f\xce\x94A;NU?f\xce\x94A;NU?f\xce\x94A;NU?f\xce\x94A;NU?f\xce\x94A;NU?f\xce\x94A;NU?f\xce\x94A;NU?f\xce\x94A;NU?f\xce\x94A;NU?f\xce\x94A;NU?f\xce\x94A;NU?f\xce\x94A;NU?f\xce\x94A;NU?f\xce\x94A;NU?f\xce\x94A;NU?f\xce\x94A;NU?f\xce\x94A;NU?f\xce\x94A;NU?f\xce\x94A;NU?f\xce\x94A;NU?f\xce\x94A;NU?f\xce\x94A;NU?\x00\x00\x00\x00\x00\x00\x00\x00)J\xaf\xd8\x9bhs\xbff\xce\x94A;NU?f\xce\x94A;NU?f\xce\x94A;NU?f\xce\x94A;NU?f\xce\x94A;NU?f\xce\x94A;NU?f\xce\x94A;NU?f\xce\x94A;NU?f\xce\x94A;NU?f\xce\x94A;NU?f\xce\x94A;NU?f\xce\x94A;NU?f\xce\x94A;NU?f\xce\x94A;NU?f\xce\x94A;NU?f\xce\x94A;NU?f\xce\x94A;NU?f\xce\x94A;NU?f\xce\x94A;NU?f\xce\x94A;NU?f\xce\x94A;NU?f\xce\x94A;NU?f\xce\x94A;NU?f\xce\x94A;NU?f\xce\x94A;NU?f\xce\x94A;NU?f\xce\x94A;NU?f\xce\x94A;NU?f\xce\x94A;NU?\xe7z\xfd;{o;\xbff\xce\x94A;NU?Jb\xc4\xb0\n\xedH?f\xce\x94A;NU?f\xce\x94A;NU?f\xce\x94A;NU?f\xce\x94A;NU?f\xce\x94A;NU?f\xce\x94A;NU?f\xce\x94A;NU?f\xce\x94A;NU?f\xce\x94A;NU?f\xce\x94A;NU?f\xce\x94A;NU?f\xce\x94A;NU?f\xce\x94A;NU?f\xce\x94A;NU?f\xce\x94A;NU?f\xce\x94A;NU?f\xce\x94A;NU?f\xce\x94A;NU?f\xce\x94A;NU?f\xce\x94A;NU?f\xce\x94A;NU?f\xce\x94A;NU?f\xce\x94A;NU?f\xce\x94A;NU?f\xce\x94A;NU?f\xce\x94A;NU?f\xce\x94A;NU?f\xce\x94A;NU?f\xce\x94A;NU?f\xce\x94A;NU?f\xce\x94A;NU?f\xce\x94A;NU?f\xce\x94A;NU?f\xce\x94A;NU?f\xce\x94A;NU?f\xce\x94A;NU?f\xce\x94A;NU?f\xce\x94A;NU?f\xce\x94A;NU?f\xce\x94A;NU?f\xce\x94A;NU?f\xce\x94A;NU?f\xce\x94A;NU?f\xce\x94A;NU?f\xce\x94A;NU?f\xce\x94A;NU?f\xce\x94A;NU?f\xce\x94A;NU?f\xce\x94A;NU?f\xce\x94A;NU?f\xce\x94A;NU?f\xce\x94A;NU?f\xce\x94A;NU?f\xce\x94A;NU?f\xce\x94A;NU?f\xce\x94A;NU?f\xce\x94A;NU?f\xce\x94A;NU?f\xce\x94A;NU?f\xce\x94A;NU?f\xce\x94A;NU?f\xce\x94A;NU?f\xce\x94A;NU?f\xce\x94A;NU?f\xce\x94A;NU?f\xce\x94A;NU?f\xce\x94A;NU?f\xce\x94A;NU?f\xce\x94A;NU?f\xce\x94A;NU?f\xce\x94A;NU?f\xce\x94A;NU?f\xce\x94A;NU?f\xce\x94A;NU?f\xce\x94A;NU?f\xce\x94A;NU?f\xce\x94A;NU?f\xce\x94A;NU?f\xce\x94A;NU?f\xce\x94A;NU?f\xce\x94A;NU?f\xce\x94A;NU?f\xce\x94A;NU?f\xce\x94A;NU?f\xce\x94A;NU?f\xce\x94A;NU?f\xce\x94A;NU?f\xce\x94A;NU?f\xce\x94A;NU?f\xce\x94A;NU?f\xce\x94A;NU?f\xce\x94A;NU?f\xce\x94A;NU?f\xce\x94A;NU?f\xce\x94A;NU?f\xce\x94A;NU?f\xce\x94A;NU?f\xce\x94A;NU?f\xce\x94A;NU?\x00\x00\x00\x00\x00\x00\x00\x00f\xce\x94A;NU?f\xce\x94A;NU?f\xce\x94A;NU?f\xce\x94A;NU?f\xce\x94A;NU?f\xce\x94A;NU?f\xce\x94A;NU?f\xce\x94A;NU?f\xce\x94A;NU?f\xce\x94A;NU?f\xce\x94A;NU?f\xce\x94A;NU?f\xce\x94A;NU?f\xce\x94A;NU?f\xce\x94A;NU?f\xce\x94A;NU?f\xce\x94A;NU?f\xce\x94A;NU?f\xce\x94A;NU?f\xce\x94A;NU?f\xce\x94A;NU?f\xce\x94A;NU?f\xce\x94A;NU?f\xce\x94A;NU?f\xce\x94A;NU?f\xce\x94A;NU?f\xce\x94A;NU?f\xce\x94A;NU?f\xce\x94A;NU?f\xce\x94A;NU?f\xce\x94A;NU?f\xce\x94A;NU?f\xce\x94A;NU?f\xce\x94A;NU?f\xce\x94A;NU?f\xce\x94A;NU?f\xce\x94A;NU?f\xce\x94A;NU?f\xce\x94A;NU?f\xce\x94A;NU?f\xce\x94A;NU?f\xce\x94A;NU?f\xce\x94A;NU?f\xce\x94A;NU?f\xce\x94A;NU?f\xce\x94A;NU?f\xce\x94A;NU?f\xce\x94A;NU?f\xce\x94A;NU?f\xce\x94A;NU?f\xce\x94A;NU?f\xce\x94A;NU?f\xce\x94A;NU?f\xce\x94A;NU?f\xce\x94A;NU?f\xce\x94A;NU?f\xce\x94A;NU?f\xce\x94A;NU?f\xce\x94A;NU?f\xce\x94A;NU?f\xce\x94A;NU?f\xce\x94A;NU?f\xce\x94A;NU?f\xce\x94A;NU?f\xce\x94A;NU?f\xce\x94A;NU?f\xce\x94A;NU?f\xce\x94A;NU?f\xce\x94A;NU?f\xce\x94A;NU?f\xce\x94A;NU?f\xce\x94A;NU?f\xce\x94A;NU?f\xce\x94A;NU?f\xce\x94A;NU?f\xce\x94A;NU?f\xce\x94A;NU?f\xce\x94A;NU?f\xce\x94A;NU?f\xce\x94A;NU?f\xce\x94A;NU?Kb\xc4\xb0\n\xedH\xbff\xce\x94A;NU?f\xce\x94A;NU?f\xce\x94A;NU?f\xce\x94A;NU?f\xce\x94A;NU?f\xce\x94A;NU?f\xce\x94A;NU?f\xce\x94A;NU?f\xce\x94A;NU?f\xce\x94A;NU?f\xce\x94A;NU?f\xce\x94A;NU?f\xce\x94A;NU?f\xce\x94A;NU?f\xce\x94A;NU?f\xce\x94A;NU?f\xce\x94A;NU?f\xce\x94A;NU?f\xce\x94A;NU?f\xce\x94A;NU?f\xce\x94A;NU?f\xce\x94A;NU?f\xce\x94A;NU?f\xce\x94A;NU?f\xce\x94A;NU?f\xce\x94A;NU?f\xce\x94A;NU?f\xce\x94A;NU?f\xce\x94A;NU?f\xce\x94A;NU?f\xce\x94A;NU?f\xce\x94A;NU?f\xce\x94A;NU?f\xce\x94A;NU?f\xce\x94A;NU?f\xce\x94A;NU?\x00\x00\x00\x00\x00\x00\x00\x00f\xce\x94A;NU?\x00\x00\x00\x00\x00\x00\x00\x00 -\x94\x10\x1a*\\\xbff\xce\x94A;NU?f\xce\x94A;NU?f\xce\x94A;NU?f\xce\x94A;NU?f\xce\x94A;NU?f\xce\x94A;NU?f\xce\x94A;NU?f\xce\x94A;NU?f\xce\x94A;NU?f\xce\x94A;NU?f\xce\x94A;NU?f\xce\x94A;NU?f\xce\x94A;NU?f\xce\x94A;NU?f\xce\x94A;NU?f\xce\x94A;NU?f\xce\x94A;NU?f\xce\x94A;NU?f\xce\x94A;NU?f\xce\x94A;NU?f\xce\x94A;NU?f\xce\x94A;NU?f\xce\x94A;NU?f\xce\x94A;NU?f\xce\x94A;NU?f\xce\x94A;NU?f\xce\x94A;NU?f\xce\x94A;NU?f\xce\x94A;NU?f\xce\x94A;NU?f\xce\x94A;NU?f\xce\x94A;NU?f\xce\x94A;NU?f\xce\x94A;NU?f\xce\x94A;NU?f\xce\x94A;NU?f\xce\x94A;NU?f\xce\x94A;NU?f\xce\x94A;NU?f\xce\x94A;NU?f\xce\x94A;NU?f\xce\x94A;NU?f\xce\x94A;NU?f\xce\x94A;NU?f\xce\x94A;NU?f\xce\x94A;NU?f\xce\x94A;NU?f\xce\x94A;NU?f\xce\x94A;NU?f\xce\x94A;NU?f\xce\x94A;NU?f\xce\x94A;NU?f\xce\x94A;NU?f\xce\x94A;NU?f\xce\x94A;NU?Kb\xc4\xb0\n\xedH\xbf\x00\x00\x00\x00\x00\x00\x00\x00\x00\x00\x00\x00\x00\x00\x00\x00f\xce\x94A;NU?f\xce\x94A;NU?f\xce\x94A;NU?f\xce\x94A;NU?f\xce\x94A;NU?f\xce\x94A;NU?f\xce\x94A;NU?f\xce\x94A;NU?f\xce\x94A;NU?f\xce\x94A;NU?f\xce\x94A;NU?f\xce\x94A;NU?f\xce\x94A;NU?f\xce\x94A;NU?f\xce\x94A;NU?f\xce\x94A;NU?f\xce\x94A;NU?f\xce\x94A;NU?f\xce\x94A;NU?f\xce\x94A;NU?f\xce\x94A;NU?f\xce\x94A;NU?f\xce\x94A;NU?f\xce\x94A;NU?f\xce\x94A;NU?f\xce\x94A;NU?f\xce\x94A;NU?f\xce\x94A;NU?f\xce\x94A;NU?f\xce\x94A;NU?f\xce\x94A;NU?f\xce\x94A;NU?f\xce\x94A;NU?Kb\xc4\xb0\n\xedH\xbf\x00\x00\x00\x00\x00\x00\x00\x00f\xce\x94A;NU?f\xce\x94A;NU?f\xce\x94A;NU?f\xce\x94A;NU?f\xce\x94A;NU?f\xce\x94A;NU?f\xce\x94A;NU?f\xce\x94A;NU?f\xce\x94A;NU?f\xce\x94A;NU?f\xce\x94A;NU?f\xce\x94A;NU?f\xce\x94A;NU?f\xce\x94A;NU?f\xce\x94A;NU?f\xce\x94A;NU?f\xce\x94A;NU?f\xce\x94A;NU?f\xce\x94A;NU?f\xce\x94A;NU?f\xce\x94A;NU?f\xce\x94A;NU?f\xce\x94A;NU?f\xce\x94A;NU?f\xce\x94A;NU?f\xce\x94A;NU?f\xce\x94A;NU?f\xce\x94A;NU?f\xce\x94A;NU?f\xce\x94A;NU?f\xce\x94A;NU?f\xce\x94A;NU?f\xce\x94A;NU?f\xce\x94A;NU?f\xce\x94A;NU?f\xce\x94A;NU?\x00\x00\x00\x00\x00\x00\x00\x00f\xce\x94A;NU?f\xce\x94A;NU?f\xce\x94A;NU?f\xce\x94A;NU?f\xce\x94A;NU?f\xce\x94A;NU?f\xce\x94A;NU?f\xce\x94A;NU?f\xce\x94A;NU?f\xce\x94A;NU?f\xce\x94A;NU?f\xce\x94A;NU?f\xce\x94A;NU?f\xce\x94A;NU?f\xce\x94A;NU?f\xce\x94A;NU?f\xce\x94A;NU?f\xce\x94A;NU?f\xce\x94A;NU?f\xce\x94A;NU?f\xce\x94A;NU?f\xce\x94A;NU?f\xce\x94A;NU?f\xce\x94A;NU?f\xce\x94A;NU?f\xce\x94A;NU?f\xce\x94A;NU?f\xce\x94A;NU?f\xce\x94A;NU?f\xce\x94A;NU?f\xce\x94A;NU?f\xce\x94A;NU?\x13\xb6)&l\xedd\xbf"
p4680
tp4681
bsb.