(lp0
Vlove
p1
aVdislike
p2
aVlike
p3
aVdont
p4
aVpeople
p5
aVtime
p6
a(Vacc
p7
Vmbf
p8
tp9
a(Vlikedislike
p10
g7
tp11
a(g10
g7
g8
tp12
ag7
ag10
ag8
aVmusic
p13
aVsay
p14
a(Vdislike
p15
Vradio
p16
tp17
a(g15
g16
g13
tp18
a(g16
g13
tp19
a(Vugh
p20
g15
tp21
a(g20
g15
g16
tp22
aVaunt
p23
aVbody
p24
aVcause
p25
aVconverse
p26
aVgoing
p27
aVhate
p28
aVlisten
p29
aVplease
p30
ag16
aVsong
p31
aVsongsthatwillnevergetold
p32
aVthink
p33
aVthis
p34
ag20
aVyou
p35
a(V100
p36
Vdislike
p37
tp38
a(V4ammy
p39
g23
tp40
a(g39
g23
Vpassed
p41
tp42
a(Vacknowledge
p43
Vexistence
p44
tp45
a(g43
g44
Vfollow
p46
tp47
a(Vactual
p48
Vfuck
p49
tp50
a(g48
g49
Vsupposed
p51
tp52
a(Vadios
p53
Vyuckkyy
p54
tp55
a(Vaka
p56
Vassburger
p57
tp58
a(g56
g57
Vwth
p59
tp60
a(Vamazing
p61
Vlove
p62
tp63
a(g61
g62
Vmuch
p64
tp65
a(Varound
p66
g39
tp67
a(g66
g39
g23
tp68
a(Vashley
p69
Vdislike
p70
tp71
a(g69
g70
Vyoulol
p72
tp73
a(Vasperger
p74
g56
tp75
a(g74
g56
g57
tp76
a(g57
g59
tp77
a(Vaunt
p78
Vfran
p79
tp80
a(g78
g79
Vmiss
p81
tp82
a(g23
g41
tp83
a(g23
g41
Vaway
p84
tp85
a(g84
Vlove
p86
tp87
a(g84
g86
g78
tp88
a(Vbabe
p89
Vbirthday
p90
tp91
a(g89
g90
Vdays
p92
tp93
a(Vback
p94
Vliking
p95
tp96
a(g94
g95
Vsong
p97
tp98
a(Vband
p99
Vmakes
p100
tp101
a(g99
g100
Vstart
p102
tp103
a(Vbeautiful
p104
Vpictures
p105
tp106
a(g104
g105
Vlooks
p107
tp108
a(Vbed
p109
Vsince
p110
tp111
a(g109
g110
Vone
p112
tp113
a(Vbieber
p114
Vlong
p115
tp116
a(g114
g115
Vyou
p117
tp118
a(Vbig
p119
Vsean
p120
tp121
a(g119
g120
Vcover
p122
tp123
a(Vbion
p124
Vdislike
p125
tp126
a(g124
g125
Vuname
p127
tp128
a(g90
g92
tp129
a(g90
g92
g30
tp130
a(Vbody
p131
Vsore
p132
tp133
a(g24
Vworkouts
p134
tp135
a(g24
g134
Vlike
p136
tp137
a(Vbunny
p138
g36
tp139
a(g138
g36
g37
tp140
a(Vbusy
p141
Vsmoking
p142
tp143
a(g141
g142
Vpeople
p144
tp145
a(Vcalled
p146
g74
tp147
a(g146
g74
g56
tp148
a(Vcause
p149
g141
tp150
a(g149
g141
g142
tp151
a(g25
Vdouble
p152
tp153
a(Vcollaborate
p154
Vlisten
p155
tp156
a(g26
Vlove
p157
tp158
a(g26
g157
Vconverse
p159
tp160
a(g159
Vseveral
p161
tp162
a(g159
g161
Vpair
p163
tp164
a(Vcould
p165
Vunsee
p166
tp167
a(g165
g166
g94
tp168
a(g122
Vthe
p169
tp170
a(Vcute
p171
Vguys
p172
tp173
a(g171
g172
g6
tp174
a(Vday
p175
Vwhole
p176
tp177
a(g175
g176
g131
tp178
a(g92
g30
tp179
a(g92
g30
g43
tp180
a(Vdecent
p181
Vokay
p182
tp183
a(g181
g182
Vwtf
p184
tp185
a(Vdentist
p186
Vgoing
p187
tp188
a(g186
g187
Vtomorrow
p189
tp190
a(Vdislike
p191
Vfull
p192
tp193
a(g191
g192
g24
tp194
a(Vdislike
p195
Vkinda
p196
tp197
a(g195
g196
Vthink
p198
tp199
a(Vdislike
p200
Vmade
p201
tp202
a(g200
g201
Vreason
p203
tp204
a(g2
Vsnapchating
p205
tp206
a(g2
g205
g171
tp207
a(Vdislike
p208
Vspicy
p209
tp210
a(g208
g209
Vfood
p211
tp212
a(g125
g127
tp213
a(g125
g127
g25
tp214
a(g70
g72
tp215
a(Vdont
p216
Vfucking
p217
tp218
a(g216
g217
Vpeople
p219
tp220
a(Vdont
p221
Vknow
p222
tp223
a(g221
g222
Vname
p224
tp225
a(g4
Vlike
p226
tp227
a(g4
g226
Vspicyp
p228
tp229
a(Vdont
p230
Vtime
p231
tp232
a(g230
g231
g28
tp233
a(Vevery
p234
Vfriday
p235
tp236
a(g44
g46
tp237
a(g44
g46
g14
tp238
a(g46
g14
tp239
a(g46
g14
Vplease
p240
tp241
a(g211
g4
tp242
a(g211
g4
g226
tp243
a(Vfound
p244
Vsyndrome
p245
tp246
a(g244
g245
g146
tp247
a(g79
g81
tp248
a(g79
g81
Vdearly
p249
tp250
a(g49
g51
tp251
a(g49
g51
Vtrain
p252
tp253
a(g217
g219
tp254
a(g217
g219
Vlike
p255
tp256
a(g192
g24
tp257
a(g192
g24
g134
tp258
a(Vget
p259
Vjudged
p260
tp261
a(g259
g260
Vlove
p262
tp263
a(Vgetting
p264
Vpaid
p265
tp266
a(g264
g265
g234
tp267
a(g27
g186
tp268
a(g27
g186
g187
tp269
a(g187
g189
tp270
a(Vgrowing
p271
Vpopularity
p272
tp273
a(g271
g272
g99
tp274
a(g172
g6
tp275
a(g172
g6
Vnight
p276
tp277
a(Vhammer
p278
Vtime
p279
tp280
a(g278
g279
g154
tp281
a(g28
Vpeople
p282
tp283
a(g28
g282
Vhate
p284
tp285
a(g284
Vweed
p286
tp287
a(g284
g286
g149
tp288
a(Vhey
p289
Vreleased
p290
tp291
a(g289
g290
Vnew
p292
tp293
a(Vicon
p294
g124
tp295
a(g294
g124
g125
tp296
a(Videntify
p297
Vterm
p298
tp299
a(g297
g298
Vpuck
p300
tp301
a(Videntities
p302
Vlove
p303
tp304
a(g302
g303
Vwould
p305
tp306
a(Vidgaf
p307
g216
tp308
a(g307
g216
g217
tp309
a(Vjett
p310
Vlove
p311
tp312
a(g310
g311
Vrock
p313
tp314
a(Vjoan
p315
g310
tp316
a(g315
g310
g311
tp317
a(g260
g262
tp318
a(Vjustin
p319
g114
tp320
a(g319
g114
g115
tp321
a(Vkind
p322
Vmusic
p323
tp324
a(g322
g323
Vfan
p325
tp326
a(g196
g198
tp327
a(g196
g198
Vyoure
p328
tp329
a(g222
g224
tp330
a(g222
g224
Vlove
p331
tp332
a(Vliam
p333
Vlove
p334
tp335
a(g333
g334
g35
tp336
a(Vliampayne
p337
g89
tp338
a(g337
g89
g90
tp339
a(Vlife
p340
g53
tp341
a(g340
g53
g54
tp342
a(g136
g48
tp343
a(g136
g48
g49
tp344
a(g255
Vanyway
p345
tp346
a(Vlike
p347
g208
tp348
a(g347
g208
g209
tp349
a(g226
g228
tp350
a(g226
g228
Vcoy1tedjo4hk
p351
tp352
a(g3
Vwonderful
p353
tp354
a(g3
g353
Vrelaxing
p355
tp356
a(Vliked
p357
Vvideo
p358
tp359
a(g357
g358
g319
tp360
a(g95
g97
tp361
a(g95
g97
Vdumblyricsaredumb
p362
tp363
a(Vlol
p364
Vsad
p365
tp366
a(g364
g365
Vstory
p367
tp368
a(g115
g117
tp369
a(g115
g117
Vlove
p370
tp371
a(Vlook
p372
g181
tp373
a(g372
g181
g182
tp374
a(Vlooked
p375
Vlyrics
p376
tp377
a(g375
g376
Vskys
p378
tp379
a(g107
g3
tp380
a(g107
g3
g353
tp381
a(g86
g78
tp382
a(g86
g78
g79
tp383
a(Vlove
p384
g109
tp385
a(g384
g109
g110
tp386
a(g370
g119
tp387
a(g370
g119
g120
tp388
a(g157
g159
tp389
a(g157
g159
g161
tp390
a(Vlove
p391
g264
tp392
a(g391
g264
g265
tp393
a(Vlove
p394
g27
tp395
a(g394
g27
g186
tp396
a(g331
g278
tp397
a(g331
g278
g279
tp398
a(Vlove
p399
g294
tp400
a(g399
g294
g124
tp401
a(Vlove
p402
g340
tp403
a(g402
g340
g53
tp404
a(g62
g64
tp405
a(g1
Vphil
p406
tp407
a(g1
g406
Vlester
p408
tp409
a(Vlove
p410
Vrays
p411
tp412
a(g410
g411
Vsunshine
p413
tp414
a(g311
g313
tp415
a(g311
g313
Vroll
p416
tp417
a(Vlove
p418
g31
tp419
a(g418
g31
Vwish
p420
tp421
a(g303
g305
tp422
a(g303
g305
Vtake
p423
tp424
a(g334
g35
tp425
a(g376
g378
tp426
a(g376
g378
g418
tp427
a(g201
g203
tp428
a(g201
g203
g307
tp429
a(Vmake
p430
g384
tp431
a(g430
g384
g109
tp432
a(g100
g102
tp433
a(g100
g102
g195
tp434
a(Vmight
p435
g259
tp436
a(g435
g259
g260
tp437
a(g81
g249
tp438
a(Vmorning
p439
g66
tp440
a(g439
g66
g39
tp441
a(g323
g325
tp442
a(g224
g331
tp443
a(g224
g331
g278
tp444
a(g292
Vsingle
p445
tp446
a(g292
g445
g302
tp447
a(Vnext
p448
g175
tp449
a(g448
g175
g176
tp450
a(g276
g372
tp451
a(g276
g372
g181
tp452
a(g182
g184
tp453
a(g112
g364
tp454
a(g112
g364
g365
tp455
a(g265
g234
tp456
a(g265
g234
g235
tp457
a(g41
g84
tp458
a(g41
g84
g86
tp459
a(g5
g200
tp460
a(g5
g200
g201
tp461
a(g282
g284
tp462
a(g282
g284
g286
tp463
a(g219
g255
tp464
a(g219
g255
g345
tp465
a(g144
Vlove
p466
tp467
a(g406
g408
tp468
a(g105
g107
tp469
a(g105
g107
g3
tp470
a(g30
g43
tp471
a(g30
g43
g44
tp472
a(g240
g333
tp473
a(g240
g333
g334
tp474
a(g272
g99
tp475
a(g272
g99
g100
tp476
a(g300
g138
tp477
a(g300
g138
g36
tp478
a(g411
g413
tp479
a(g411
g413
Vphotos
p480
tp481
a(g203
g307
tp482
a(g203
g307
g216
tp483
a(Vrecently
p484
g244
tp485
a(g484
g244
g245
tp486
a(g355
Vtime
p487
tp488
a(g355
g487
g410
tp489
a(g290
g292
tp490
a(g290
g292
g445
tp491
a(g313
g416
tp492
a(g365
g367
tp493
a(Vsay
p494
g435
tp495
a(g494
g435
g259
tp496
a(g14
g240
tp497
a(g14
g240
g333
tp498
a(Vsay
p499
Vscared
p500
tp501
a(g499
g500
g494
tp502
a(g500
g494
tp503
a(g500
g494
g435
tp504
a(g120
g122
tp505
a(g120
g122
g169
tp506
a(g161
g163
tp507
a(Vsimplyrae01
p508
g69
tp509
a(g508
g69
g70
tp510
a(g110
g112
tp511
a(g110
g112
g364
tp512
a(g445
g302
tp513
a(g445
g302
g303
tp514
a(g378
g418
tp515
a(g378
g418
g31
tp516
a(g142
g144
tp517
a(g142
g144
g466
tp518
a(g205
g171
tp519
a(g205
g171
g172
tp520
a(Vsomeone
p521
Vyells
p522
tp523
a(g521
g522
Vstop
p524
tp525
a(g97
g362
tp526
a(g31
g420
tp527
a(g31
g420
g165
tp528
a(Vsongsthatwillnevergetold
p529
g61
tp530
a(g529
g61
g62
tp531
a(g32
g315
tp532
a(g32
g315
g310
tp533
a(g209
g211
tp534
a(g209
g211
g4
tp535
a(g228
g351
tp536
a(g102
g195
tp537
a(g102
g195
g196
tp538
a(g524
g221
tp539
a(g524
g221
g222
tp540
a(g413
g480
tp541
a(g51
g252
tp542
a(g51
g252
g448
tp543
a(g245
g146
tp544
a(g245
g146
g74
tp545
a(g423
g29
tp546
a(Vtate
p547
g271
tp548
a(g547
g271
g272
tp549
a(g298
g300
tp550
a(g298
g300
g138
tp551
a(g33
g26
tp552
a(g33
g26
g157
tp553
a(g198
g328
tp554
a(g198
g328
Vworst
p555
tp556
a(g34
g1
tp557
a(g34
g1
g406
tp558
a(Vthis
p559
g439
tp560
a(g559
g439
g66
tp561
a(g279
g154
tp562
a(g279
g154
g155
tp563
a(g231
g28
tp564
a(g231
g28
g282
tp565
a(g487
g410
tp566
a(g487
g410
g411
tp567
a(g6
g276
tp568
a(g6
g276
g372
tp569
a(g252
g448
tp570
a(g252
g448
g175
tp571
a(g127
g25
tp572
a(g127
g25
g152
tp573
a(g166
g94
tp574
a(g166
g94
g95
tp575
a(g358
g319
tp576
a(g358
g319
g114
tp577
a(g286
g149
tp578
a(g286
g149
g141
tp579
a(Vwhat
p580
g33
tp581
a(g580
g33
g26
tp582
a(Vwhen
p583
g521
tp584
a(g583
g521
g522
tp585
a(g176
g131
tp586
a(g176
g131
g132
tp587
a(g420
g165
tp588
a(g420
g165
g166
tp589
a(g353
g355
tp590
a(g353
g355
g487
tp591
a(g134
g136
tp592
a(g134
g136
g48
tp593
a(g555
g322
tp594
a(g555
g322
g323
tp595
a(g305
g423
tp596
a(g305
g423
g29
tp597
a(g522
g524
tp598
a(g522
g524
g221
tp599
a(g117
g370
tp600
a(g117
g370
g119
tp601
a(g328
g555
tp602
a(g328
g555
g322
tp603
ag36
ag39
ag43
ag48
ag53
ag56
ag61
ag345
ag66
ag69
ag74
ag57
ag84
ag89
ag94
ag99
ag104
ag109
ag114
ag119
ag124
ag90
ag138
ag141
ag146
ag154
ag165
ag122
ag351
ag171
ag175
ag92
ag249
ag181
ag186
ag152
ag362
ag234
ag44
ag325
ag46
ag211
ag244
ag79
ag235
ag49
ag217
ag192
ag259
ag264
ag271
ag172
ag278
ag289
ag294
ag297
ag302
ag307
ag310
ag315
ag260
ag319
ag322
ag196
ag222
ag408
ag333
ag337
ag340
ag357
ag95
ag364
ag115
ag372
ag375
ag107
ag376
ag201
ag430
ag100
ag435
ag81
ag439
ag64
ag224
ag292
ag448
ag276
ag182
ag112
ag265
ag163
ag41
ag406
ag480
ag105
ag272
ag300
ag411
ag203
ag484
ag355
ag290
ag313
ag416
ag365
ag500
ag120
ag161
ag508
ag110
ag445
ag378
ag142
ag205
ag521
ag132
ag209
ag228
ag102
ag524
ag367
ag413
ag51
ag245
ag423
ag547
ag298
ag169
ag189
ag252
ag127
ag166
ag358
ag286
ag580
ag583
ag176
ag420
ag353
ag134
ag555
ag305
ag184
ag59
ag522
ag72
ag328
ag54
a.