(lp0
Vlove
p1
aVdislike
p2
aVlike
p3
aVpeople
p4
aVreally
p5
aVdont
p6
aVknow
p7
aVmuch
p8
aVplease
p9
a(g5
Vdislike
p10
tp11
aVone
p12
aVyou
p13
aVacc
p14
aVfollow
p15
aVsay
p16
aVhate
p17
a(Vdislike
p18
Vpeople
p19
tp20
aVget
p21
aVlt3
p22
aVthink
p23
aVtime
p24
a(Vlikedislike
p25
Vacc
p26
tp27
a(Vlove
p28
Vmuch
p29
tp30
a(Vlove
p31
Vyou
p32
tp33
aVbirthday
p34
aVcould
p35
aVgot
p36
aVits
p37
ag25
aVlol
p38
aVmake
p39
aVright
p40
aVsong
p41
aVstill
p42
aVtell
p43
aVthough
p44
aVwould
p45
a(g26
Vmbf
p46
tp47
a(g25
g26
g46
tp48
aValways
p49
aVbig
p50
aVbio
p51
aVeven
p52
aVeveryone
p53
aVfeel
p54
aVfucking
p55
aVgive
p56
aVgoing
p57
aVill
p58
aVlook
p59
ag46
aVnotice
p60
aVsomeone
p61
a(Vdislike
p62
Vuname
p63
tp64
a(Vdont
p65
Vknow
p66
tp67
a(g52
Vthough
p68
tp69
a(g52
g68
Vdislike
p70
tp71
a(Vfucking
p72
Vlove
p73
tp74
a(g3
g2
tp75
a(Vlove
p76
g50
tp77
a(Vlove
p78
g41
tp79
a(g68
g70
tp80
aVand
p81
aVanyone
p82
aVass
p83
aVbaby
p84
aVbitches
p85
aVbody
p86
aVcome
p87
aVday
p88
aVeat
p89
aVgirl
p90
aVguess
p91
aVhappy
p92
aVicon
p93
aVlooking
p94
aVlot
p95
aVmany
p96
aVperson
p97
aVschool
p98
aVsince
p99
aVsure
p100
aVtake
p101
aVthe
p102
aVthen
p103
aVthis
p104
aVtry
p105
ag63
aVwhen
p106
aVwhy
p107
a(V4th
p108
Vperiod
p109
tp110
a(g108
g109
Vhilarious
p111
tp112
a(Vacknowledge
p113
Vexistence
p114
tp115
a(g113
g114
Vfollow
p116
tp117
a(Varent
p118
Vsexy
p119
tp120
a(g118
g119
Vcorvettes
p121
tp122
a(Vbabe
p123
Vbirthday
p124
tp125
a(g123
g124
Vdays
p126
tp127
a(g51
g93
tp128
a(g51
g93
g62
tp129
a(g124
g126
tp130
a(g124
g126
Vplease
p131
tp132
a(Vclass
p133
g108
tp134
a(g133
g108
g109
tp135
a(g126
g131
tp136
a(g126
g131
g113
tp137
a(g2
g14
tp138
a(g70
g133
tp139
a(g70
g133
g108
tp140
a(Vdislike
p141
g6
tp142
a(Vdislike
p143
Veveryone
p144
tp145
a(Vdislike
p146
Vmustangs
p147
tp148
a(g146
g147
g118
tp149
a(g18
g19
Vdont
p150
tp151
a(g150
g54
tp152
a(g150
g54
Vneed
p153
tp154
a(g114
g116
tp155
a(g114
g116
Vsay
p156
tp157
a(g54
g153
tp158
a(g54
g153
Vtell
p159
tp160
a(g116
g156
tp161
a(g116
g156
Vplease
p162
tp163
a(Vhate
p164
Vpeople
p165
tp166
a(g111
Vthomas
p167
tp168
a(g111
g167
Vbeats
p169
tp170
a(g93
g62
tp171
a(g93
g62
g63
tp172
a(g58
g43
tp173
a(g58
g43
g3
tp174
a(Vimportant
p175
Vinformation
p176
tp177
a(g175
g176
Vforserious
p178
tp179
a(g176
g178
tp180
a(Vjustin
p181
Vbieber
p182
tp183
a(Vliam
p184
Vlove
p185
tp186
a(g184
g185
Vyou
p187
tp188
a(Vliampayne
p189
g123
tp190
a(g189
g123
g124
tp191
a(Vlike
p192
g51
tp193
a(g192
g51
g93
tp194
a(g3
g2
g14
tp195
a(Vlooking
p196
Vforward
p197
tp198
a(Vlove
p199
g84
tp200
a(Vlove
p201
Vone
p202
tp203
a(Vmake
p204
Vlove
p205
tp206
a(Vmuch
p207
Vlove
p208
tp209
a(g147
g118
tp210
a(g147
g118
g119
tp211
a(g153
g159
tp212
a(g153
g159
g175
tp213
a(Vone
p214
g88
tp215
a(Vone
p216
Vdirection
p217
tp218
a(Vpeople
p219
Vdislike
p220
tp221
a(g19
g150
tp222
a(g19
g150
g54
tp223
a(g109
g111
tp224
a(g109
g111
g167
tp225
a(Vperson
p226
Vdislike
p227
tp228
a(g131
g113
tp229
a(g131
g113
g114
tp230
a(Vplease
p231
Vfollow
p232
tp233
a(g162
g184
tp234
a(g162
g184
g185
tp235
a(Vreally
p236
Vdislike
p237
Vpeople
p238
tp239
a(g156
g162
tp240
a(g156
g162
g184
tp241
a(g119
g121
tp242
a(Vstrongly
p243
Vdislike
p244
tp245
a(g159
g175
tp246
a(g159
g175
g176
tp247
a(g43
g3
tp248
a(g43
g3
g2
tp249
a(g167
g169
tp250
a(g68
g70
g133
tp251
a(Vwashington
p252
Vlove
p253
tp254
a(Vweird
p255
g91
tp256
a(Vwish
p257
Vcould
p258
tp259
a(g13
g1
tp260
ag108
ag113
aVact
p261
aVannoys
p262
aVanswer
p263
ag118
aVaway
p264
ag123
aVback
p265
ag169
aVbed
p266
aVbestfriend
p267
ag182
aVbird
p268
aVblind
p269
aVboyfriend
p270
aVcarly
p271
aVcarlyfollowme
p272
aVcause
p273
ag133
aVconverse
p274
ag121
aVcountry
p275
aVcute
p276
ag126
ag217
aVexcited
p277
ag114
aVfans
p278
aVfirst
p279
ag178
ag197
aVfuck
p280
aVgirlfriend
p281
aVguys
p282
aVhammer
p283
aVhead
p284
aVhey
p285
ag111
ag175
ag176
aVintroduce
p286
ag181
aVkobe
p287
ag184
ag189
aVlife
p288
aVliked
p289
aVliking
p290
aVlisten
p291
aVlittle
p292
aVmakes
p293
aVmean
p294
aVmet
p295
aVmusic
p296
ag147
ag153
aVnew
p297
aVnot
p298
ag109
aVray
p299
aVread
p300
aVreason
p301
ag119
aVsmiles
p302
aVsomething
p303
aVsongsthatwillnevergetold
p304
aVsoon
p305
aVstory
p306
ag243
aVthanks
p307
aVthats
p308
ag167
aVtweet
p309
aVupset
p310
aVusually
p311
aVwant
p312
ag252
aVway
p313
ag255
ag257
aVwithout
p314
aVyall
p315
aVyoure
p316
aVyouu
p317
a(V100
p318
Vdislike
p319
tp320
a(V2years
p321
Vapart
p322
tp323
a(g321
g322
Vstill
p324
tp325
a(V409
p326
Vlove
p327
tp328
a(g326
g327
Vtruck
p329
tp330
a(Vacc
p331
Vfan
p332
tp333
a(g331
g332
Vacc
p334
tp335
a(g334
Vpls
p336
tp337
a(Vaccepted
p338
Vaccidentally
p339
tp340
a(g338
g339
Vdeliberately
p341
tp342
a(g339
g341
tp343
a(g339
g341
Vdropped
p344
tp345
a(Vact
p346
Vlike
p347
tp348
a(g346
g347
Vlil
p349
tp350
a(g261
Vroom
p351
tp352
a(g261
g351
Vsomeone
p353
tp354
a(Vactual
p355
Vfuck
p356
tp357
a(g355
g356
Vsupposed
p358
tp359
a(Vactually
p360
Vrefreshing
p361
tp362
a(g360
g361
Vamaz
p363
tp364
a(Vadios
p365
Vyuckkyy
p366
tp367
a(Vadmire
p368
Vwinston
p369
tp370
a(g368
g369
Vchurchill
p371
tp372
a(Vaint
p373
Vgot
p374
tp375
a(g373
g374
Vnothin
p376
tp377
a(Vaka
p378
Vassburger
p379
tp380
a(g378
g379
Vwth
p381
tp382
a(Valive
p383
g60
tp384
a(g383
g60
Vplease
p385
tp386
a(Vallegiance
p387
Vblind
p388
tp389
a(g387
g388
g314
tp390
a(Valways
p391
Vbest
p392
tp393
a(g391
g392
Vreally
p394
tp395
a(Valways
p396
Vdislike
p397
tp398
a(g49
g31
tp399
a(g49
g31
g32
tp400
a(Valways
p401
Vmakes
p402
tp403
a(g401
g402
Vlaugh
p404
tp405
a(Vamazing
p406
Vlove
p407
tp408
a(g406
g407
Vmuch
p409
tp410
a(Vamp
p411
Vscary
p412
tp413
a(g411
g412
Vcommercials
p414
tp415
a(g81
Vlike
p416
tp417
a(g81
g416
g299
tp418
a(Vand
p419
Vread
p420
tp421
a(g419
g420
g104
tp422
a(Vanddislike
p423
Vlittle
p424
tp425
a(g423
g424
Vbit
p426
tp427
a(Vandroid
p428
Vcalm
p429
tp430
a(Vanimals
p431
Vdont
p432
tp433
a(g431
g432
Vthink
p434
tp435
a(Vannoy
p436
Vcodxpmickfxd
p437
tp438
a(Vannoys
p439
Vdislike
p440
tp441
a(g439
g440
Vsaying
p442
tp443
a(g262
Vlike
p444
tp445
a(g262
g444
Vpeople
p446
tp447
a(Vanother
p448
Vlove
p449
tp450
a(g448
g449
Vshort
p451
tp452
a(Vanswer
p453
Vwould
p454
tp455
a(g453
g454
Vshame
p456
tp457
a(g263
Vyet
p458
tp459
a(Vanyone
p460
Vcould
p461
tp462
a(g460
g461
Vdislike
p463
tp464
a(Vanyone
p465
Vdislike
p466
tp467
a(g465
g466
Vthe
p468
tp469
a(g82
g38
tp470
a(g82
g38
Vsome
p471
tp472
a(g322
g324
tp473
a(g322
g324
Vdeeply
p474
tp475
a(Vapologise
p476
Vadvance
p477
tp478
a(Vashley
p479
Vdislike
p480
tp481
a(g479
g480
Vyoulol
p482
tp483
a(Vasked
p484
Vwanted
p485
tp486
a(g484
g485
Vice
p487
tp488
a(Vasking
p489
Vfirst
p490
tp491
a(Vasperger
p492
g378
tp493
a(g492
g378
g379
tp494
a(g83
Vgirl
p495
tp496
a(g83
g495
Vgrow
p497
tp498
a(Vass
p499
Vocean
p500
tp501
a(g499
g500
g373
tp502
a(g379
g381
tp503
a(Vatm
p504
Vdislike
p505
tp506
a(g504
g505
g428
tp507
a(g264
Vbring
p508
tp509
a(g264
g508
Vgood
p510
tp511
a(Vaway
p512
Vhead
p513
tp514
a(g512
g513
Vlawd
p515
tp516
a(Vaya
p517
Vknow
p518
tp519
a(g517
g518
Vsince
p520
tp521
a(g84
Vfollow
p522
tp523
a(g84
g522
g270
tp524
a(Vbaby
p525
Vlove
p526
tp527
a(g525
g526
Vyouo
p528
tp529
a(g265
Vliking
p530
tp531
a(g265
g530
Vsong
p532
tp533
a(Vbad
p534
g313
tp535
a(g534
g313
g476
tp536
a(Vballin
p537
Vhard
p538
tp539
a(g537
g538
Vswea
p540
tp541
a(Vballs
p542
Vbitch
p543
tp544
a(Vbarbie
p545
Vmovies60e9
p546
tp547
a(Vbased
p548
g261
tp549
a(g548
g261
g351
tp550
a(g266
g99
tp551
a(g266
g99
Vone
p552
tp553
a(Vbed
p554
g305
tp555
a(g554
g305
Vlove
p556
tp557
a(Vbehind
p558
Vwoman
p559
tp560
a(g558
g559
Vwhose
p561
tp562
a(Vbesides
p563
Vfans
p564
tp565
a(g563
g564
Vfar
p566
tp567
a(g392
g394
tp568
a(g267
Vtim
p569
tp570
a(g267
g569
Vwhatever
p571
tp572
a(Vbetter
p573
Veveryone
p574
tp575
a(g573
g574
Velse
p576
tp577
a(g182
Vlong
p578
tp579
a(g182
g578
Vyou
p580
tp581
a(Vbieber
p582
Vway
p583
tp584
a(g582
g583
g81
tp585
a(Vbig
p586
g499
tp587
a(g586
g499
g500
tp588
a(Vbig
p589
Vbooty
p590
tp591
a(g589
g590
Vbitches
p592
tp593
a(Vbig
p594
Vlove
p595
tp596
a(g594
g595
Vtortex
p597
tp598
a(g50
Vsean
p599
tp600
a(g50
g599
Vcover
p601
tp602
a(Vbikini
p603
Vbirthday
p604
tp605
a(g603
g604
Vlove
p606
tp607
a(Vbilly
p608
Vduffy
p609
tp610
a(g608
g609
Vdefy
p611
tp612
a(Vbio
p613
g280
tp614
a(g613
g280
g85
tp615
a(Vbio
p616
g199
tp617
a(g616
g199
g84
tp618
a(Vbion
p619
Vdislike
p620
tp621
a(g619
g620
Vuname
p622
tp623
a(g268
Vbird
p624
tp625
a(g268
g624
g276
tp626
a(g624
g276
tp627
a(g624
g276
Vlove
p628
tp629
a(Vbirthday
p630
Vgeorge
p631
tp632
a(g630
g631
Vwashington
p633
tp634
a(g604
g606
tp635
a(g426
Vright
p636
tp637
a(g85
Vget
p638
tp639
a(g85
g638
Vmoney
p640
tp641
a(Vbitches
p642
Vlove
p643
tp644
a(g642
g643
Vdislike
p645
tp646
a(Vbitty
p647
g83
tp648
a(g647
g83
g495
tp649
a(g269
g387
tp650
a(g269
g387
g388
tp651
a(g388
g314
tp652
a(g388
g314
Vstudying
p653
tp654
a(Vblocked
p655
Vlol
p656
tp657
a(g655
g656
Vstill
p658
tp659
a(Vbody
p660
Veat
p661
tp662
a(g660
g661
Vsandwich
p663
tp664
a(Vbody
p665
Vsore
p666
tp667
a(g86
Vworkouts
p668
tp669
a(g86
g668
Vlike
p670
tp671
a(Vboo
p672
Vill
p673
tp674
a(g672
g673
Vtake
p675
tp676
a(Vbookers
p677
Vsong
p678
tp679
a(g677
g678
Vturned
p680
tp681
a(g590
g592
tp682
a(Vboring
p683
Vhitting
p684
tp685
a(g683
g684
g554
tp686
a(Vbother
p687
Vtrying
p688
tp689
a(g687
g688
Vget
p690
tp691
a(Vbottom
p692
Vheart
p693
tp694
a(g270
g613
tp695
a(g270
g613
g280
tp696
a(Vboyfriend
p697
Vlt3
p698
tp699
a(Vbrettney
p700
Vout
p701
tp702
a(g700
g701
g89
tp703
a(g508
g510
tp704
a(g508
g510
Vstuff
p705
tp706
a(Vbrooks
p707
Vone
p708
tp709
a(g707
g708
Vthing
p710
tp711
a(Vbrothers
p712
Vjust
p713
tp714
a(g712
g713
Vtake
p715
tp716
a(Vbtw
p717
Vwanna
p718
tp719
a(g717
g718
Vsay
p720
tp721
a(Vbunny
p722
g318
tp723
a(g722
g318
g319
tp724
a(Vbusy
p725
Vsmoking
p726
tp727
a(g725
g726
Vpeople
p728
tp729
a(Vcall
p730
Vnames
p731
tp732
a(g730
g731
Vdislike
p733
tp734
a(Vcalled
p735
g492
tp736
a(g735
g492
g378
tp737
a(Vcamera
p738
Vangles
p739
tp740
a(Vcant
p741
Vwait
p742
tp743
a(g741
g742
Vdislike
p744
tp745
a(Vcare
p746
Valright
p747
tp748
a(g271
Vfollow
p749
tp750
a(g271
g749
g9
tp751
a(Vcarly
p752
Vlove
p753
tp754
a(g752
g753
Vmuch
p755
tp756
a(g272
g271
tp757
a(g272
g271
g749
tp758
a(Vcarlyfollowme
p759
g285
tp760
a(g759
g285
g752
tp761
a(g273
g725
tp762
a(g273
g725
g726
tp763
a(Vcause
p764
Vdouble
p765
tp766
a(Vcauses
p767
Vconfusing
p768
tp769
a(g767
g768
g738
tp770
a(Vcelebrate
p771
Vsoon
p772
tp773
a(g771
g772
Vget
p774
tp775
a(Vcertain
p776
Vpeople
p777
tp778
a(Vcheer
p779
Vplease
p780
tp781
a(g779
g780
Vnotice
p782
tp783
a(Vchew
p784
Vlike
p785
tp786
a(g784
g785
Vreta
p787
tp788
a(Vchord
p789
Vlike
p790
tp791
a(g789
g790
g608
tp792
a(Vchose
p793
Vdislike
p794
tp795
a(g793
g794
Vhuman
p796
tp797
a(Vchuckii
p798
g677
tp799
a(g798
g677
g678
tp800
a(Vclassroom
p801
Vknow
p802
tp803
a(g801
g802
Vfailed
p804
tp805
a(Vcold
p806
Vweather
p807
tp808
a(g806
g807
Vits
p809
tp810
a(Vcollaborate
p811
g291
tp812
a(Vcome
p813
g525
tp814
a(g813
g525
g526
tp815
a(g87
Vportugal
p816
tp817
a(g87
g816
g22
tp818
a(Vcome
p819
Vtrue
p820
tp821
a(g819
g820
g28
tp822
a(Vcommented
p823
Vheight
p824
tp825
a(g823
g824
g12
tp826
a(Vcommunity
p827
g801
tp828
a(g827
g801
g802
tp829
a(Vconcert
p830
Vright
p831
tp832
a(g830
g831
Vdamn
p833
tp834
a(g768
g738
tp835
a(g768
g738
g739
tp836
a(g274
Vlove
p837
tp838
a(g274
g837
Vconverse
p839
tp840
a(g839
Vseveral
p841
tp842
a(g839
g841
Vpair
p843
tp844
a(Vcould
p845
g672
tp846
a(g845
g672
g673
tp847
a(g461
g463
tp848
a(g461
g463
Vcountry
p849
tp850
a(g35
g294
tp851
a(g35
g294
Vreally
p852
tp853
a(g258
Vunsee
p854
tp855
a(g258
g854
g265
tp856
a(Vcould
p857
Vwrong
p858
tp859
a(g857
g858
Vnot
p860
tp861
a(g275
Vdislike
p862
tp863
a(g275
g862
g269
tp864
a(g849
Vmusic
p865
tp866
a(g849
g865
Vits
p867
tp868
a(g601
g102
tp869
a(Vcrawl
p870
Vdog
p871
tp872
a(g870
g871
Vdoor
p873
tp874
a(Vcream
p875
Veven
p876
tp877
a(g875
g876
Vthough
p878
tp879
a(Vcredit
p880
Vkeeps
p881
tp882
a(g880
g881
Vgetting
p883
tp884
a(Vcute
p885
Vguys
p886
tp887
a(g885
g886
Vtime
p888
tp889
a(g276
g628
tp890
a(g276
g628
Vthenotebook
p891
tp892
a(Vdabiebahcrew
p893
Vlikedislike
p894
tp895
a(g893
g894
g331
tp896
a(Vdaddy
p897
g308
tp898
a(g897
g308
Vdont
p899
tp900
a(g833
Vjealous
p901
tp902
a(g833
g901
Vpriorities
p903
tp904
a(Vdariel
p905
Vmuch
p906
tp907
a(g905
g906
Vfag
p908
tp909
a(Vdat
p910
g287
tp911
a(g910
g287
Vlove
p912
tp913
a(g88
Vhahahaha
p914
tp915
a(g88
g914
Vcorokpy8f4k4
p916
tp917
a(Vday
p918
Vwatch
p919
tp920
a(g918
g919
Vplease
p921
tp922
a(Vday
p923
Vwhole
p924
tp925
a(g923
g924
g665
tp926
a(Vdecent
p927
Vokay
p928
tp929
a(g927
g928
Vwtf
p930
tp931
a(Vdeclined
p932
Vover
p933
tp934
a(g932
g933
Vand
p935
tp936
a(g474
Vlove
p937
tp938
a(g474
g937
Votheri
p939
tp940
a(g611
g465
tp941
a(g611
g465
g466
tp942
a(g341
g344
tp943
a(Vdentist
p944
Vgoing
p945
tp946
a(g944
g945
Vtomorrow
p947
tp948
a(Vdenzel
p949
g252
tp950
a(g949
g252
g253
tp951
a(Vdesire
p952
Vspotify
p953
tp954
a(Vdiamond
p955
g310
tp956
a(g955
g310
Vpissed
p957
tp958
a(Vdid
p959
Vwant
p960
tp961
a(g959
g960
Vtell
p962
tp963
a(Vdidnt
p964
Vlike
p965
tp966
a(g964
g965
Vthen
p967
tp968
a(Vdif
p969
Vreasons
p970
tp971
a(g969
g970
Vunder
p972
tp973
a(Vdifference
p974
g660
tp975
a(g974
g660
g661
tp976
a(Vdifferent
p977
Vguess
p978
tp979
a(g977
g978
Valien
p980
tp981
a(g217
Vdont
p982
tp983
a(g217
g982
Veven
p984
tp985
a(Vdirty
p986
g59
tp987
a(g986
g59
Vmeans
p988
tp989
a(g505
g428
tp990
a(g505
g428
g429
tp991
a(g10
g82
tp992
a(g10
g82
g38
tp993
a(Vdislike
p994
g267
tp995
a(g994
g267
g569
tp996
a(g862
g269
tp997
a(g862
g269
g387
tp998
a(Vdislike
p999
Vboys
p1000
tp1001
a(Vdislike
p1002
g776
tp1003
a(g1002
g776
g777
tp1004
a(g463
g849
tp1005
a(g463
g849
g865
tp1006
a(Vdislike
p1007
g897
tp1008
a(g1007
g897
g308
tp1009
a(Vdislike
p1010
g905
tp1011
a(g1010
g905
g906
tp1012
a(Vdislike
p1013
g955
tp1014
a(g1013
g955
g310
tp1015
a(Vdislike
p1016
Vdont
p1017
g21
tp1018
a(g141
g6
g5
tp1019
a(g244
Veveryone
p1020
Vgoes
p1021
tp1022
a(Vdislike
p1023
Vfact
p1024
tp1025
a(g1023
g1024
Vimplemented
p1026
tp1027
a(Vdislike
p1028
Vflag
p1029
tp1030
a(g1028
g1029
Vspam
p1031
tp1032
a(Vdislike
p1033
Vfrench
p1034
tp1035
a(g1033
g1034
Vmontana
p1036
tp1037
a(Vdislike
p1038
Vfull
p1039
tp1040
a(g1038
g1039
g86
tp1041
a(Vdislike
p1042
Vgirlfriend
p1043
tp1044
a(g794
g796
tp1045
a(g794
g796
Vrace
p1046
tp1047
a(Vdislike
p1048
Vkobe
p1049
tp1050
a(g220
g290
tp1051
a(g220
g290
g90
tp1052
a(Vdislike
p1053
Vlot
p1054
tp1055
a(g1053
g1054
Vfemales
p1056
tp1057
a(Vdislike
p1058
Vmade
p1059
tp1060
a(g1058
g1059
Vreason
p1061
tp1062
a(Vdislike
p1063
Vmom
p1064
tp1065
a(g1063
g1064
g40
tp1066
a(Vdislike
p1067
Vnoah
p1068
tp1069
a(g1067
g1068
Vhate
p1070
tp1071
a(Vdislike
p1072
Vnone
p1073
tp1074
a(g1072
g1073
Vvices
p1075
tp1076
a(Vdislike
p1077
Vpeople
p1078
Vgive
p1079
tp1080
a(Vdislike
p1081
Vpeople
p1082
g286
tp1083
a(g237
g238
g23
tp1084
a(Vdislike
p1085
Vpeople
p1086
Vtry
p1087
tp1088
a(Vdislike
p1089
Vpicture
p1090
tp1091
a(g1089
g1090
g214
tp1092
a(Vdislike
p1093
Vplatformers
p1094
tp1095
a(g1093
g1094
g105
tp1096
a(g733
Vpretend
p1097
tp1098
a(g733
g1097
Vgive
p1099
tp1100
a(Vdislike
p1101
Vradio
p1102
tp1103
a(g1101
g1102
g296
tp1104
a(g440
g442
tp1105
a(g440
g442
Vsomething
p1106
tp1107
a(Vdislike
p1108
Vschool
p1109
tp1110
a(Vdislike
p1111
Vsmiles
p1112
tp1113
a(g1111
g1112
Vltltltltltlt
p1114
tp1115
a(Vdislike
p1116
Vsnapchating
p1117
tp1118
a(g1116
g1117
g885
tp1119
a(Vdislike
p1120
Vsocial
p1121
tp1122
a(g1120
g1121
Vclimbers
p1123
tp1124
a(Vdislike
p1125
Vsomeone
p1126
tp1127
a(g1125
g1126
Vdislike
p1128
tp1129
a(Vdislike
p1130
Vspicy
p1131
tp1132
a(g1130
g1131
Vfoods
p1133
tp1134
a(Vdislike
p1135
Vstill
p1136
tp1137
a(g1135
g1136
g338
tp1138
a(Vdislike
p1139
Vstuck
p1140
tp1141
a(g1139
g1140
g558
tp1142
a(g466
g468
tp1143
a(g466
g468
Vcult
p1144
tp1145
a(Vdislike
p1146
Vthink
p1147
tp1148
a(g1146
g1147
Vweird
p1149
tp1150
a(g620
g622
g764
tp1151
a(g744
Vvideos
p1152
tp1153
a(g744
g1152
Vyeah
p1154
tp1155
a(Vdislike
p1156
Vweak
p1157
tp1158
a(g1156
g1157
Vpeople
p1159
tp1160
a(Vdislike
p1161
Vwhoever
p1162
tp1163
a(g1161
g1162
Vgoing
p1164
tp1165
a(Vdislike
p1166
Vwork
p1167
tp1168
a(g1166
g1167
Vsaturdays
p1169
tp1170
a(g645
Vyaw
p1171
tp1172
a(g645
g1171
Vasses
p1173
tp1174
a(g480
g482
tp1175
a(Vdisoveries
p1176
Vlike
p1177
tp1178
a(g1176
g1177
Vmuch
p1179
tp1180
a(Vdoesnt
p1181
g746
tp1182
a(g1181
g746
g747
tp1183
a(g871
g873
tp1184
a(g871
g873
Vget
p1185
tp1186
a(Vdont
p1187
g793
tp1188
a(g1187
g793
g794
tp1189
a(g982
g984
tp1190
a(g982
g984
Vfollow
p1191
tp1192
a(Vdont
p1193
g55
tp1194
a(g1193
g55
Vpeople
p1195
tp1196
a(g1017
g21
tp1197
a(g1017
g21
Vlike
p1198
tp1199
a(Vdont
p1200
Vhate
p1201
tp1202
a(g1200
g1201
g642
tp1203
a(Vdont
p1204
Vknow
p1205
g687
tp1206
a(Vdont
p1207
Vknow
p1208
g277
tp1209
a(g65
g66
Vname
p1210
tp1211
a(g6
g5
tp1212
a(g6
g5
g10
tp1213
a(g899
g16
tp1214
a(g899
g16
Vshit
p1215
tp1216
a(g432
g434
tp1217
a(g432
g434
Vpower
p1218
tp1219
a(Vdont
p1220
Vtime
p1221
tp1222
a(g1220
g1221
g164
tp1223
a(g873
g1185
tp1224
a(g873
g1185
Vhouse
p1225
tp1226
a(Vdream
p1227
g819
tp1228
a(g1227
g819
g820
tp1229
a(g609
g611
tp1230
a(g609
g611
g465
tp1231
a(g89
Vmustbetay
p1232
tp1233
a(g89
g1232
Vhoopinislife
p1234
tp1235
a(Veat
p1236
Vsalad
p1237
tp1238
a(g1236
g1237
Vone
p1239
tp1240
a(g661
g663
tp1241
a(g661
g663
g1236
tp1242
a(Vemmert
p1243
Vsoooo
p1244
tp1245
a(g1243
g1244
Vfreaking
p1246
tp1247
a(Vengland
p1248
g563
tp1249
a(g1248
g563
g564
tp1250
a(g984
g1191
tp1251
a(g984
g1191
Vdislike
p1252
tp1253
a(g574
g576
tp1254
a(g1020
g1021
tp1255
a(g1020
g1021
Vschool
p1256
tp1257
a(g53
g7
tp1258
a(g53
g7
g823
tp1259
a(Veverything
p1260
Vpeople
p1261
tp1262
a(g1260
g1261
g262
tp1263
a(g277
Vlets
p1264
tp1265
a(g277
g1264
Vsay
p1266
tp1267
a(Vexcited
p1268
Vlove
p1269
tp1270
a(g1268
g1269
Vplease
p1271
tp1272
a(g1024
g1026
tp1273
a(g1024
g1026
Vpersonal
p1274
tp1275
a(g908
g346
tp1276
a(g908
g346
g347
tp1277
a(g804
Vtest
p1278
tp1279
a(g332
g334
tp1280
a(g332
g334
g336
tp1281
a(g564
g566
tp1282
a(g564
g566
g806
tp1283
a(g566
g806
tp1284
a(g566
g806
g807
tp1285
a(Vfeel
p1286
g1002
tp1287
a(g1286
g1002
g776
tp1288
a(Vfeel
p1289
Vhappy
p1290
tp1291
a(g1289
g1290
Vyou
p1292
tp1293
a(g1056
Vwould
p1294
tp1295
a(g1056
g1294
Vanything
p1296
tp1297
a(Vfind
p1298
g95
tp1299
a(g1298
g95
g548
tp1300
a(g279
Vtime
p1301
tp1302
a(g279
g1301
Vthought
p1303
tp1304
a(Vfisher
p1305
Vreally
p1306
tp1307
a(g1305
g1306
g1139
tp1308
a(g1029
g1031
tp1309
a(g1029
g1031
Vthough
p1310
tp1311
a(g522
g270
tp1312
a(g522
g270
g613
tp1313
a(g1191
g1252
tp1314
a(Vfollow
p1315
Vlt3
p1316
tp1317
a(g232
Vmee
p1318
tp1319
a(g232
g1318
Vlt3
p1320
tp1321
a(g749
g9
tp1322
a(g749
g9
Vlove
p1323
tp1324
a(g15
g13
tp1325
a(g15
g13
g1
tp1326
a(g1133
g411
tp1327
a(g1133
g411
g412
tp1328
a(g197
g98
tp1329
a(g197
g98
g288
tp1330
a(Vforward
p1331
Vwembley
p1332
tp1333
a(g1331
g1332
Vshow
p1334
tp1335
a(Vfound
p1336
Vsyndrome
p1337
tp1338
a(g1336
g1337
g735
tp1339
a(g1246
Vmuchhhhh
p1340
tp1341
a(g1246
g1340
Vmytriplet
p1342
tp1343
a(g1034
g1036
tp1344
a(Vfreshman
p1345
Vyear
p1346
tp1347
a(g1345
g1346
g316
tp1348
a(Vfriend
p1349
Vgot
p1350
tp1351
a(g1349
g1350
Vpaisley
p1352
tp1353
a(Vfriends
p1354
Vjob
p1355
tp1356
a(g280
g85
tp1357
a(g280
g85
g638
tp1358
a(g356
g358
tp1359
a(g356
g358
Vtrain
p1360
tp1361
a(Vfucking
p1362
Vlove
p1363
Vjadee
p1364
tp1365
a(Vfucking
p1366
Vlove
p1367
Vthe
p1368
tp1369
a(g72
g73
Vyou
p1370
tp1371
a(g55
g1195
tp1372
a(g55
g1195
Vlike
p1373
tp1374
a(g1039
g86
tp1375
a(g1039
g86
g668
tp1376
a(Vfun
p1377
Vlove
p1378
tp1379
a(g1377
g1378
Vretweets
p1380
tp1381
a(Vfunction
p1382
Vplane
p1383
tp1384
a(g1382
g1383
Vtoo
p1385
tp1386
a(Vgain
p1387
Vimage
p1388
tp1389
a(g631
g633
tp1390
a(g631
g633
Vlove
p1391
tp1392
a(g774
Vhome
p1393
tp1394
a(g774
g1393
Vlove
p1395
tp1396
a(g1185
g1225
tp1397
a(g1185
g1225
Vlmfao
p1398
tp1399
a(Vget
p1400
Vjudged
p1401
tp1402
a(g1400
g1401
Vlove
p1403
tp1404
a(g21
g1198
tp1405
a(g21
g1198
g42
tp1406
a(g638
g640
tp1407
a(g638
g640
Vscratches
p1408
tp1409
a(g690
Vnotice
p1410
tp1411
a(g690
g1410
Vknow
p1412
tp1413
a(g883
g932
tp1414
a(g883
g932
g933
tp1415
a(Vgiovanny
p1416
g255
tp1417
a(g1416
g255
g91
tp1418
a(Vgirl
p1419
g383
tp1420
a(g1419
g383
g60
tp1421
a(g90
g1181
tp1422
a(g90
g1181
g746
tp1423
a(g495
g497
tp1424
a(g495
g497
g542
tp1425
a(g281
g616
tp1426
a(g281
g616
g199
tp1427
a(g56
g986
tp1428
a(g56
g986
g59
tp1429
a(Vgive
p1430
Vmeat
p1431
tp1432
a(g1079
Vnumber
p1433
tp1434
a(g1079
g1433
Vwithout
p1435
tp1436
a(g1099
Vrats
p1437
tp1438
a(g1099
g1437
Vass
p1439
tp1440
a(Vglad
p1441
Vlive
p1442
tp1443
a(g1441
g1442
Vmamma
p1444
tp1445
a(g1021
g1256
tp1446
a(g57
g944
tp1447
a(g57
g944
g945
tp1448
a(Vgoing
p1449
Vhappen
p1450
tp1451
a(g1449
g1450
Vlove
p1452
tp1453
a(g1164
Vshm
p1454
tp1455
a(g1164
g1454
g830
tp1456
a(g945
g947
tp1457
a(g510
g705
tp1458
a(g510
g705
Vlove
p1459
tp1460
a(Vgot
p1461
g1028
tp1462
a(g1461
g1028
g1029
tp1463
a(Vgot
p1464
Vlet
p1465
tp1466
a(g1464
g1465
g1016
tp1467
a(g36
Vlove
p1468
tp1469
a(g36
g1468
Vyaa
p1470
tp1471
a(g374
g376
tp1472
a(g1350
g1352
tp1473
a(g1350
g1352
g603
tp1474
a(Vgrandma
p1475
g484
tp1476
a(g1475
g484
g485
tp1477
a(g497
g542
tp1478
a(g497
g542
g543
tp1479
a(g978
g980
tp1480
a(Vguess
p1481
g977
tp1482
a(g1481
g977
g978
tp1483
a(g91
g311
tp1484
a(g91
g311
Vintroduce
p1485
tp1486
a(g886
g888
tp1487
a(g886
g888
Vnight
p1488
tp1489
a(Vhadislike
p1490
Vpeople
p1491
tp1492
a(g1490
g1491
Vput
p1493
tp1494
a(g914
g916
tp1495
a(Vhahahahahaha
p1496
Vthank
p1497
tp1498
a(g1496
g1497
Vlovely
p1499
tp1500
a(Vhammer
p1501
g789
tp1502
a(g1501
g789
g790
tp1503
a(g283
Vtime
p1504
tp1505
a(g283
g1504
g811
tp1506
a(g1450
g1452
tp1507
a(g1450
g1452
Vlt3xxx
p1508
tp1509
a(Vhappiest
p1510
g1419
tp1511
a(g1510
g1419
g383
tp1512
a(Vhappy
p1513
g630
tp1514
a(g1513
g630
g631
tp1515
a(g1290
g1292
tp1516
a(g1290
g1292
g401
tp1517
a(g538
g540
tp1518
a(g538
g540
Vthink
p1519
tp1520
a(g1201
g642
tp1521
a(g1201
g642
g643
tp1522
a(g17
g275
tp1523
a(g17
g275
g862
tp1524
a(Vhate
p1525
g216
tp1526
a(g1525
g216
g217
tp1527
a(Vhate
p1528
Vpeople
p1529
g730
tp1530
a(g164
g165
Vhate
p1531
tp1532
a(g1531
Vweed
p1533
tp1534
a(g1531
g1533
g273
tp1535
a(g1070
Vwhy
p1536
tp1537
a(g1070
g1536
Vwould
p1538
tp1539
a(Vhates
p1540
Vstrong
p1541
tp1542
a(g1540
g1541
Vword
p1543
tp1544
a(Vhavent
p1545
g263
tp1546
a(g1545
g263
g458
tp1547
a(g513
g515
tp1548
a(g513
g515
Vlove
p1549
tp1550
a(g284
Vsure
p1551
tp1552
a(g284
g1551
Vthats
p1553
tp1554
a(g824
g12
tp1555
a(g824
g12
g24
tp1556
a(g285
g752
tp1557
a(g285
g752
g753
tp1558
a(Vhey
p1559
Vreleased
p1560
tp1561
a(g1559
g1560
Vnew
p1562
tp1563
a(Vhids
p1564
g34
tp1565
a(Vhii
p1566
g779
tp1567
a(g1566
g779
g780
tp1568
a(g684
g554
tp1569
a(g684
g554
g305
tp1570
a(g1393
g1395
tp1571
a(g1393
g1395
Vmiss
p1572
tp1573
a(Vhonestly
p1574
Vreally
p1575
tp1576
a(g1574
g1575
g1108
tp1577
a(Vhonesty
p1578
Vsay
p1579
tp1580
a(g1578
g1579
Vkiana
p1581
tp1582
a(g1234
Vschemeking
p1583
tp1584
a(g1234
g1583
Vlove
p1585
tp1586
a(g1225
g1398
tp1587
a(Vhouston
p1588
g304
tp1589
a(g796
g1046
tp1590
a(g796
g1046
Vits
p1591
tp1592
a(g487
g875
tp1593
a(g487
g875
g876
tp1594
a(Vicon
p1595
g619
tp1596
a(g1595
g619
g620
tp1597
a(Videntify
p1598
Vterm
p1599
tp1600
a(g1598
g1599
Vpuck
p1601
tp1602
a(Videntities
p1603
Vlove
p1604
tp1605
a(g1603
g1604
Vwould
p1606
tp1607
a(Vidgaf
p1608
g1193
tp1609
a(g1608
g1193
g55
tp1610
a(Vill
p1611
Vmake
p1612
tp1613
a(g1611
g1612
Vlove
p1614
tp1615
a(g673
g675
tp1616
a(g673
g675
Vmany
p1617
tp1618
a(g1026
g1274
tp1619
a(g1026
g1274
g1387
tp1620
a(Vinitials
p1621
g97
tp1622
a(g1621
g97
Vpassionately
p1623
tp1624
a(g286
g1416
tp1625
a(g286
g1416
g255
tp1626
a(g1485
Vnickname
p1627
tp1628
a(g1485
g1627
Vjoey
p1629
tp1630
a(g809
g360
tp1631
a(g809
g360
g361
tp1632
a(g1591
g1260
tp1633
a(g1591
g1260
g1261
tp1634
a(g37
g8
tp1635
a(g37
g8
g1377
tp1636
a(Vits
p1637
Vokhe
p1638
tp1639
a(g1637
g1638
Vsaid
p1640
tp1641
a(g867
Vperfect
p1642
tp1643
a(Vive
p1644
Vmanaged
p1645
tp1646
a(g1644
g1645
g1089
tp1647
a(Vjanelo
p1648
g53
tp1649
a(g1648
g53
g7
tp1650
a(g901
g903
tp1651
a(g1629
Vlol
p1652
tp1653
a(Vjonas
p1654
g712
tp1655
a(g1654
g712
g713
tp1656
a(g1401
g1403
tp1657
a(Vjujuampriri
p1658
Vtoofollowing
p1659
tp1660
a(g713
g715
tp1661
a(g713
g715
Vminute
p1662
tp1663
a(Vjustice
p1664
g1023
tp1665
a(g1664
g1023
g1024
tp1666
a(g181
g182
g578
tp1667
a(Vjustin
p1668
g582
g583
tp1669
a(g881
g883
tp1670
a(g881
g883
g932
tp1671
a(g1581
Vment
p1672
tp1673
a(g1581
g1672
g321
tp1674
a(Vkid
p1675
g439
tp1676
a(g1675
g439
g440
tp1677
a(Vkiss
p1678
Vspain
p1679
tp1680
a(g1205
g687
tp1681
a(g1205
g687
g688
tp1682
a(g7
g823
tp1683
a(g7
g823
g824
tp1684
a(Vknow
p1685
g994
tp1686
a(g1685
g994
g267
tp1687
a(g1208
g277
tp1688
a(g1208
g277
g1264
tp1689
a(g802
g804
tp1690
a(g802
g804
g1278
tp1691
a(g66
g1210
tp1692
a(g66
g1210
Vlove
p1693
tp1694
a(g1412
Vnever
p1695
tp1696
a(g1412
g1695
g1449
tp1697
a(Vknow
p1698
Vpeople
p1699
tp1700
a(g1698
g1699
g741
tp1701
a(Vknow
p1702
g300
tp1703
a(g1702
g300
Vtext
p1704
tp1705
a(Vknow
p1706
Vreally
p1707
tp1708
a(g1706
g1707
Vlove
p1709
tp1710
a(g518
g520
tp1711
a(g518
g520
Vlast
p1712
tp1713
a(g287
g912
tp1714
a(g287
g912
Vsong
p1715
tp1716
a(g1712
Vweek
p1717
tp1718
a(g1712
g1717
Vbestfriend
p1719
tp1720
a(g404
Vlove
p1721
tp1722
a(Vlaurenmonty
p1723
Vlove
p1724
tp1725
a(g1723
g1724
Vone
p1726
tp1727
a(g515
g1549
tp1728
a(g515
g1549
Vsong
p1729
tp1730
a(Vleast
p1731
g36
tp1732
a(g1731
g36
g1468
tp1733
a(g1465
g1016
tp1734
a(g1465
g1016
g1017
tp1735
a(g1264
g1266
tp1736
a(g1264
g1266
Vvery
p1737
tp1738
a(Vlife
p1739
g365
tp1740
a(g1739
g365
g366
tp1741
a(g288
g683
tp1742
a(g288
g683
g684
tp1743
a(g670
g355
tp1744
a(g670
g355
g356
tp1745
a(g1373
Vanyway
p1746
tp1747
a(g790
g608
tp1748
a(g790
g608
g609
tp1749
a(Vlike
p1750
Vcojcvcbggapf
p1751
tp1752
a(Vlike
p1753
g35
tp1754
a(g1753
g35
g294
tp1755
a(Vlike
p1756
g1125
g1126
tp1757
a(g347
g349
tp1758
a(g347
g349
g647
tp1759
a(g1177
g1179
tp1760
a(g1177
g1179
Vwin
p1761
tp1762
a(Vlike
p1763
Vokaay
p1764
tp1765
a(g1763
g1764
g219
tp1766
a(g444
g446
tp1767
a(g444
g446
g784
tp1768
a(g416
g299
tp1769
a(g416
g299
Vray
p1770
tp1771
a(Vlike
p1772
Vreally
p1773
tp1774
a(g1772
g1773
g1063
tp1775
a(g785
g787
tp1776
a(g1198
g42
tp1777
a(g1198
g42
g92
tp1778
a(g965
g967
tp1779
a(g965
g967
g295
tp1780
a(Vlike
p1781
Vwill
p1782
tp1783
a(g1781
g1782
g49
tp1784
a(Vliked
p1785
g1685
tp1786
a(g1785
g1685
g994
tp1787
a(g289
Vvideo
p1788
tp1789
a(g289
g1788
g181
tp1790
a(g894
g331
g332
tp1791
a(g290
g90
tp1792
a(g290
g90
g1181
tp1793
a(g530
g532
tp1794
a(g530
g532
Vdumblyricsaredumb
p1795
tp1796
a(g349
g647
tp1797
a(g349
g647
g83
tp1798
a(g424
g426
tp1799
a(g424
g426
g636
tp1800
a(g292
g1176
tp1801
a(g292
g1176
g1177
tp1802
a(g1442
g1444
tp1803
a(Vlol
p1804
Vdislike
p1805
tp1806
a(Vlol
p1807
Vsad
p1808
tp1809
a(g1807
g1808
g306
tp1810
a(g38
g471
tp1811
a(g38
g471
g4
tp1812
a(g656
g658
tp1813
a(g656
g658
g1461
tp1814
a(g578
g580
tp1815
a(g578
g580
g76
tp1816
a(Vlook
p1817
g927
tp1818
a(g1817
g927
g928
tp1819
a(Vlook
p1820
Vface
p1821
tp1822
a(g59
g988
tp1823
a(g59
g988
g1753
tp1824
a(Vlook
p1825
Vtour
p1826
tp1827
a(g1825
g1826
g594
tp1828
a(Vlooked
p1829
Vlyrics
p1830
tp1831
a(g1829
g1830
Vskys
p1832
tp1833
a(g196
g197
g98
tp1834
a(Vlooking
p1835
g1331
g1332
tp1836
a(g94
g301
tp1837
a(g94
g301
g17
tp1838
a(g95
g548
tp1839
a(g95
g548
g261
tp1840
a(g1054
g1056
tp1841
a(g1054
g1056
g1294
tp1842
a(g208
g431
tp1843
a(g208
g431
g432
tp1844
a(g199
g84
g522
tp1845
a(g205
g266
tp1846
a(g205
g266
g99
tp1847
a(Vlove
p1848
g586
g499
tp1849
a(Vlove
p1850
g589
g590
tp1851
a(g76
g50
g599
tp1852
a(Vlove
p1853
g697
tp1854
a(g1853
g697
g698
tp1855
a(Vlove
p1856
Vcomputer
p1857
tp1858
a(g837
g839
tp1859
a(g837
g839
g841
tp1860
a(Vlove
p1861
g870
tp1862
a(g1861
g870
g871
tp1863
a(g643
g645
tp1864
a(g643
g645
g1171
tp1865
a(Vlove
p1866
g1243
tp1867
a(g1866
g1243
g1244
tp1868
a(Vlove
p1869
g1248
tp1870
a(g1869
g1248
g563
tp1871
a(Vlove
p1872
g57
tp1873
a(g1872
g57
g944
tp1874
a(Vlove
p1875
g1464
tp1876
a(g1875
g1464
g1465
tp1877
a(g1585
g282
tp1878
a(g1693
g283
tp1879
a(g1693
g283
g1504
tp1880
a(Vlove
p1881
g1595
tp1882
a(g1881
g1595
g619
tp1883
a(g1363
g1364
tp1884
a(g1
g1658
tp1885
a(g1
g1658
g1659
tp1886
a(Vlove
p1887
g1668
tp1888
a(g1887
g1668
g582
tp1889
a(Vlove
p1890
g1678
tp1891
a(g1890
g1678
g1679
tp1892
a(Vlove
p1893
g1702
tp1894
a(g1893
g1702
g300
tp1895
a(Vlove
p1896
g1739
tp1897
a(g1896
g1739
g365
tp1898
a(g556
Vlifex
p1899
tp1900
a(Vlove
p1901
g292
tp1902
a(g1901
g292
g1176
tp1903
a(Vlove
p1904
Vlot
p1905
tp1906
a(Vlove
p1907
Vlt3
p1908
tp1909
a(g1452
g1508
tp1910
a(Vlove
p1911
Vmean
p1912
tp1913
a(g1911
g1912
g692
tp1914
a(g1395
g1572
tp1915
a(Vlove
p1916
Vmuch
p1917
Vlove
p1918
tp1919
a(g753
g755
Vtalented
p1920
tp1921
a(g1918
Vmursarmy
p1922
tp1923
a(g201
g202
g918
tp1924
a(g1724
g1726
Vdirection
p1925
tp1926
a(g937
g939
tp1927
a(g937
g939
Vlove
p1928
tp1929
a(Vlove
p1930
Vphil
p1931
tp1932
a(g1930
g1931
Vlester
p1933
tp1934
a(g1269
g1271
tp1935
a(g1269
g1271
g1315
tp1936
a(Vlove
p1937
Vranalt33
p1938
tp1939
a(g1378
g1380
tp1940
a(g1378
g1380
g278
tp1941
a(Vlove
p1942
Vselena
p1943
tp1944
a(Vlove
p1945
Vsense
p1946
tp1947
a(g1945
g1946
g827
tp1948
a(g449
g451
tp1949
a(g449
g451
V5ft
p1950
tp1951
a(g912
g1715
g1048
tp1952
a(g78
g41
g257
tp1953
a(g1549
g1729
Vyall
p1954
tp1955
a(Vlove
p1956
g307
tp1957
a(g1956
g307
g391
tp1958
a(g1367
g1368
tp1959
a(g1367
g1368
g1654
tp1960
a(g628
g891
tp1961
a(Vlove
p1962
Vthis
p1963
tp1964
a(g1962
g1963
Vdeeep
p1965
tp1966
a(g1459
Vtonicha
p1967
tp1968
a(g595
g597
tp1969
a(g595
g597
Vmaking
p1970
tp1971
a(g327
g329
tp1972
a(g327
g329
Vpipes
p1973
tp1974
a(Vlove
p1975
Vtvd
p1976
tp1977
a(Vlove
p1978
Vvandosen
p1979
tp1980
a(g1978
g1979
g297
tp1981
a(Vlove
p1982
Vvisiting
p1983
tp1984
a(g1982
g1983
g1354
tp1985
a(g1709
Vwaiting
p1986
tp1987
a(g1709
g1986
g87
tp1988
a(Vlove
p1989
Vwatching
p1990
tp1991
a(g1989
g1990
g545
tp1992
a(Vlove
p1993
Vwhite
p1994
tp1995
a(g1993
g1994
Vnavy
p1996
tp1997
a(g1604
g1606
tp1998
a(g1604
g1606
g101
tp1999
a(g1468
g1470
tp2000
a(Vlove
p2001
g315
tp2002
a(g2001
g315
Vmoon
p2003
tp2004
a(g31
g32
Vwhitney
p2005
tp2006
a(g526
g528
tp2007
a(Vlove
p2008
g317
tp2009
a(g2008
g317
g103
tp2010
a(g253
Vyouuu
p2011
tp2012
a(g1323
Vyouuuu
p2013
tp2014
a(Vlove
p2015
Vzacs
p2016
tp2017
a(g2015
g2016
Vstyle
p2018
tp2019
a(g1499
Vlove
p2020
tp2021
a(g1499
g2020
Vmuch
p2022
tp2023
a(g1320
Vlt3
p2024
tp2025
a(g1830
g1832
tp2026
a(g1830
g1832
g78
tp2027
a(Vmad
p2028
g423
tp2029
a(g2028
g423
g424
tp2030
a(g1059
g1061
tp2031
a(g1059
g1061
g1608
tp2032
a(g39
g1227
tp2033
a(g39
g1227
g819
tp2034
a(g204
g205
g266
tp2035
a(g1612
g1614
Vyou
p2036
tp2037
a(Vmake
p2038
Vupset
p2039
tp2040
a(g2038
g2039
Vusually
p2041
tp2042
a(Vmake
p2043
Vworries
p2044
tp2045
a(g2043
g2044
g264
tp2046
a(g293
g1289
tp2047
a(g293
g1289
g1290
tp2048
a(g402
g404
tp2049
a(g402
g404
g1721
tp2050
a(Vmales
p2051
g2038
tp2052
a(g2051
g2038
g2039
tp2053
a(g1645
g1089
tp2054
a(g1645
g1089
g1090
tp2055
a(Vmany
p2056
g969
tp2057
a(g2056
g969
g970
tp2058
a(g1617
Vshots
p2059
tp2060
a(g1617
g2059
Vyouu
p2061
tp2062
a(g96
Vtimes
p2063
tp2064
a(g96
g2063
g767
tp2065
a(Vmeal
p2066
Vdislike
p2067
tp2068
a(g1912
g692
tp2069
a(g1912
g692
g693
tp2070
a(g294
g852
tp2071
a(g294
g852
Vdislike
p2072
tp2073
a(g988
g1753
tp2074
a(g988
g1753
g35
tp2075
a(Vmeant
p2076
Vstrongly
p2077
tp2078
a(g2076
g2077
Vdislike
p2079
tp2080
a(g1318
g1320
tp2081
a(g1318
g1320
g2024
tp2082
a(g1672
g321
tp2083
a(g1672
g321
g322
tp2084
a(Vmet
p2085
g279
tp2086
a(g2085
g279
g1301
tp2087
a(g295
Vthen
p2088
tp2089
a(g295
g2088
Vreally
p2090
tp2091
a(Vmight
p2092
g1400
tp2093
a(g2092
g1400
g1401
tp2094
a(g1662
g419
tp2095
a(g1662
g419
g420
tp2096
a(g1064
g40
tp2097
a(g1064
g40
Vnowbeyond
p2098
tp2099
a(g640
g1408
tp2100
a(g640
g1408
g284
tp2101
a(g2003
Vback
p2102
tp2103
a(Vmuch
p2104
g1067
tp2105
a(g2104
g1067
g1068
tp2106
a(g906
g908
tp2107
a(g906
g908
g346
tp2108
a(g8
g1377
tp2109
a(g8
g1377
g1378
tp2110
a(g207
g208
g431
tp2111
a(g1917
g1918
g1922
tp2112
a(Vmuch
p2113
Vrespect
p2114
tp2115
a(g2113
g2114
Vvegetarians
p2116
tp2117
a(g755
g1920
tp2118
a(g755
g1920
g231
tp2119
a(g1179
g1761
tp2120
a(g1179
g1761
g2056
tp2121
a(g1340
g1342
tp2122
a(g865
g867
tp2123
a(g865
g867
g1642
tp2124
a(g1232
g1234
tp2125
a(g1232
g1234
g1583
tp2126
a(g1210
g1693
tp2127
a(g1210
g1693
g283
tp2128
a(g731
g733
tp2129
a(g731
g733
g1097
tp2130
a(g1996
Vuniform
p2131
tp2132
a(g1996
g2131
Vhot
p2133
tp2134
a(g1695
g1449
tp2135
a(g1695
g1449
g1450
tp2136
a(g297
Vcarre
p2137
tp2138
a(g1562
Vsingle
p2139
tp2140
a(g1562
g2139
g1603
tp2141
a(Vnext
p2142
g923
tp2143
a(g2142
g923
g924
tp2144
a(g1627
g1629
tp2145
a(g1627
g1629
g1652
tp2146
a(g1488
g1817
tp2147
a(g1488
g1817
g927
tp2148
a(g1068
g1070
tp2149
a(g1068
g1070
g1536
tp2150
a(Vnobody
p2151
g1501
tp2152
a(g2151
g1501
g789
tp2153
a(Vnolan
p2154
g45
tp2155
a(g2154
g45
g1510
tp2156
a(g1073
g1075
tp2157
a(g1073
g1075
g368
tp2158
a(g298
g15
tp2159
a(g298
g15
g13
tp2160
a(g860
g94
tp2161
a(g860
g94
g301
tp2162
a(g1410
g1412
tp2163
a(g1410
g1412
g1695
tp2164
a(g782
g1890
tp2165
a(g782
g1890
g1678
tp2166
a(g60
g385
tp2167
a(g60
g385
g39
tp2168
a(Vnotice
p2169
Vthanks
p2170
tp2171
a(g2098
Vdislike
p2172
tp2173
a(Vnude
p2174
Vline
p2175
tp2176
a(g1433
g1435
tp2177
a(g1433
g1435
g489
tp2178
a(g500
g373
tp2179
a(g500
g373
g374
tp2180
a(g1764
g219
tp2181
a(g1764
g219
g220
tp2182
a(g928
g930
tp2183
a(g1638
g1640
tp2184
a(g1638
g1640
Vsorry
p2185
tp2186
a(Vomg
p2187
Vsheeran
p2188
tp2189
a(g2187
g2188
g72
tp2190
a(g214
g88
g914
tp2191
a(g202
g918
g919
tp2192
a(g216
g217
g982
tp2193
a(g552
g1807
tp2194
a(g552
g1807
g1808
tp2195
a(Vone
p2196
g2043
tp2197
a(g2196
g2043
g2044
tp2198
a(g1239
g2066
tp2199
a(g1239
g2066
g2067
tp2200
a(g708
g710
tp2201
a(g708
g710
g1869
tp2202
a(g12
g24
tp2203
a(g12
g24
g448
tp2204
a(g939
g1928
tp2205
a(g939
g1928
Vbaby
p2206
tp2207
a(g701
g89
tp2208
a(g701
g89
g1232
tp2209
a(g933
g935
tp2210
a(g1352
g603
tp2211
a(g1352
g603
g604
tp2212
a(g1623
g141
tp2213
a(g1623
g141
g6
tp2214
a(g4
g436
tp2215
a(g4
g436
g437
tp2216
a(g1261
g262
tp2217
a(g1261
g262
g444
tp2218
a(g1529
g730
tp2219
a(g1529
g730
g731
tp2220
a(g1699
g741
tp2221
a(g1699
g741
g742
tp2222
a(g446
g784
tp2223
a(g446
g784
g785
tp2224
a(g219
g220
g290
tp2225
a(Vpeople
p2226
g1058
g1059
tp2227
a(g1078
g1079
tp2228
a(g1078
g1079
g1433
tp2229
a(g165
g1531
tp2230
a(g165
g1531
g1533
tp2231
a(g1082
g286
tp2232
a(g1082
g286
g1416
tp2233
a(g1195
g1373
tp2234
a(g1195
g1373
g1746
tp2235
a(g728
Vlove
p2236
tp2237
a(g1491
g1493
tp2238
a(g1491
g1493
Vpic
p2239
tp2240
a(g238
g23
tp2241
a(g238
g23
Vtheyre
p2242
tp2243
a(g1086
g1087
tp2244
a(g1086
g1087
Vteach
p2245
tp2246
a(g1159
Vweapons
p2247
tp2248
a(Vperson
p2249
g1111
g1112
tp2250
a(g97
g1623
tp2251
a(g97
g1623
g141
tp2252
a(g1274
g1387
tp2253
a(g1274
g1387
g1388
tp2254
a(Vpewdie
p2255
Veven
p2256
tp2257
a(g2255
g2256
Vthough
p2258
tp2259
a(g1931
g1933
tp2260
a(g2239
Vtweet
p2261
tp2262
a(g2239
g2261
g303
tp2263
a(g1090
g214
tp2264
a(g1090
g214
g88
tp2265
a(g1973
g1564
tp2266
a(g1973
g1564
g34
tp2267
a(g1383
g1385
tp2268
a(g1383
g1385
g96
tp2269
a(g1094
g105
tp2270
a(g1094
g105
g1382
tp2271
a(g1271
g1315
g1316
tp2272
a(g231
g232
g1318
tp2273
a(g9
g1323
tp2274
a(g9
g1323
g2013
tp2275
a(g385
g39
tp2276
a(g385
g39
g1227
tp2277
a(g780
g782
tp2278
a(g780
g782
g1890
tp2279
a(Vpoetic
p2280
g1664
tp2281
a(g2280
g1664
g1023
tp2282
a(g816
g22
tp2283
a(g1218
g1430
tp2284
a(g1218
g1430
g1431
tp2285
a(g1097
g1099
tp2286
a(g1097
g1099
g1437
tp2287
a(g1601
g722
tp2288
a(g1601
g722
g318
tp2289
a(g1493
g2239
tp2290
a(g1493
g2239
g2261
tp2291
a(g1046
g1591
tp2292
a(g1046
g1591
g1260
tp2293
a(g1102
g296
tp2294
a(g1437
g1439
tp2295
a(g299
g1770
tp2296
a(g300
g1704
tp2297
a(g300
g1704
g1545
tp2298
a(g420
g104
tp2299
a(g420
g104
Vstory
p2300
tp2301
a(Vreading
p2302
g309
tp2303
a(g2302
g309
Vright
p2304
tp2305
a(g5
g10
g82
tp2306
a(Vreally
p2307
g1007
g897
tp2308
a(g1773
g1063
g1064
tp2309
a(Vreally
p2310
g1093
g1094
tp2311
a(g1575
g1108
g1109
tp2312
a(g1306
g1139
g1140
tp2313
a(Vreally
p2314
g1528
tp2315
a(g2314
g1528
g1529
tp2316
a(g1707
g1709
tp2317
a(g1707
g1709
g1986
tp2318
a(Vreally
p2319
Vreally
p2320
tp2321
a(g2319
g2320
Vdislike
p2322
tp2323
a(Vreally
p2324
Vsure
p2325
tp2326
a(g2324
g2325
g460
tp2327
a(g2090
Vunderstood
p2328
tp2329
a(g2090
g2328
g1756
tp2330
a(g301
g17
tp2331
a(g301
g17
g275
tp2332
a(g1061
g1608
tp2333
a(g1061
g1608
g1193
tp2334
a(g970
g972
tp2335
a(g970
g972
Vyour
p2336
tp2337
a(Vrecently
p2338
g1336
tp2339
a(g2338
g1336
g1337
tp2340
a(g361
g363
tp2341
a(g1560
g1562
tp2342
a(g1560
g1562
g2139
tp2343
a(g2114
g2116
tp2344
a(g2114
g2116
g207
tp2345
a(g1380
g278
tp2346
a(g2304
g453
tp2347
a(g2304
g453
g454
tp2348
a(Vright
p2349
g813
tp2350
a(g2349
g813
g525
tp2351
a(g831
g833
tp2352
a(g831
g833
g901
tp2353
a(g40
g2098
tp2354
a(g40
g2098
g2172
tp2355
a(g351
g353
tp2356
a(g351
g353
Vdis
p2357
tp2358
a(g1808
g306
tp2359
a(g1640
g2185
tp2360
a(g1640
g2185
Vstill
p2361
tp2362
a(g1237
g1239
tp2363
a(g1237
g1239
g2066
tp2364
a(g663
g1236
tp2365
a(g663
g1236
g1237
tp2366
a(g1579
g1581
tp2367
a(g1579
g1581
g1672
tp2368
a(g720
g1956
tp2369
a(g720
g1956
g307
tp2370
a(Vsay
p2371
g2092
tp2372
a(g2371
g2092
g1400
tp2373
a(Vsay
p2374
Vscared
p2375
tp2376
a(g2374
g2375
g2371
tp2377
a(g16
g1215
tp2378
a(g16
g1215
g1441
tp2379
a(g1266
g1737
tp2380
a(g1266
g1737
g1268
tp2381
a(Vsayang
p2382
g1904
tp2383
a(g2382
g1904
g1905
tp2384
a(g442
g1106
tp2385
a(g442
g1106
Vself
p2386
tp2387
a(g2375
g2371
tp2388
a(g2375
g2371
g2092
tp2389
a(g412
g414
tp2390
a(g1583
g1585
tp2391
a(g1583
g1585
g282
tp2392
a(g98
g288
tp2393
a(g98
g288
g683
tp2394
a(g1408
g284
tp2395
a(g1408
g284
g1551
tp2396
a(g599
g601
tp2397
a(g599
g601
g102
tp2398
a(Vsee
p2399
g974
tp2400
a(g2399
g974
g660
tp2401
a(g2386
Vharm
p2402
tp2403
a(g1946
g827
tp2404
a(g1946
g827
g801
tp2405
a(g841
g843
tp2406
a(g456
g2349
tp2407
a(g456
g2349
g813
tp2408
a(g2188
g72
tp2409
a(g2188
g72
g73
tp2410
a(Vshes
p2411
g2196
tp2412
a(g2411
g2196
g2043
tp2413
a(g1215
g1441
tp2414
a(g1215
g1441
g1442
tp2415
a(g1454
g830
tp2416
a(g1454
g830
g831
tp2417
a(g451
g1950
tp2418
a(g2059
g2061
tp2419
a(g2059
g2061
g771
tp2420
a(g1334
Vtonight
p2421
tp2422
a(g1334
g2421
Vthroat
p2423
tp2424
a(Vsimplyrae01
p2425
g479
tp2426
a(g2425
g479
g480
tp2427
a(Vsince
p2428
g1345
tp2429
a(g2428
g1345
g1346
tp2430
a(g520
g1712
tp2431
a(g520
g1712
g1717
tp2432
a(g99
g552
tp2433
a(g99
g552
g1807
tp2434
a(g2139
g1603
tp2435
a(g2139
g1603
g1604
tp2436
a(g1832
g78
tp2437
a(g1832
g78
g41
tp2438
a(Vsleep
p2439
Vwell
p2440
tp2441
a(g2439
g2440
g2382
tp2442
a(g302
g1496
tp2443
a(g302
g1496
g1497
tp2444
a(g1112
g1114
tp2445
a(g726
g728
tp2446
a(g726
g728
g2236
tp2447
a(g1117
g885
tp2448
a(g1117
g885
g886
tp2449
a(g1121
g1123
tp2450
a(g471
g4
tp2451
a(g471
g4
g436
tp2452
a(g353
g2357
tp2453
a(g1126
g1128
tp2454
a(Vsomeone
p2455
Vwillingly
p2456
tp2457
a(g2455
g2456
g1820
tp2458
a(g61
Vyells
p2459
tp2460
a(g61
g2459
Vstop
p2461
tp2462
a(g303
g1750
tp2463
a(g303
g1750
g1751
tp2464
a(g1106
g2386
tp2465
a(g1106
g2386
g2402
tp2466
a(g1715
g1048
tp2467
a(g1715
g1048
g1049
tp2468
a(g532
g1795
tp2469
a(g678
g680
tp2470
a(g678
g680
g512
tp2471
a(g41
g257
tp2472
a(g41
g257
g258
tp2473
a(g1729
g1954
tp2474
a(g1729
g1954
Vknow
p2475
tp2476
a(Vsongsthatwillnevergetold
p2477
g406
tp2478
a(g2477
g406
g407
tp2479
a(g772
g774
tp2480
a(g772
g774
g1393
tp2481
a(g305
g556
tp2482
a(g305
g556
g1899
tp2483
a(g1244
g1246
tp2484
a(g1244
g1246
g1340
tp2485
a(g2185
g2361
tp2486
a(g2185
g2361
g2028
tp2487
a(g1031
g1310
tp2488
a(Vspell
p2489
g952
tp2490
a(g2489
g952
g953
tp2491
a(g1131
g1133
tp2492
a(g1131
g1133
g411
tp2493
a(Vstarting
p2494
g1166
tp2495
a(g2494
g1166
g1167
tp2496
a(g1136
g338
tp2497
a(g1136
g338
g339
tp2498
a(g324
g474
tp2499
a(g324
g474
g937
tp2500
a(g658
g1461
tp2501
a(g658
g1461
g1028
tp2502
a(g42
g92
tp2503
a(g2361
g2028
tp2504
a(g2361
g2028
g423
tp2505
a(Vstone
p2506
g1763
tp2507
a(g2506
g1763
g1764
tp2508
a(g2461
g65
tp2509
a(g2461
g65
g66
tp2510
a(g2300
Vplease
p2511
tp2512
a(g1541
g1543
tp2513
a(g1541
g1543
g2076
tp2514
a(g243
g244
g1020
tp2515
a(g1140
g558
tp2516
a(g1140
g558
g559
tp2517
a(g653
g44
tp2518
a(g705
g1459
tp2519
a(g705
g1459
g1967
tp2520
a(g2018
Vthink
p2521
tp2522
a(g2018
g2521
Vtry
p2523
tp2524
a(Vsunnysideeup
p2525
g236
tp2526
a(g2525
g236
g237
tp2527
a(g358
g1360
tp2528
a(g358
g1360
g2142
tp2529
a(g2325
g460
tp2530
a(g2325
g460
g461
tp2531
a(g100
Vlove
p2532
tp2533
a(g1551
g1553
tp2534
a(g540
g1519
tp2535
a(g540
g1519
g910
tp2536
a(g1337
g735
tp2537
a(g1337
g735
g492
tp2538
a(g101
Vlisten
p2539
tp2540
a(g675
g1617
tp2541
a(g675
g1617
g2059
tp2542
a(g715
g1662
tp2543
a(g715
g1662
g419
tp2544
a(Vtaken
p2545
g143
tp2546
a(g2545
g143
g144
tp2547
a(g1920
g231
tp2548
a(g1920
g231
g232
tp2549
a(g2245
Vlesson
p2550
tp2551
a(g962
g1785
tp2552
a(g962
g1785
g1685
tp2553
a(g1599
g1601
tp2554
a(g1599
g1601
g722
tp2555
a(g1704
g1545
tp2556
a(g1704
g1545
g263
tp2557
a(g1497
g1499
tp2558
a(g1497
g1499
g2020
tp2559
a(g307
g391
tp2560
a(g307
g391
g392
tp2561
a(g308
g899
tp2562
a(g308
g899
g16
tp2563
a(g468
g1144
tp2564
a(g1368
g1654
tp2565
a(g1368
g1654
g712
tp2566
a(g967
g295
tp2567
a(g967
g295
g2088
tp2568
a(g2088
g2090
tp2569
a(g2088
g2090
g2328
tp2570
a(g103
g100
tp2571
a(g103
g100
g2532
tp2572
a(Vthere
p2573
Vtime
p2574
tp2575
a(g2573
g2574
g964
tp2576
a(g2242
g573
tp2577
a(g2242
g573
g574
tp2578
a(g710
g1869
tp2579
a(g710
g1869
g1248
tp2580
a(Vthink
p2581
g274
tp2582
a(g2581
g274
g837
tp2583
a(g1519
g910
tp2584
a(g1519
g910
g287
tp2585
a(g434
g1218
tp2586
a(g434
g1218
g1430
tp2587
a(g23
g2242
tp2588
a(g23
g2242
g573
tp2589
a(g2521
g2523
tp2590
a(g2521
g2523
g2174
tp2591
a(g1147
g1149
tp2592
a(g1147
g1149
g1481
tp2593
a(g1963
g1965
tp2594
a(Vthis
p2595
g1930
tp2596
a(g2595
g1930
g1931
tp2597
a(g104
g2300
tp2598
a(g104
g2300
g2511
tp2599
a(g878
g1135
g1136
tp2600
a(g1303
g2411
tp2601
a(g1303
g2411
g2196
tp2602
a(g2423
g534
tp2603
a(g2423
g534
g313
tp2604
a(Vtigoy
p2605
g1207
tp2606
a(g2605
g1207
g1208
tp2607
a(Vtigue
p2608
Vwish
p2609
tp2610
a(g2608
g2609
g845
tp2611
a(g569
g571
tp2612
a(g569
g571
Vsooverthis
p2613
tp2614
a(g24
g448
tp2615
a(g24
g448
g449
tp2616
a(g1504
g811
tp2617
a(g1504
g811
g291
tp2618
a(g2574
g964
tp2619
a(g2574
g964
g965
tp2620
a(g1221
g164
tp2621
a(g1221
g164
g165
tp2622
a(g888
g1488
tp2623
a(g888
g1488
g1817
tp2624
a(g1301
g1303
tp2625
a(g1301
g1303
g2411
tp2626
a(g2063
g767
tp2627
a(g2063
g767
g768
tp2628
a(g2421
g2423
tp2629
a(g2421
g2423
g534
tp2630
a(g1385
g96
tp2631
a(g1385
g96
g2063
tp2632
a(g597
g1970
tp2633
a(g1826
g594
tp2634
a(g1826
g594
g595
tp2635
a(g1360
g2142
tp2636
a(g1360
g2142
g923
tp2637
a(g329
g1973
tp2638
a(g329
g1973
g1564
tp2639
a(g820
g28
tp2640
a(g820
g28
g29
tp2641
a(g105
g1382
tp2642
a(g105
g1382
g1383
tp2643
a(g2523
g2174
tp2644
a(g2523
g2174
g2175
tp2645
a(g1087
g2245
tp2646
a(g1087
g2245
g2550
tp2647
a(g688
g690
tp2648
a(g688
g690
g1410
tp2649
a(g680
g512
tp2650
a(g680
g512
g513
tp2651
a(Vturtles
p2652
g1675
tp2653
a(g2652
g1675
g439
tp2654
a(g309
g2304
tp2655
a(g309
g2304
g453
tp2656
a(g2261
g303
tp2657
a(g2261
g303
g1750
tp2658
a(Vugh
p2659
g1101
tp2660
a(g2659
g1101
g1102
tp2661
a(g622
g764
tp2662
a(g622
g764
g765
tp2663
a(g972
g2336
tp2664
a(g972
g2336
g2489
tp2665
a(g2328
g1756
tp2666
a(g2328
g1756
g1125
tp2667
a(g2131
g2133
tp2668
a(g854
g265
tp2669
a(g854
g265
g530
tp2670
a(g310
g957
tp2671
a(g2039
g2041
tp2672
a(g2039
g2041
g1146
tp2673
a(g2041
g1146
tp2674
a(g2041
g1146
g1147
tp2675
a(g311
g1485
tp2676
a(g311
g1485
g1627
tp2677
a(g1979
g297
tp2678
a(g1979
g297
g2137
tp2679
a(g2116
g207
tp2680
a(g2116
g207
g208
tp2681
a(g1737
g1268
tp2682
a(g1737
g1268
g1269
tp2683
a(g1075
g368
tp2684
a(g1075
g368
g369
tp2685
a(g1788
g181
tp2686
a(g1788
g181
g182
tp2687
a(g1152
g1154
tp2688
a(g1152
g1154
g2169
tp2689
a(Vvirtues
p2690
g1072
tp2691
a(g2690
g1072
g1073
tp2692
a(g1983
g1354
tp2693
a(g1983
g1354
g1355
tp2694
a(g742
g744
tp2695
a(g742
g744
g1152
tp2696
a(g1986
g87
tp2697
a(g1986
g87
g816
tp2698
a(g718
g720
tp2699
a(g718
g720
g1956
tp2700
a(g312
g1706
tp2701
a(g312
g1706
g1707
tp2702
a(g960
g962
tp2703
a(g960
g962
g1785
tp2704
a(g485
g487
tp2705
a(g485
g487
g875
tp2706
a(g252
g253
g2011
tp2707
a(g919
g921
tp2708
a(g1990
g545
tp2709
a(g1990
g545
g546
tp2710
a(g583
g81
tp2711
a(g583
g81
g416
tp2712
a(g313
g476
tp2713
a(g313
g476
g477
tp2714
a(g1157
g1159
tp2715
a(g1157
g1159
g2247
tp2716
a(g807
g809
tp2717
a(g807
g809
g360
tp2718
a(g1533
g273
tp2719
a(g1533
g273
g725
tp2720
a(g1717
g1719
tp2721
a(g1149
g1481
g977
tp2722
a(g255
g91
g311
tp2723
a(g2440
g2382
tp2724
a(g2440
g2382
g1904
tp2725
a(g1332
g1334
tp2726
a(g1332
g1334
g2421
tp2727
a(Vwhat
p2728
g2581
tp2729
a(g2728
g2581
g274
tp2730
a(g571
g2613
tp2731
a(Vwhen
p2732
g2085
tp2733
a(g2732
g2085
g279
tp2734
a(Vwhen
p2735
g2249
tp2736
a(g2735
g2249
g1111
tp2737
a(g106
g61
tp2738
a(g106
g61
g2459
tp2739
a(g1994
g1996
tp2740
a(g1994
g1996
g2131
tp2741
a(g2005
g1588
tp2742
a(g2005
g1588
g304
tp2743
a(g1162
g1164
tp2744
a(g1162
g1164
g1454
tp2745
a(g924
g665
tp2746
a(g924
g665
g666
tp2747
a(g561
g880
tp2748
a(g561
g880
g881
tp2749
a(Vwhy
p2750
g1286
tp2751
a(g2750
g1286
g1002
tp2752
a(g107
g298
tp2753
a(g107
g298
g15
tp2754
a(g1536
g1538
tp2755
a(g1536
g1538
g2455
tp2756
a(g1782
g49
tp2757
a(g1782
g49
g31
tp2758
a(g2456
g1820
tp2759
a(g2456
g1820
g1821
tp2760
a(g1761
g2056
tp2761
a(g1761
g2056
g969
tp2762
a(g369
g371
tp2763
a(g2609
g845
g672
tp2764
a(g257
g258
g854
tp2765
a(g1435
g489
tp2766
a(g1435
g489
g490
tp2767
a(g314
g653
tp2768
a(g314
g653
g44
tp2769
a(g559
g561
tp2770
a(g559
g561
g880
tp2771
a(g1543
g2076
tp2772
a(g1543
g2076
g2077
tp2773
a(g1167
g1169
tp2774
a(g668
g670
tp2775
a(g668
g670
g355
tp2776
a(g2044
g264
tp2777
a(g2044
g264
g508
tp2778
a(g1294
g1296
tp2779
a(g45
g1510
tp2780
a(g45
g1510
g1419
tp2781
a(g454
g456
tp2782
a(g454
g456
g2349
tp2783
a(g1538
g2455
tp2784
a(g1538
g2455
g2456
tp2785
a(g1606
g101
tp2786
a(g1606
g101
g2539
tp2787
a(g858
g860
tp2788
a(g858
g860
g94
tp2789
a(Vx33
p2790
g1804
tp2791
a(g2790
g1804
g1805
tp2792
a(g1954
g2475
tp2793
a(g315
g2003
tp2794
a(g315
g2003
g2102
tp2795
a(g1171
g1173
tp2796
a(g1154
g2169
tp2797
a(g1154
g2169
g2170
tp2798
a(g1346
g316
tp2799
a(g1346
g316
g226
tp2800
a(g2459
g2461
tp2801
a(g2459
g2461
g65
tp2802
a(Vyes
p2803
g1887
tp2804
a(g2803
g1887
g1668
tp2805
a(g1292
g401
tp2806
a(g1292
g401
g402
tp2807
a(g580
g76
g50
tp2808
a(g13
g1
g1658
tp2809
a(Vyou
p2810
g2399
tp2811
a(g2810
g2399
g974
tp2812
a(g32
g2005
tp2813
a(g32
g2005
g1588
tp2814
a(g2336
g2489
tp2815
a(g2336
g2489
g952
tp2816
a(Vyoure
p2817
g268
tp2818
a(g2817
g268
g624
tp2819
a(g316
g226
tp2820
a(g316
g226
g227
tp2821
a(g2061
g771
tp2822
a(g2061
g771
g772
tp2823
a(g317
g103
tp2824
a(g317
g103
g100
tp2825
a(g2016
g2018
tp2826
a(g2016
g2018
g2521
tp2827
ag318
ag321
ag326
ag1950
ag338
ag339
ag355
ag360
ag365
ag368
ag477
ag373
ag378
ag980
ag383
ag387
ag747
ag363
ag406
ag411
ag423
ag428
ag739
ag431
ag436
ag448
ag1296
ag1746
ag322
ag476
ag479
ag484
ag489
ag492
ag379
ag1173
ag504
ag517
ag534
ag537
ag542
ag545
ag548
ag558
ag563
ag392
ag573
ag603
ag608
ag619
ag426
ag543
ag647
ag655
ag672
ag677
ag590
ag683
ag687
ag692
ag1000
ag700
ag508
ag707
ag712
ag717
ag722
ag725
ag730
ag735
ag429
ag738
ag741
ag746
ag2137
ag767
ag771
ag776
ag779
ag784
ag789
ag793
ag798
ag371
ag801
ag1123
ag437
ag1751
ag806
ag811
ag823
ag414
ag827
ag1857
ag830
ag768
ag916
ag601
ag870
ag875
ag880
ag1144
ag893
ag897
ag833
ag905
ag910
ag927
ag932
ag1965
ag474
ag611
ag341
ag944
ag949
ag952
ag955
ag959
ag964
ag969
ag974
ag977
ag986
ag2357
ag1176
ag1181
ag871
ag873
ag765
ag1227
ag344
ag609
ag1795
ag576
ag1243
ag1248
ag1260
ag1821
ag1024
ag908
ag804
ag332
ag566
ag1056
ag1298
ag1305
ag1029
ag1133
ag1336
ag1246
ag1034
ag1345
ag1349
ag1354
ag1039
ag1377
ag1382
ag1387
ag631
ag883
ag1416
ag1441
ag1021
ag510
ag1475
ag497
ag1490
ag914
ag1496
ag1450
ag1510
ag538
ag2402
ag1540
ag1545
ag693
ag824
ag1564
ag1566
ag684
ag1393
ag1574
ag1578
ag1234
ag2133
ag1225
ag1588
ag796
ag487
ag1598
ag1603
ag1608
ag1388
ag1026
ag1621
ag1644
ag1364
ag1648
ag901
ag1355
ag1629
ag1654
ag1401
ag1658
ag713
ag1664
ag881
ag1581
ag1675
ag1678
ag1712
ag404
ag1723
ag515
ag1731
ag2550
ag1933
ag1465
ag1264
ag1899
ag349
ag2175
ag1442
ag1398
ag578
ag1829
ag1499
ag1508
ag1114
ag1830
ag2028
ag1059
ag1970
ag2051
ag1444
ag1645
ag2066
ag988
ag2076
ag1431
ag1318
ag1672
ag2092
ag1662
ag1572
ag1064
ag640
ag1036
ag2003
ag546
ag1340
ag1922
ag1232
ag1342
ag1210
ag731
ag1996
ag1695
ag2142
ag1627
ag1488
ag1068
ag2151
ag2154
ag1073
ag376
ag2098
ag2174
ag1433
ag500
ag1764
ag928
ag1638
ag2187
ag939
ag701
ag933
ag843
ag1352
ag1623
ag1642
ag1274
ag2255
ag1931
ag2239
ag1090
ag1973
ag957
ag1383
ag1094
ag336
ag2280
ag816
ag1218
ag1097
ag903
ag1601
ag1493
ag1046
ag1102
ag1938
ag1437
ag2302
ag970
ag2338
ag361
ag1560
ag2114
ag787
ag1380
ag351
ag1808
ag1640
ag1237
ag663
ag1169
ag2382
ag442
ag2375
ag412
ag1583
ag1408
ag599
ag2399
ag1943
ag2386
ag1946
ag841
ag456
ag2188
ag2411
ag1215
ag1454
ag451
ag2059
ag1334
ag2425
ag2139
ag1832
ag2439
ag726
ag1117
ag1121
ag471
ag1244
ag2613
ag666
ag2185
ag1679
ag1031
ag2489
ag1131
ag953
ag2494
ag2506
ag2461
ag1541
ag1140
ag653
ag705
ag2018
ag2525
ag358
ag540
ag1337
ag2545
ag1920
ag2245
ag1599
ag1278
ag1704
ag1497
ag891
ag2573
ag2242
ag710
ag1303
ag2423
ag2605
ag2608
ag569
ag2063
ag947
ag1967
ag2421
ag1385
ag1659
ag597
ag1826
ag1360
ag329
ag820
ag688
ag680
ag2652
ag1976
ag2659
ag972
ag2328
ag2131
ag854
ag1979
ag2116
ag1737
ag1075
ag1788
ag1152
ag2690
ag1983
ag742
ag1986
ag718
ag485
ag919
ag1990
ag1157
ag2247
ag807
ag1533
ag1717
ag2440
ag1332
ag2728
ag571
ag1994
ag2005
ag1162
ag924
ag561
ag1782
ag2456
ag1761
ag369
ag559
ag1543
ag1167
ag668
ag2044
ag858
ag930
ag381
ag2790
ag1470
ag1171
ag1154
ag1346
ag2459
ag2803
ag458
ag482
ag528
ag2336
ag2011
ag2013
ag366
ag2016
a.