(lp0
Vlove
p1
aVdislike
p2
aVpeople
p3
aVdont
p4
aVyou
p5
aVfollow
p6
aVlike
p7
aVplease
p8
aVsay
p9
aVtime
p10
a(Vacc
p11
Vmbf
p12
tp13
a(Vlikedislike
p14
g11
tp15
a(g14
g11
g12
tp16
a(Vlove
p17
Vyou
p18
tp19
ag11
aVhate
p20
aVknow
p21
ag14
ag12
aVmusic
p22
aVone
p23
aVthink
p24
a(Vacknowledge
p25
Vexistence
p26
tp27
a(g25
g26
Vfollow
p28
tp29
a(Vbabe
p30
Vbirthday
p31
tp32
a(g30
g31
Vdays
p33
tp34
a(g31
g33
tp35
a(g31
g33
g8
tp36
a(g33
g8
tp37
a(g33
g8
g25
tp38
a(Vdislike
p39
Vradio
p40
tp41
a(g39
g40
Vmusic
p42
tp43
a(g26
g28
tp44
a(g26
g28
g9
tp45
a(g28
g9
tp46
a(g28
g9
Vplease
p47
tp48
a(Vliam
p49
g17
tp50
a(g49
g17
g18
tp51
a(Vliampayne
p52
g30
tp53
a(g52
g30
g31
tp54
a(Vlove
p55
Vbig
p56
tp57
a(g8
g25
tp58
a(g8
g25
g26
tp59
a(g47
g49
tp60
a(g47
g49
g17
tp61
a(g40
g42
tp62
a(g9
g47
tp63
a(g9
g47
g49
tp64
a(Vugh
p65
g39
tp66
a(g65
g39
g40
tp67
a(g5
Vlove
p68
tp69
ag25
aVaunt
p70
ag30
ag56
aVbird
p71
ag31
aVbody
p72
aVcause
p73
aVconverse
p74
aVcute
p75
aVday
p76
ag33
aVeven
p77
ag26
aVgoing
p78
aVguess
p79
ag49
ag52
aVliked
p80
aVlol
p81
aVmake
p82
aVmuch
p83
ag40
aVsong
p84
aVsongsthatwillnevergetold
p85
ag65
aVwhy
p86
aVyoure
p87
a(V100
p88
Vdislike
p89
tp90
a(V4ammy
p91
g70
tp92
a(g91
g70
Vpassed
p93
tp94
a(Vaccepted
p95
Vaccidentally
p96
tp97
a(g95
g96
Vdeliberately
p98
tp99
a(g96
g98
tp100
a(g96
g98
Vdropped
p101
tp102
a(Vactual
p103
Vfuck
p104
tp105
a(g103
g104
Vsupposed
p106
tp107
a(Vaka
p108
Vassburger
p109
tp110
a(g108
g109
Vwth
p111
tp112
a(Vamazing
p113
Vlove
p114
tp115
a(g113
g114
g83
tp116
a(Vannoy
p117
Vcodxpmickfxd
p118
tp119
a(Vanswer
p120
Vyet
p121
tp122
a(Vanyone
p123
Vlol
p124
tp125
a(g123
g124
Vsome
p126
tp127
a(Varent
p128
Vsexy
p129
tp130
a(g128
g129
Vcorvettes
p131
tp132
a(Varound
p133
g91
tp134
a(g133
g91
g70
tp135
a(Vasked
p136
Vwanted
p137
tp138
a(g136
g137
Vice
p139
tp140
a(Vasperger
p141
g108
tp142
a(g141
g108
g109
tp143
a(g109
g111
tp144
a(Vaunt
p145
Vfran
p146
tp147
a(g145
g146
Vmiss
p148
tp149
a(g70
g93
tp150
a(g70
g93
Vaway
p151
tp152
a(g151
Vlove
p153
tp154
a(g151
g153
g145
tp155
a(Vback
p156
Vliking
p157
tp158
a(g156
g157
Vsong
p159
tp160
a(Vband
p161
Vmakes
p162
tp163
a(g161
g162
Vstart
p164
tp165
a(Vbeautiful
p166
Vpictures
p167
tp168
a(g166
g167
Vlooks
p169
tp170
a(Vbed
p171
Vsince
p172
tp173
a(g171
g172
Vone
p174
tp175
a(Vbestfriend
p176
Vtim
p177
tp178
a(g176
g177
Vwhatever
p179
tp180
a(Vbieber
p181
Vlong
p182
tp183
a(g181
g182
Vyou
p184
tp185
a(g56
Vbooty
p186
tp187
a(g56
g186
Vbitches
p188
tp189
a(Vbig
p190
Vsean
p191
tp192
a(g190
g191
Vcover
p193
tp194
a(Vbion
p195
Vdislike
p196
tp197
a(g195
g196
Vuname
p198
tp199
a(g71
Vbird
p200
tp201
a(g71
g200
g75
tp202
a(g200
g75
tp203
a(g200
g75
g1
tp204
a(Vbody
p205
Vsore
p206
tp207
a(g72
Vworkouts
p208
tp209
a(g72
g208
Vlike
p210
tp211
a(g186
g188
tp212
a(Vbunny
p213
g88
tp214
a(g213
g88
g89
tp215
a(Vbusy
p216
Vsmoking
p217
tp218
a(g216
g217
Vpeople
p219
tp220
a(Vcalled
p221
g141
tp222
a(g221
g141
g108
tp223
a(Vcarlyfollowme
p224
Vlove
p225
tp226
a(g224
g225
Vyou
p227
tp228
a(Vcause
p229
g216
tp230
a(g229
g216
g217
tp231
a(g73
Vdouble
p232
tp233
a(Vcertain
p234
g3
tp235
a(Vcoach
p236
Vwells
p237
tp238
a(Vcollaborate
p239
Vlisten
p240
tp241
a(g74
Vlove
p242
tp243
a(g74
g242
Vconverse
p244
tp245
a(g244
Vseveral
p246
tp247
a(g244
g246
Vpair
p248
tp249
a(Vcould
p250
Vunsee
p251
tp252
a(g250
g251
g156
tp253
a(g193
Vthe
p254
tp255
a(Vcream
p256
Veven
p257
tp258
a(g256
g257
Vthough
p259
tp260
a(Vcute
p261
Vguys
p262
tp263
a(g261
g262
g10
tp264
a(g75
g1
tp265
a(g75
g1
Vthenotebook
p266
tp267
a(g76
Vhahahaha
p268
tp269
a(g76
g268
Vcorokpy8f4k4
p270
tp271
a(Vday
p272
Vwhole
p273
tp274
a(g272
g273
g205
tp275
a(Vdecent
p276
Vokay
p277
tp278
a(g276
g277
Vwtf
p279
tp280
a(g98
g101
tp281
a(Vdentist
p282
Vgoing
p283
tp284
a(g282
g283
Vtomorrow
p285
tp286
a(Vdesire
p287
Vspotify
p288
tp289
a(Vdid
p290
Vwant
p291
tp292
a(g290
g291
Vtell
p293
tp294
a(Vdif
p295
Vreasons
p296
tp297
a(g295
g296
Vunder
p298
tp299
a(Vdifferent
p300
Vguess
p301
tp302
a(g300
g301
Valien
p303
tp304
a(Vdirection
p305
Vdont
p306
tp307
a(g305
g306
g77
tp308
a(Vdislike
p309
g123
tp310
a(g309
g123
g124
tp311
a(Vdislike
p312
g176
tp313
a(g312
g176
g177
tp314
a(g2
g234
tp315
a(g2
g234
g3
tp316
a(Vdislike
p317
g236
tp318
a(g317
g236
g237
tp319
a(Vdislike
p320
Vdont
p321
tp322
a(g320
g321
Vreally
p323
tp324
a(Vdislike
p325
Vfull
p326
tp327
a(g325
g326
g72
tp328
a(Vdislike
p329
Vkinda
p330
tp331
a(g329
g330
g24
tp332
a(Vdislike
p333
Vmade
p334
tp335
a(g333
g334
Vreason
p336
tp337
a(Vdislike
p338
Vmustangs
p339
tp340
a(g338
g339
g128
tp341
a(Vdislike
p342
Voomf
p343
tp344
a(Vdislike
p345
Vpicture
p346
tp347
a(g345
g346
Vone
p348
tp349
a(Vdislike
p350
Vsnapchating
p351
tp352
a(g350
g351
g261
tp353
a(Vdislike
p354
Vstill
p355
tp356
a(g354
g355
g95
tp357
a(Vdislike
p358
Vthink
p359
tp360
a(g358
g359
Vweird
p361
tp362
a(g196
g198
tp363
a(g196
g198
g73
tp364
a(Vdislike
p365
Vweak
p366
tp367
a(g365
g366
Vpeople
p368
tp369
a(Vdisoveries
p370
Vlike
p371
tp372
a(g370
g371
Vmuch
p373
tp374
a(g306
g77
tp375
a(g306
g77
Vfollow
p376
tp377
a(g4
Vfucking
p378
tp379
a(g4
g378
Vpeople
p380
tp381
a(Vdont
p382
Vknow
p383
tp384
a(g382
g383
Vname
p385
tp386
a(g321
g323
tp387
a(g321
g323
g309
tp388
a(Vdont
p389
Vtime
p390
tp391
a(g389
g390
Vhate
p392
tp393
a(g77
g376
tp394
a(g77
g376
Vdislike
p395
tp396
a(g257
g259
tp397
a(g257
g259
g354
tp398
a(Vevery
p399
Vfriday
p400
tp401
a(Vfeel
p402
g2
tp403
a(g402
g2
g234
tp404
a(g376
g395
tp405
a(g6
g5
tp406
a(g6
g5
g68
tp407
a(Vfound
p408
Vsyndrome
p409
tp410
a(g408
g409
g221
tp411
a(g146
g148
tp412
a(g146
g148
Vdearly
p413
tp414
a(g104
g106
tp415
a(g104
g106
Vtrain
p416
tp417
a(g378
g380
tp418
a(g378
g380
g7
tp419
a(g326
g72
tp420
a(g326
g72
g208
tp421
a(Vget
p422
Vjudged
p423
tp424
a(g422
g423
Vlove
p425
tp426
a(Vgetting
p427
Vpaid
p428
tp429
a(g427
g428
g399
tp430
a(g78
g282
tp431
a(g78
g282
g283
tp432
a(g283
g285
tp433
a(Vgrandma
p434
g136
tp435
a(g434
g136
g137
tp436
a(Vgrowing
p437
Vpopularity
p438
tp439
a(g437
g438
g161
tp440
a(g301
g303
tp441
a(g79
g300
tp442
a(g79
g300
g301
tp443
a(g262
g10
tp444
a(g262
g10
Vnight
p445
tp446
a(g268
g270
tp447
a(Vhammer
p448
Vtime
p449
tp450
a(g448
g449
g239
tp451
a(g20
g23
tp452
a(g20
g23
g305
tp453
a(g392
Vpeople
p454
tp455
a(g392
g454
Vhate
p456
tp457
a(g456
Vweed
p458
tp459
a(g456
g458
g229
tp460
a(Vhavent
p461
g120
tp462
a(g461
g120
g121
tp463
a(g139
g256
tp464
a(g139
g256
g257
tp465
a(Vicon
p466
g195
tp467
a(g466
g195
g196
tp468
a(Videntify
p469
Vterm
p470
tp471
a(g469
g470
Vpuck
p472
tp473
a(Vidgaf
p474
g4
tp475
a(g474
g4
g378
tp476
a(Vinitials
p477
Vperson
p478
tp479
a(g477
g478
Vpassionately
p480
tp481
a(Vive
p482
Vmanaged
p483
tp484
a(g482
g483
g345
tp485
a(Vjett
p486
Vlove
p487
tp488
a(g486
g487
Vrock
p489
tp490
a(Vjoan
p491
g486
tp492
a(g491
g486
g487
tp493
a(g423
g425
tp494
a(Vjujuampriri
p495
Vtoofollowing
p496
tp497
a(Vjustin
p498
g181
tp499
a(g498
g181
g182
tp500
a(Vkind
p501
g22
tp502
a(g501
g22
Vfan
p503
tp504
a(g330
g24
tp505
a(g330
g24
Vyoure
p506
tp507
a(Vknow
p508
g312
tp509
a(g508
g312
g176
tp510
a(g383
g385
tp511
a(g383
g385
Vlove
p512
tp513
a(g21
Vread
p514
tp515
a(g21
g514
Vtext
p516
tp517
a(g210
g103
tp518
a(g210
g103
g104
tp519
a(g7
Vanyway
p520
tp521
a(g371
g373
tp522
a(g371
g373
Vwin
p523
tp524
a(Vlike
p525
Vwonderful
p526
tp527
a(g525
g526
Vrelaxing
p528
tp529
a(Vliked
p530
g508
tp531
a(g530
g508
g312
tp532
a(g80
Vvideo
p533
tp534
a(g80
g533
g498
tp535
a(g157
g159
tp536
a(g157
g159
Vdumblyricsaredumb
p537
tp538
a(Vlittle
p539
g370
tp540
a(g539
g370
g371
tp541
a(g81
Vsad
p542
tp543
a(g81
g542
Vstory
p544
tp545
a(g124
g126
tp546
a(g124
g126
Vpeople
p547
tp548
a(g182
g184
tp549
a(g182
g184
Vlove
p550
tp551
a(Vlook
p552
g276
tp553
a(g552
g276
g277
tp554
a(Vlooked
p555
Vlyrics
p556
tp557
a(g555
g556
Vskys
p558
tp559
a(g169
g525
tp560
a(g169
g525
g526
tp561
a(g153
g145
tp562
a(g153
g145
g146
tp563
a(Vlove
p564
g171
tp565
a(g564
g171
g172
tp566
a(g55
g56
g186
tp567
a(g550
g190
g191
tp568
a(Vlove
p569
Vbrother
p570
tp571
a(g242
g244
tp572
a(g242
g244
g246
tp573
a(Vlove
p574
g427
tp575
a(g574
g427
g428
tp576
a(Vlove
p577
g78
tp578
a(g577
g78
g282
tp579
a(g512
g448
tp580
a(g512
g448
g449
tp581
a(Vlove
p582
g466
tp583
a(g582
g466
g195
tp584
a(g68
g495
tp585
a(g68
g495
g496
tp586
a(Vlove
p587
g21
tp588
a(g587
g21
g514
tp589
a(Vlove
p590
g539
tp591
a(g590
g539
g370
tp592
a(g114
g83
tp593
a(Vlove
p594
Vranalt33
p595
tp596
a(Vlove
p597
Vrays
p598
tp599
a(g597
g598
Vsunshine
p600
tp601
a(g487
g489
tp602
a(g487
g489
Vroll
p603
tp604
a(Vlove
p605
g84
tp606
a(g605
g84
Vwish
p607
tp608
a(g1
g266
tp609
a(Vlove
p610
Vvandosen
p611
tp612
a(g610
g611
Vnew
p613
tp614
a(g225
g227
Vmuch13
p615
tp616
a(g556
g558
tp617
a(g556
g558
g605
tp618
a(g334
g336
tp619
a(g334
g336
g474
tp620
a(Vmake
p621
g564
tp622
a(g621
g564
g171
tp623
a(g82
Vupset
p624
tp625
a(g82
g624
Vusually
p626
tp627
a(g162
g164
tp628
a(g162
g164
g329
tp629
a(Vmales
p630
g82
tp631
a(g630
g82
g624
tp632
a(g483
g345
tp633
a(g483
g345
g346
tp634
a(Vmany
p635
g295
tp636
a(g635
g295
g296
tp637
a(Vmight
p638
g422
tp639
a(g638
g422
g423
tp640
a(g148
g413
tp641
a(Vmorning
p642
g133
tp643
a(g642
g133
g91
tp644
a(g373
g523
tp645
a(g373
g523
g635
tp646
a(g22
g503
tp647
a(g339
g128
tp648
a(g339
g128
g129
tp649
a(g385
g512
tp650
a(g385
g512
g448
tp651
a(g613
Vcarre
p652
tp653
a(Vnext
p654
g272
tp655
a(g654
g272
g273
tp656
a(g445
g552
tp657
a(g445
g552
g276
tp658
a(Vnot
p659
g6
tp660
a(g659
g6
g5
tp661
a(g277
g279
tp662
a(g348
g76
tp663
a(g348
g76
g268
tp664
a(g23
g305
tp665
a(g23
g305
g306
tp666
a(g174
g81
tp667
a(g174
g81
g542
tp668
a(g428
g399
tp669
a(g428
g399
g400
tp670
a(g93
g151
tp671
a(g93
g151
g153
tp672
a(g480
g320
tp673
a(g480
g320
g321
tp674
a(g547
g117
tp675
a(g547
g117
g118
tp676
a(Vpeople
p677
g333
tp678
a(g677
g333
g334
tp679
a(g454
g456
tp680
a(g454
g456
g458
tp681
a(g380
g7
tp682
a(g380
g7
g520
tp683
a(g219
Vlove
p684
tp685
a(g368
Vweapons
p686
tp687
a(g478
g480
tp688
a(g478
g480
g320
tp689
a(g346
g348
tp690
a(g346
g348
g76
tp691
a(g167
g169
tp692
a(g167
g169
g525
tp693
a(g438
g161
tp694
a(g438
g161
g162
tp695
a(g472
g213
tp696
a(g472
g213
g88
tp697
a(g598
g600
tp698
a(g598
g600
Vphotos
p699
tp700
a(g514
g516
tp701
a(g514
g516
g461
tp702
a(g323
g309
tp703
a(g323
g309
g123
tp704
a(g336
g474
tp705
a(g336
g474
g4
tp706
a(g296
g298
tp707
a(g296
g298
Vyour
p708
tp709
a(Vrecently
p710
g408
tp711
a(g710
g408
g409
tp712
a(g528
Vtime
p713
tp714
a(g528
g713
g597
tp715
a(g489
g603
tp716
a(g542
g544
tp717
a(Vsay
p718
g638
tp719
a(g718
g638
g422
tp720
a(Vsay
p721
Vscared
p722
tp723
a(g721
g722
g718
tp724
a(g722
g718
tp725
a(g722
g718
g638
tp726
a(g191
g193
tp727
a(g191
g193
g254
tp728
a(g246
g248
tp729
a(g129
g131
tp730
a(g172
g174
tp731
a(g172
g174
g81
tp732
a(g558
g605
tp733
a(g558
g605
g84
tp734
a(g217
g219
tp735
a(g217
g219
g684
tp736
a(g351
g261
tp737
a(g351
g261
g262
tp738
a(g126
g547
tp739
a(g126
g547
g117
tp740
a(Vsomeone
p741
Vyells
p742
tp743
a(g741
g742
Vstop
p744
tp745
a(g159
g537
tp746
a(g84
g607
tp747
a(g84
g607
g250
tp748
a(Vsongsthatwillnevergetold
p749
g113
tp750
a(g749
g113
g114
tp751
a(g85
g491
tp752
a(g85
g491
g486
tp753
a(Vspell
p754
g287
tp755
a(g754
g287
g288
tp756
a(g164
g329
tp757
a(g164
g329
g330
tp758
a(g355
g95
tp759
a(g355
g95
g96
tp760
a(g744
g382
tp761
a(g744
g382
g383
tp762
a(g600
g699
tp763
a(g106
g416
tp764
a(g106
g416
g654
tp765
a(g409
g221
tp766
a(g409
g221
g141
tp767
a(Vtate
p768
g437
tp769
a(g768
g437
g438
tp770
a(g293
g530
tp771
a(g293
g530
g508
tp772
a(g470
g472
tp773
a(g470
g472
g213
tp774
a(g516
g461
tp775
a(g516
g461
g120
tp776
a(Vthink
p777
g74
tp778
a(g777
g74
g242
tp779
a(g359
g361
tp780
a(g359
g361
g79
tp781
a(g24
g506
tp782
a(g24
g506
Vworst
p783
tp784
a(Vthis
p785
g642
tp786
a(g785
g642
g133
tp787
a(g259
g354
tp788
a(g259
g354
g355
tp789
a(g177
g179
tp790
a(g177
g179
Vsooverthis
p791
tp792
a(g449
g239
tp793
a(g449
g239
g240
tp794
a(g390
g392
tp795
a(g390
g392
g454
tp796
a(g713
g597
tp797
a(g713
g597
g598
tp798
a(g10
g445
tp799
a(g10
g445
g552
tp800
a(g416
g654
tp801
a(g416
g654
g272
tp802
a(g198
g73
tp803
a(g198
g73
g232
tp804
a(g298
g708
tp805
a(g298
g708
g754
tp806
a(g251
g156
tp807
a(g251
g156
g157
tp808
a(g624
g626
tp809
a(g624
g626
g358
tp810
a(g626
g358
tp811
a(g626
g358
g359
tp812
a(g611
g613
tp813
a(g611
g613
g652
tp814
a(g533
g498
tp815
a(g533
g498
g181
tp816
a(g291
g293
tp817
a(g291
g293
g530
tp818
a(g137
g139
tp819
a(g137
g139
g256
tp820
a(g366
g368
tp821
a(g366
g368
g686
tp822
a(g458
g229
tp823
a(g458
g229
g216
tp824
a(g361
g79
tp825
a(g361
g79
g300
tp826
a(Vwhat
p827
g777
tp828
a(g827
g777
g74
tp829
a(g179
g791
tp830
a(Vwhen
p831
g741
tp832
a(g831
g741
g742
tp833
a(g273
g205
tp834
a(g273
g205
g206
tp835
a(g86
g402
tp836
a(g86
g402
g2
tp837
a(Vwhy
p838
g659
tp839
a(g838
g659
g6
tp840
a(g523
g635
tp841
a(g523
g635
g295
tp842
a(g607
g250
tp843
a(g607
g250
g251
tp844
a(g526
g528
tp845
a(g526
g528
g713
tp846
a(g208
g210
tp847
a(g208
g210
g103
tp848
a(g783
g501
tp849
a(g783
g501
g22
tp850
a(g742
g744
tp851
a(g742
g744
g382
tp852
a(g184
g550
g190
tp853
a(g5
g68
g495
tp854
a(g227
g615
tp855
a(g708
g754
tp856
a(g708
g754
g287
tp857
a(g87
g71
tp858
a(g87
g71
g200
tp859
a(g506
g783
tp860
a(g506
g783
g501
tp861
ag88
ag91
ag95
ag96
ag103
ag108
ag303
ag113
ag117
ag120
ag123
ag520
ag128
ag133
ag136
ag141
ag109
ag151
ag156
ag161
ag166
ag171
ag176
ag181
ag195
ag188
ag186
ag570
ag213
ag216
ag221
ag224
ag652
ag234
ag236
ag118
ag239
ag270
ag131
ag250
ag193
ag256
ag413
ag276
ag98
ag282
ag287
ag290
ag295
ag300
ag305
ag370
ag232
ag101
ag537
ag399
ag503
ag402
ag408
ag146
ag400
ag104
ag378
ag326
ag422
ag427
ag434
ag437
ag262
ag268
ag448
ag461
ag139
ag466
ag469
ag474
ag477
ag482
ag486
ag491
ag423
ag495
ag498
ag501
ag330
ag157
ag240
ag539
ag182
ag552
ag555
ag169
ag556
ag334
ag162
ag630
ag483
ag635
ag638
ag148
ag642
ag615
ag339
ag385
ag613
ag654
ag445
ag659
ag277
ag343
ag428
ag248
ag93
ag480
ag478
ag699
ag346
ag167
ag438
ag472
ag595
ag598
ag514
ag323
ag336
ag296
ag710
ag528
ag489
ag603
ag542
ag722
ag191
ag246
ag129
ag172
ag558
ag217
ag351
ag126
ag741
ag791
ag206
ag754
ag288
ag164
ag355
ag744
ag544
ag600
ag106
ag409
ag768
ag293
ag470
ag516
ag254
ag266
ag785
ag259
ag177
ag285
ag496
ag416
ag198
ag298
ag251
ag624
ag626
ag611
ag533
ag291
ag137
ag366
ag686
ag458
ag361
ag237
ag827
ag179
ag831
ag273
ag523
ag607
ag526
ag208
ag783
ag279
ag111
ag742
ag121
ag708
a.