c__builtin__
set
p0
((lp1
(Vlooks
p2
Vlike
p3
Vwonderful
p4
tp5
a(Vfriends
p6
Vjob
p7
tp8
a(Vlove
p9
Vguys
p10
tp11
a(Vur
p12
Vbest
p13
Vreally
p14
tp15
a(Vyall
p16
Vknow
p17
tp18
a(Vacc
p19
Vpls
p20
tp21
aVhot
p22
a(Vknow
p23
Vcommented
p24
tp25
a(Vcommunity
p26
Vclassroom
p27
Vknow
p28
tp29
a(Vplease
p30
Vliam
p31
Vlove
p32
tp33
a(Vim
p34
Vreally
p35
Vsure
p36
tp37
a(Vlike
p38
Vdislike
p39
tp40
a(Vjonas
p41
Vbrothers
p42
Vtake
p43
tp44
aVfollow
p45
ag31
aVhate
p46
a(Vdont
p47
Vfeel
p48
tp49
a(Vim
p50
Vlooking
p51
tp52
aVbookers
p53
a(Vmuch
p54
Vwin
p55
Vmany
p56
tp57
a(Vnolan
p58
Vwould
p59
Vhappiest
p60
tp61
a(Vlove
p62
Vma
p63
tp64
a(Ved
p65
Vsheeran
p66
tp67
a(Vocean
p68
Vaint
p69
tp70
a(Vnavy
p71
Vuniform
p72
tp73
a(Vlove
p74
Vmuch
p75
Vlove
p76
tp77
a(Vlove
p78
Vsense
p79
tp80
aVmytriplet
p81
a(Vlt3
p82
Vlt3
p83
Vx8
p84
tp85
a(Vdeeply
p86
Vlove
p87
tp88
aVtext
p89
a(V409
p90
Vlove
p91
tp92
aVdislike
p93
a(Vbig
p94
Vdawg
p95
tp96
a(Vtweet
p97
Vright
p98
tp99
a(Vsyndrome
p100
Vcalled
p101
tp102
a(Vplease
p103
Vfollow
p104
Vlt3
p105
tp106
aVinnit
p107
a(Vtime
p108
Vcollaborate
p109
Vlisten
p110
tp111
a(Vyouu
p112
Vim
p113
tp114
ag109
a(Vtime
p115
Vthought
p116
tp117
aVok
p118
a(V7
p119
Vdays
p120
tp121
aVsong
p122
aVfar
p123
a(Vhids
p124
Vbirthday
p125
tp126
aVkiana
p127
aVmursarmy
p128
a(Vcute
p129
Vlove
p130
tp131
a(g76
g128
tp132
aVevery
p133
a(Vaint
p134
Vlove
p135
tp136
a(Vdislike
p137
Vcountry
p138
Vmusic
p139
tp140
a(Vretweets
p141
Vfans
p142
tp143
a(Vlove
p144
Vmean
p145
tp146
a(Vcome
p147
Vbaby
p148
tp149
a(Vmee
p150
g82
tp151
a(Vexcited
p152
Vlets
p153
tp154
a(g35
g36
Vanyone
p155
tp156
a(Vlove
p157
Vu
p158
Vbb
p159
tp160
a(Vnew
p161
Vsingle
p162
tp163
aVhoopinislife
p164
aVdif
p165
a(Vstuff
p166
Vlove
p167
tp168
a(Vmakes
p169
Vlaugh
p170
tp171
a(Vthink
p172
Vtry
p173
Vnude
p174
tp175
aVsoooo
p176
a(g93
Vradio
p177
Vmusic
p178
tp179
a(Vtigue
p180
Vwish
p181
tp182
a(Vaya
p183
Vknow
p184
Vsince
p185
tp186
a(Vsayang
p187
Vxx
p188
tp189
a(Vemmert
p190
g176
Vfreaking
p191
tp192
ag24
aVyall
p193
a(Vtomlinson
p194
Vtoday
p195
tp196
a(Vadios
p197
Vmf
p198
tp199
a(Vclass
p200
V4th
p201
tp202
a(g69
Vgot
p203
tp204
aVmustangs
p205
aVcarly
p206
aV3
p207
a(Vright
p208
g147
g148
tp209
a(Vchuckii
p210
g53
Vsong
p211
tp212
a(Vlove
p213
g112
g113
tp214
a(g56
g165
Vreasons
p215
tp216
ag66
a(Vsince
p217
Vone
p218
tp219
a(g205
Varent
p220
Vsexy
p221
tp222
a(Vknow
p223
Vname
p224
Vlove
p225
tp226
aVeven
p227
a(Vbig
p228
Vass
p229
tp230
a(Vlove
p231
g41
tp232
a(Vim
p233
Vbusy
p234
tp235
aVbarbie
p236
aV56
p237
aVyouuu
p238
a(Vfans
p239
g123
Vcold
p240
tp241
a(Vhilarious
p242
Vxd
p243
tp244
a(Vicon
p245
Vdislike
p246
tp247
a(g197
g198
Vyuckkyy
p248
tp249
a(Vcould
p250
g137
g138
tp251
ag124
a(g220
g221
Vcorvettes
p252
tp253
a(Vugh
p254
g93
g177
tp255
a(g174
Vline
p256
tp257
a(g169
g170
Vlove
p258
tp259
ag161
a(Vexcited
p260
Vlove
p261
tp262
a(Vlyrics
p263
Vskys
p264
tp265
a(Vsay
p266
g127
tp267
a(Vcant
p268
Vsleep
p269
tp270
ag187
ag150
a(Vbio
p271
g245
g246
tp272
aVfriday
p273
a(Vboo
p274
Vill
p275
tp276
a(Vx
p277
g207
tp278
a(Vhitting
p279
Vbed
p280
Vsoon
p281
tp282
aVnever
p283
a(Vjett
p284
Vlove
p285
Vrock
p286
tp287
a(Vliking
p288
Vsong
p289
Vdumblyricsaredumb
p290
tp291
a(Vlove
p292
Vtortex
p293
Vmaking
p294
tp295
a(Vsay
p296
g260
tp297
a(Vmuch
p298
Vrespect
p299
tp300
ag41
a(Vlove
p301
Vrays
p302
tp303
a(Vget
p304
Vjudged
p305
Vlove
p306
tp307
a(Vfollow
p308
Vboyfriend
p309
Vbio
p310
tp311
ag221
a(Vafraid
p312
Vsay
p313
Vthink
p314
tp315
a(Vbio
p316
Vlove
p317
Vbaby
p318
tp319
aVzacs
p320
a(g89
Vhavent
p321
tp322
a(Vread
p323
g89
tp324
a(Vshes
p325
Vone
p326
tp327
a(Vlove
p328
Vwhite
p329
tp330
ag190
a(Vlawd
p331
Vlove
p332
Vsong
p333
tp334
a(g333
g16
tp335
a(Vmakes
p336
Vfeel
p337
tp338
a(Vspell
p339
Vdesire
p340
tp341
a(Vim
p342
Vbird
p343
g129
tp344
a(Vfailed
p345
Vtest
p346
tp347
ag220
a(Vassburger
p348
Vwth
p349
tp350
aVusually
p351
aVweird
p352
a(Vtell
p353
Vlike
p354
tp355
a(Vwant
p356
Vknow
p357
tp358
a(Vone
p359
Vtime
p360
tp361
aVdabiebahcrew
p362
aVlove
p363
a(Vthough
p364
Vdislike
p365
tp366
a(g60
Vgirl
p367
tp368
a(g281
Vlove
p369
tp370
a(Vd
p371
Vy
p372
tp373
a(g221
g252
tp374
aVvegetarians
p375
a(Vyouu
p376
Vcelebrate
p377
tp378
a(Vknow
p379
Vbother
p380
tp381
a(Vbrettney
p382
Veat
p383
Vmustbetay
p384
tp385
a(Vago
p386
Vlove
p387
tp388
a(Vthough
p389
Vdislike
p390
g200
tp391
a(Vsay
p392
Vhi
p393
g30
tp394
a(g304
g305
tp395
a(g98
Vanswer
p396
Vwould
p397
tp398
a(Vbabe
p399
Vbirthday
p400
tp401
a(Vmisbehaved
p402
Vhahaha
p403
tp404
a(g215
g339
g340
tp405
a(g342
g343
tp406
ag178
a(g116
g325
g326
tp407
ag371
a(Vaka
p408
g348
tp409
aVtell
p410
ag195
a(g236
Vmovies60e9
p411
tp412
a(Vlikedislike
p413
Vyr
p414
tp415
a(Vneed
p416
Vtell
p417
tp418
aVth
p419
aVadvance
p420
a(Vreally
p421
Vlove
p422
tp423
a(Vcarlyfollowme
p424
Vlove
p425
Vmuch13
p426
tp427
a(Vfan
p428
g19
tp429
a(Vasperger
p430
g408
tp431
ag248
aVscratches
p432
aVbaby
p433
a(Vtake
p434
Vlisten
p435
tp436
a(Vlove
p437
Vboyfriend
p438
tp439
a(Vspain
p440
g277
tp441
aVlt3xxx
p442
a(Vbirthday
p443
Vlove
p444
Vaw
p445
tp446
a(Vbitches
p447
Vget
p448
tp449
a(Vmorning
p450
Varound
p451
tp452
ag63
a(Vlove
p453
g158
Vmuch
p454
tp455
a(Vlove
p456
Vengland
p457
Vbesides
p458
tp459
a(g437
g438
Vlt3
p460
tp461
a(Vfound
p462
g100
g101
tp463
a(Vfucking
p464
g231
g41
tp465
a(g280
g281
g369
tp466
a(Vreading
p467
g97
tp468
a(Vff
p469
g183
g184
tp470
a(Vforward
p471
Vschool
p472
tp473
a(g123
g240
Vweather
p474
tp475
ag294
a(Vlove
p476
Vaunt
p477
tp478
a(Vmany
p479
Vreasons
p480
tp481
aVsomething
p482
aVbeautiful
p483
aVheart
p484
a(Vhii
p485
Vcheer
p486
Vplease
p487
tp488
a(g185
Vlast
p489
tp490
a(g396
g397
tp491
a(g206
g453
tp492
a(Vlove
p493
Vbed
p494
tp495
a(g312
g313
tp496
a(Vgoing
p497
Vhappen
p498
Vlove
p499
tp500
a(g444
g445
tp501
a(Vlove
p502
Vshort
p503
tp504
a(Vshots
p505
g376
g377
tp506
a(g158
g159
tp507
aVstory
p508
a(Vgo
p509
Vback
p510
g288
tp511
a(Vlove
p512
Vconverse
p513
tp514
a(Vlove
p515
g320
tp516
aVinformation
p517
a(Vbad
p518
Vcha
p519
g94
tp520
a(g336
g337
Vhappy
p521
tp522
a(g377
Vsoon
p523
Vget
p524
tp525
a(Vdog
p526
Vdoor
p527
tp528
a(Vgoing
p529
Vtomorrow
p530
tp531
a(g260
g261
g103
tp532
a(g472
Vlife
p533
Vboring
p534
tp535
a(Vtime
p536
g46
tp537
aVamazing
p538
a(Vworries
p539
Vgo
p540
tp541
aVjustin
p542
aVanswer
p543
a(Vpassed
p544
Vaway
p545
tp546
a(g375
Vmuch
p547
Vlove
p548
tp549
a(Vthing
p550
g456
tp551
aVft
p552
a(g71
g72
g22
tp553
a(g471
g472
g533
tp554
a(g43
Vminute
p555
Vread
p556
tp557
a(Veveryone
p558
g23
tp559
aVwrong
p560
ag201
a(Vlove
p561
g141
tp562
a(Vlife
p563
g197
g198
tp564
a(Vbring
p565
Vgood
p566
g166
tp567
ag27
a(Vim
p568
Vwaiting
p569
Vcome
p570
tp571
a(g493
g494
g217
tp572
a(g417
Vimportant
p573
tp574
a(Vlove
p575
Vdeeep
p576
tp577
a(g320
Vstyle
p578
tp579
ag428
ag252
a(g422
g568
g569
tp580
a(g464
g231
tp581
aVblind
p582
ag523
a(g352
Vguess
p583
tp584
aVuname
p585
a(g164
Vschemeking
p586
g9
tp587
aValready
p588
aVexistence
p589
ag240
aVstill
p590
a(Vlike
p591
Valways
p592
tp593
a(Vlikedislike
p594
Vur
p595
Vacc
p596
tp597
aVperfect
p598
a(g363
Vgetting
p599
tp600
aVthank
p601
aVacknowledge
p602
a(g450
g451
V4ammy
p603
tp604
a(g489
Vweek
p605
tp606
a(g101
g430
g408
tp607
a(g396
g397
Vshame
p608
tp609
a(g432
Vhead
p610
tp611
aVlt
p612
a(g413
g414
Vacc
p613
tp614
a(Vhouston
p615
Vsongsthatwillnevergetold
p616
tp617
a(g184
g185
tp618
a(Vvideo
p619
g542
tp620
a(g200
g201
Vperiod
p621
tp622
a(g12
g13
tp623
ag90
a(Vur
p624
g585
tp625
a(g205
g220
tp626
a(Vconverse
p627
g512
g513
tp628
a(Vlooking
p629
Vforward
p630
Vwembley
p631
tp632
a(Vdont
p633
Vknow
p634
g152
tp635
a(g357
g421
g422
tp636
a(g165
g215
tp637
a(g384
g164
g586
tp638
aVmales
p639
aVintroduce
p640
a(g545
g476
tp641
a(Vapart
p642
g590
g86
tp643
a(g122
Vwish
p644
Vcould
p645
tp646
a(g393
g30
tp647
a(Vfirst
p648
g115
tp649
a(g250
g137
tp650
ag414
a(g203
Vnothin
p651
Vus
p652
tp653
a(g377
g523
tp654
a(g115
g116
g325
tp655
a(g375
g547
tp656
aVmeat
p657
a(Valive
p658
Vnotice
p659
Vplease
p660
tp661
a(g658
g659
tp662
aValways
p663
a(Vlove
p664
Vone
p665
tp666
a(g595
g596
tp667
a(Vone
p668
Vbiggest
p669
Vdreams
p670
tp671
a(Vwanna
p672
Vsay
p673
Vlove
p674
tp675
a(g210
g53
tp676
aVmuchhhhh
p677
a(Vim
p678
g529
tp679
aVlouis
p680
a(g403
g118
tp681
a(g552
Vbig
p682
Vsean
p683
tp684
ag457
a(g383
g384
tp685
a(g31
g32
V57
p686
tp687
a(Vbrooks
p688
Vone
p689
g550
tp690
a(Vplease
p691
Vlove
p692
tp693
a(Vdont
p694
g223
tp695
a(g213
g112
tp696
ag71
a(Vwould
p697
g434
g435
tp698
ag450
ag376
ag421
ag105
a(Vtigoy
p699
g633
g634
tp700
a(g48
g416
tp701
a(Vsleep
p702
Vwell
p703
g187
tp704
a(g155
g250
tp705
a(Vaway
p706
g565
tp707
ag594
a(Vaint
p708
g518
g519
tp709
a(Vpipes
p710
g124
tp711
aVre
p712
a(g518
g519
tp713
ag119
ag242
a(Vpaisley
p714
Vbikini
p715
g443
tp716
a(Vjanelo
p717
g558
g23
tp718
a(g242
g243
Vthomas
p719
tp720
a(Vlove
p721
Vmiss
p722
tp723
a(g512
g513
Vseveral
p724
tp725
a(g45
g392
tp726
a(Votheri
p727
Vlove
p728
tp729
a(g548
Vanimals
p730
tp731
a(Vdislike
p732
Veveryone
p733
tp734
a(g589
g45
tp735
ag688
a(Vthanks
p736
Valways
p737
g12
tp738
ag539
aVreason
p739
a(g524
Vhome
p740
g721
tp741
a(V2years
p742
g642
tp743
a(Vmake
p744
g539
g540
tp745
ag458
a(g592
Vlove
p746
Vwhitney
p747
tp748
a(g417
g573
g517
tp749
a(g51
g471
tp750
a(g65
g66
Vfucking
p751
tp752
a(g400
g119
g120
tp753
a(Vlove
p754
Vill
p755
tp756
a(g393
g30
g31
tp757
a(g594
g595
tp758
ag645
a(Vmuch
p759
Vpls
p760
tp761
ag120
a(g659
g660
Vmake
p762
tp763
a(g736
g737
tp764
a(Vwashington
p765
g157
tp766
a(g69
g203
g651
tp767
a(Vlove
p768
Vphil
p769
tp770
a(g400
g119
tp771
a(Vaway
p772
Vhead
p773
g331
tp774
a(Vmom
p775
Vright
p776
tp777
a(g220
g221
tp778
a(Vbad
p779
Vway
p780
tp781
aVcarre
p782
aVdont
p783
a(g274
g275
Vtake
p784
tp785
a(Vbieber
p786
Vway
p787
Vlike
p788
tp789
a(Vtrying
p790
Vget
p791
Vnotice
p792
tp793
ag243
ag218
a(g645
Vunsee
p794
tp795
ag188
a(Vlike
p796
Vur
p797
tp798
ag603
aVanother
p799
aVkobe
p800
a(g139
g598
tp801
aVmiss
p802
a(g730
Vdont
p803
Vthink
p804
tp805
ag583
a(g642
g590
tp806
a(Vlong
p807
Vlove
p808
tp809
a(g521
g663
tp810
ag527
a(g787
g788
tp811
ag224
aVanyone
p812
a(Vdislike
p813
g624
g585
tp814
aV2
p815
a(Vgirlfriend
p816
g316
g317
tp817
a(Vid
p818
Vlove
p819
g697
tp820
a(Vmight
p821
g304
tp822
a(Vsure
p823
Vlove
p824
tp825
aVfriend
p826
ag435
a(g206
g453
g158
tp827
a(g137
g138
tp828
a(Vsure
p829
Vthats
p830
Vyo
p831
tp832
a(g170
g258
tp833
ag84
a(g610
g829
tp834
a(g120
Vplease
p835
g602
tp836
a(g176
g191
tp837
ag86
aVcrawl
p838
ag329
ag438
a(g494
g217
tp839
a(g660
g762
Vdream
p840
tp841
a(g193
Vmoon
p842
tp843
a(Vmake
p844
g493
tp845
aVdisoveries
p846
a(g540
g706
g565
tp847
ag494
a(g87
g727
tp848
ag430
a(Vlove
p849
Vone
p850
Vday
p851
tp852
a(Vamong
p853
g479
tp854
a(g161
g162
Videntities
p855
tp856
a(g231
g41
g42
tp857
a(g75
g76
g128
tp858
a(g517
Vforserious
p859
tp860
a(g762
g840
Vcome
p861
tp862
a(g384
g164
tp863
a(g853
g479
g480
tp864
a(g284
g285
tp865
a(g605
Vbestfriend
p866
tp867
aVturned
p868
a(g573
g517
g859
tp869
a(g155
g250
g137
tp870
aVtonight
p871
ag392
a(Vliam
p872
Vlove
p873
g237
tp874
a(g2
g3
tp875
aVthroat
p876
a(Vlove
p877
Vjujuampriri
p878
tp879
a(g780
Vapologise
p880
g420
tp881
aVray
p882
a(g586
g9
tp883
a(Vlove
p884
Vcomputer
p885
tp886
a(g485
g486
tp887
a(g371
g372
Vn
p888
tp889
a(g794
g509
tp890
a(Vgoing
p891
Vdentist
p892
g678
tp893
a(g797
g271
tp894
a(g569
g570
Vportugal
p895
tp896
ag434
a(g835
g602
g589
tp897
a(g254
g93
tp898
a(Vnotice
p899
Vlove
p900
Vkiss
p901
tp902
a(Vgot
p903
g714
g715
tp904
ag859
a(Vdislike
p905
g205
g220
tp906
ag364
a(g835
g602
tp907
a(Vdislike
p908
g775
tp909
a(Vim
p910
g279
g280
tp911
a(g402
g403
g118
tp912
a(g634
g152
g153
tp913
ag293
a(g846
Vlike
p914
tp915
a(g145
Vbottom
p916
g484
tp917
ag58
a(Vtrue
p918
Vlove
p919
Vmuch
p920
tp921
a(g48
g416
g417
tp922
a(g573
g517
tp923
ag200
a(g271
g245
tp924
a(g390
g200
g201
tp925
a(g120
g835
tp926
a(g630
g631
tp927
a(g425
g426
tp928
a(g545
g476
g477
tp929
aVreleased
p930
ag331
a(g592
g746
tp931
a(g664
g665
Vdirection
p932
tp933
ag769
aVupset
p934
a(Vlove
p935
g891
g892
tp936
a(Vtime
p937
g301
g302
tp938
a(g595
g596
g428
tp939
a(Vwomen
p940
Vperiod
p941
tp942
aVaunt
p943
a(g613
Vmbf
p944
tp945
a(g728
g433
tp946
a(Vyouuuu
p947
g815
tp948
a(Vyoure
p949
Vbird
p950
tp951
a(Vlove
p952
Vlt3
p953
tp954
a(g796
g797
g271
tp955
a(Vtalented
p956
Vplease
p957
tp958
aVbieber
p959
ag719
ag254
ag263
aVshow
p960
a(g773
g331
g332
tp961
a(g390
g200
tp962
a(g39
Vspicy
p963
tp964
a(g527
Vget
p965
tp966
a(Vyoure
p967
g312
tp968
a(g631
g960
tp969
a(g428
g19
g20
tp970
ag177
a(g201
g621
tp971
ag72
a(g544
g545
g476
tp972
ag69
ag234
a(g737
g12
g13
tp973
a(Vfollow
p974
g877
tp975
aVment
p976
a(g788
g882
Vray
p977
tp978
a(Vsaid
p979
Vpap
p980
Vdays
p981
tp982
a(Vlittle
p983
g846
tp984
a(g855
g818
tp985
ag891
ag305
aVmoney
p986
a(Vlove
p987
Vknow
p988
tp989
a(Vrelaxing
p990
g937
tp991
ag264
a(g24
Vheight
p992
tp993
a(Vomg
p994
g65
g66
tp995
ag304
a(g844
g493
g494
tp996
a(g780
g880
tp997
aVstop
p998
a(g95
Vlol
p999
tp1000
a(g188
Vlove
p1001
tp1002
a(Vgot
p1003
Vlove
p1004
Vyaa
p1005
tp1006
a(g458
g239
tp1007
a(Vyes
p1008
Vlove
p1009
tp1010
a(Vbig
p1011
Vbooty
p1012
tp1013
a(g792
Vknow
p1014
g283
tp1015
a(Vdislike
p1016
Vpeople
p1017
tp1018
a(g787
g788
g882
tp1019
ag60
ag950
a(g302
Vsunshine
p1020
Vphotos
p1021
tp1022
ag377
ag191
a(g937
g301
tp1023
a(g672
g673
tp1024
a(g133
g273
tp1025
a(g905
g205
tp1026
ag518
a(Vgive
p1027
g657
tp1028
a(g94
g95
g999
tp1029
ag505
a(g602
g589
g45
tp1030
ag277
a(Vscared
p1031
Vsay
p1032
g821
tp1033
a(g217
g218
Vlol
p1034
tp1035
a(g561
g141
g142
tp1036
aVbody
p1037
a(g621
g242
tp1038
aVhonesty
p1039
a(Vlove
p1040
Vmuch
p1041
tp1042
a(g353
g354
Vdislike
p1043
tp1044
a(g983
g846
g914
tp1045
a(g591
g592
g746
tp1046
a(Vlove
p1047
Vfollow
p1048
Vplease
p1049
tp1050
a(g974
g877
g878
tp1051
a(g328
g329
g71
tp1052
a(g63
g1011
tp1053
a(Vfun
p1054
g561
tp1055
a(g540
g706
tp1056
ag13
a(Vlove
p1057
g122
g644
tp1058
a(g408
g348
g349
tp1059
a(Vrefreshing
p1060
Vamaz
p1061
tp1062
a(g866
Vlo
p1063
tp1064
a(g1003
g1004
tp1065
a(g502
g503
V5ft
p1066
tp1067
ag545
ag835
a(g66
g751
tp1068
a(g357
g421
tp1069
ag239
aVr
p1070
aVmum
p1071
a(Vill
p1072
g353
tp1073
ag467
a(g325
g326
g744
tp1074
a(Vpictures
p1075
g2
g3
tp1076
aVpants
p1077
a(g813
g624
tp1078
ag792
ag994
a(Vstrongly
p1079
Vdislike
p1080
tp1081
a(g245
g246
Vur
p1082
tp1083
a(g34
g35
tp1084
a(g416
g417
g573
tp1085
a(Veven
p1086
g364
g365
tp1087
a(Vpeople
p1088
g47
tp1089
a(g1047
g1048
tp1090
a(g457
g458
tp1091
aVwtf
p1092
ag349
ag570
a(g144
g145
g916
tp1093
ag284
a(g317
g318
g308
tp1094
ag403
ag956
ag138
a(g1048
g1049
tp1095
a(g727
g728
g433
tp1096
a(g914
g54
g55
tp1097
aVtour
p1098
a(g53
g211
g868
tp1099
a(g510
g288
g289
tp1100
a(Vthanks
p1101
Vlyns
p1102
Vlove
p1103
tp1104
a(g170
g258
g158
tp1105
a(g689
g550
tp1106
ag853
aVxx1
p1107
a(g908
g775
g776
tp1108
aVboiag
p1109
ag215
a(Vreally
p1110
g908
g775
tp1111
a(g556
Vstory
p1112
Vplease
p1113
tp1114
a(g855
g818
g819
tp1115
ag992
a(g343
g129
tp1116
a(g150
g82
g83
tp1117
a(g130
Vthenotebook
p1118
tp1119
a(g166
g167
Vtonicha
p1120
tp1121
a(g959
g807
g808
tp1122
a(g699
g633
tp1123
a(Vvisiting
p1124
g6
tp1125
a(Vcarlyfollowme
p1126
Vcarly
p1127
Vfollow
p1128
tp1129
a(g762
g840
tp1130
a(Vmesnino
p1131
g1047
g1048
tp1132
a(g129
g130
g1118
tp1133
a(g1098
Vbig
p1134
g292
tp1135
a(g533
g534
tp1136
a(g223
g224
tp1137
a(g75
g76
tp1138
a(g539
g540
g706
tp1139
a(g316
g317
tp1140
a(g602
g589
tp1141
a(g578
g172
g173
tp1142
ag1041
a(g930
g161
tp1143
a(g941
g708
g518
tp1144
ag424
aVlovely
p1145
a(g509
g510
tp1146
a(g414
g613
tp1147
a(Vlove
p1148
Vwatching
p1149
tp1150
a(g224
g225
Vhammer
p1151
tp1152
a(Vweed
p1153
Vcause
p1154
g233
tp1155
ag990
aVjadee
p1156
a(Vsongsthatwillnevergetold
p1157
g538
g1040
tp1158
a(g513
g724
Vpair
p1159
tp1160
a(g79
g26
tp1161
aVchild
p1162
a(g36
g155
tp1163
aVsmoking
p1164
aVsad
p1165
a(g438
g460
tp1166
ag440
a(g340
Vspotify
p1167
tp1168
a(g299
g375
g547
tp1169
a(Vlove
p1170
g228
tp1171
a(g363
g599
Vpaid
p1172
tp1173
a(g610
g829
g830
tp1174
ag416
a(g916
g484
tp1175
a(g47
g48
g416
tp1176
a(g89
g321
g543
tp1177
ag888
ag715
a(g542
g959
tp1178
a(g72
g22
tp1179
ag56
a(g320
g578
g172
tp1180
a(g258
g158
tp1181
a(g901
g440
tp1182
a(g603
g943
tp1183
a(Vlaurenmonty
p1184
g664
g665
tp1185
a(g36
g155
g250
tp1186
a(g215
g339
tp1187
a(g673
g674
tp1188
a(g960
g871
g876
tp1189
a(Vdont
p1190
g379
g380
tp1191
ag198
ag608
ag268
ag566
ag233
a(g35
g36
tp1192
a(g703
g187
tp1193
ag451
ag980
ag878
a(g552
g682
tp1194
a(g90
g91
Vtruck
p1195
tp1196
ag844
a(g1165
g508
tp1197
a(g301
g302
g1020
tp1198
a(g326
g744
tp1199
a(g589
g45
g392
tp1200
a(g55
g56
g165
tp1201
ag323
a(g1149
g236
g411
tp1202
a(g359
g360
g799
tp1203
a(g957
Vfollow
p1204
g150
tp1205
ag724
a(g998
g694
g223
tp1206
ag605
a(g1070
g956
g957
tp1207
a(g367
g658
g659
tp1208
a(g797
g271
g245
tp1209
a(g644
g645
tp1210
a(Vperson
p1211
Vdislike
p1212
tp1213
a(g285
g286
tp1214
a(g477
Vfran
p1215
tp1216
a(g619
g542
g959
tp1217
a(Vtoofollowing
p1218
g277
tp1219
ag408
aVkid
p1220
a(g994
g65
tp1221
a(g1128
g691
g692
tp1222
ag703
ag651
ag68
a(g414
g613
g944
tp1223
aVperson
p1224
a(g1204
g150
tp1225
aVwithout
p1226
a(g569
g570
tp1227
a(g354
g1043
Vacc
p1228
tp1229
a(g31
g32
tp1230
a(g892
g678
tp1231
aVranalt33
p1232
a(Vlove
p1233
Vvandosen
p1234
tp1235
a(g321
g543
tp1236
ag1149
ag1184
a(Vdislike
p1237
g1088
g47
tp1238
aVyea
p1239
a(g807
g808
g552
tp1240
a(g956
g957
g1204
tp1241
ag400
a(g1215
g802
Vdearly
p1242
tp1243
a(Vdislike
p1244
Vdont
p1245
tp1246
a(Vlove
p1247
Vselena
p1248
tp1249
a(g177
g178
tp1250
a(g45
g392
g393
tp1251
a(Vlove
p1252
g563
tp1253
ag1008
a(g608
g208
g147
tp1254
a(Vjoan
p1255
g284
g285
tp1256
aVyet
p1257
a(g172
g173
tp1258
a(Vlove
p1259
Vyouo
p1260
tp1261
a(Vlove
p1262
g238
tp1263
a(Vlove
p1264
Vlol
p1265
tp1266
ag210
a(g519
g94
tp1267
a(g900
g901
tp1268
a(g601
g1145
tp1269
ag152
a(g519
g94
g95
tp1270
a(g93
g177
tp1271
a(g113
g823
tp1272
a(g32
g686
tp1273
a(g119
g120
g835
tp1274
ag682
a(g63
g1011
g1012
tp1275
a(g526
g527
g965
tp1276
a(Vliampayne
p1277
g399
tp1278
ag1120
ag223
ag775
aVamp
p1279
ag670
ag642
ag340
a(Vmuch
p1280
g1054
tp1281
a(Vbtw
p1282
g672
g673
tp1283
ag3
a(g339
g340
g1167
tp1284
aV55
p1285
ag174
a(g181
Vcould
p1286
g274
tp1287
a(g669
g670
Vlt3
p1288
tp1289
a(g1086
g364
tp1290
a(g1070
g956
tp1291
a(g1032
g821
tp1292
a(g710
g124
g125
tp1293
a(g309
g310
Vfuck
p1294
tp1295
a(g747
g615
tp1296
a(g744
g539
tp1297
ag686
a(g448
g986
g432
tp1298
a(g383
g384
g164
tp1299
a(g487
g899
tp1300
a(g3
g4
g990
tp1301
a(g147
g148
g1259
tp1302
a(g943
g544
tp1303
aVpeople
p1304
ag464
a(g510
g288
tp1305
ag510
a(g372
g888
tp1306
a(g829
g830
tp1307
a(g1102
g1103
Vmuch
p1308
tp1309
a(g87
g727
g728
tp1310
aVtvd
p1311
a(g712
g467
tp1312
ag1255
a(Vpeople
p1313
Vdislike
p1314
tp1315
a(g534
g910
tp1316
ag916
ag842
a(g630
g631
g960
tp1317
a(Vmany
p1318
g505
g376
tp1319
a(g218
g1034
tp1320
a(g309
g310
tp1321
a(Vyells
p1322
g998
tp1323
ag530
aVpower
p1324
a(g1075
g2
tp1325
a(g1151
g108
tp1326
a(Vlove
p1327
g193
g842
tp1328
a(g1127
g1128
g691
tp1329
a(g784
g1318
tp1330
a(g538
g1040
g1041
tp1331
a(g1004
g1005
tp1332
a(g392
g393
tp1333
ag1172
a(g46
g1304
Vhate
p1334
tp1335
a(g943
g544
g545
tp1336
ag596
a(g669
g670
tp1337
a(g1286
g274
tp1338
a(Vhouse
p1339
Vlmfao
p1340
tp1341
a(g30
g31
tp1342
a(g674
g158
g736
tp1343
a(g804
g1324
tp1344
a(Vlove
p1345
g1285
tp1346
a(g283
g497
tp1347
a(g380
g790
tp1348
aVlifex
p1349
a(g337
g521
g663
tp1350
a(g1034
g1165
tp1351
a(g190
g176
tp1352
aVact
p1353
a(Vhey
p1354
g206
tp1355
a(g570
g895
tp1356
a(g498
g499
tp1357
ag1260
a(g1239
Vlove
p1358
g940
tp1359
a(g138
g139
tp1360
a(g719
Vbeats
p1361
tp1362
ag944
ag765
a(g1294
g447
g448
tp1363
ag1159
a(g688
g689
tp1364
a(g293
g294
tp1365
aVannoys
p1366
a(g42
g43
g555
tp1367
a(g243
g719
g1361
tp1368
a(g1248
g371
tp1369
ag1218
a(g621
g242
g243
tp1370
a(g224
g225
tp1371
a(g737
g12
tp1372
a(g515
g320
g578
tp1373
a(g821
g304
g305
tp1374
a(g1072
g353
g354
tp1375
aVhey
p1376
a(Vmet
p1377
g648
tp1378
a(g108
g109
tp1379
a(g888
Vg
p1380
tp1381
a(g362
g594
tp1382
a(g1334
g1153
g1154
tp1383
ag787
ag471
a(Vrecently
p1384
g462
tp1385
a(g1088
g47
g48
tp1386
ag382
ag1277
ag610
ag963
a(Vreally
p1387
Vdislike
p1388
Vpeople
p1389
tp1390
a(g548
g730
g803
tp1391
ag627
a(g1277
g399
g400
tp1392
a(g1247
g1248
g371
tp1393
ag393
a(g162
g855
tp1394
ag821
a(g41
g42
tp1395
a(g868
g772
tp1396
a(g499
g442
tp1397
a(g243
g719
tp1398
ag918
a(g145
g916
tp1399
a(Vpeople
p1400
Vlove
p1401
tp1402
a(Vlove
p1403
g1124
tp1404
aVsongsthatwillnevergetold
p1405
a(g773
g331
tp1406
a(Vreally
p1407
Vdislike
p1408
tp1409
ag12
a(g113
g823
g824
tp1410
a(g976
g742
tp1411
a(g225
g1151
g108
tp1412
ag95
a(g264
g1057
tp1413
a(g288
g289
tp1414
a(g987
g988
g323
tp1415
a(g1109
g1239
tp1416
a(g838
g526
g527
tp1417
a(g513
g724
tp1418
ag1079
a(g343
g129
g130
tp1419
a(Vsmiles
p1420
Vhahahahahaha
p1421
g601
tp1422
a(g1282
g672
tp1423
aVicon
p1424
a(Vlove
p1425
g838
g526
tp1426
a(g138
g139
g598
tp1427
a(g663
g169
g170
tp1428
a(g292
g293
tp1429
a(g323
g89
g321
tp1430
ag1361
a(g158
g454
tp1431
ag399
a(Vactually
p1432
g1060
tp1433
a(g180
g181
g1286
tp1434
a(g842
Vback
p1435
tp1436
a(g1034
g1165
g508
tp1437
a(g740
g721
tp1438
a(g596
g428
tp1439
a(g803
g804
g1324
tp1440
a(g467
g97
g98
tp1441
ag346
a(Vlove
p1442
g983
tp1443
a(g1421
g601
g1145
tp1444
aVroll
p1445
a(g28
g345
tp1446
a(g424
g425
tp1447
ag42
a(g1043
g1228
tp1448
a(g362
g594
g595
tp1449
a(g783
g536
g46
tp1450
a(g443
g444
tp1451
a(g55
g56
tp1452
a(g56
g165
tp1453
a(g399
g400
g119
tp1454
ag573
a(g1112
g1113
tp1455
a(g1134
g292
tp1456
ag1118
a(g596
g428
g19
tp1457
a(g1195
g710
g124
tp1458
a(g201
g621
g242
tp1459
ag1021
a(g191
g677
g81
tp1460
a(g103
g104
tp1461
a(g173
g174
g256
tp1462
a(Vlove
p1463
g759
g760
tp1464
a(g454
g158
g1070
tp1465
ag158
ag536
a(Vlove
p1466
g1311
tp1467
atp1468
Rp1469
.