(lp0
Vlove
p1
aVdislike
p2
aVlike
p3
aVreally
p4
aVpeople
p5
aVmuch
p6
aVdont
p7
aVknow
p8
a(g4
Vdislike
p9
tp10
aVyou
p11
aVfollow
p12
aVcould
p13
aVplease
p14
aVget
p15
aVill
p16
aVone
p17
aVtell
p18
a(Vlike
p19
Vdislike
p20
tp21
aVlol
p22
aVits
p23
aVacc
p24
a(Vlove
p25
g11
tp26
aVhate
p27
a(Vdislike
p28
Vpeople
p29
tp30
aVlot
p31
a(g16
g18
tp32
a(g16
g18
g19
tp33
a(g18
g19
tp34
a(g18
g19
g20
tp35
aVright
p36
aVsure
p37
aVbig
p38
aVsay
p39
aVlook
p40
aVmake
p41
aVsomeone
p42
aVamp
p43
aVgot
p44
aVmusic
p45
aVperfect
p46
aVwant
p47
aVwould
p48
a(Vdislike
p49
Vaccount
p50
tp51
a(Vlike
p52
g49
g50
tp53
a(Vlikedislike
p54
g24
tp55
ag50
aVanyone
p56
ag54
aVomg
p57
aVthink
p58
a(g24
Vmbf
p59
tp60
a(g50
Vget
p61
tp62
a(g50
g61
g31
tp63
a(g49
g50
g61
tp64
a(g61
g31
tp65
a(g61
g31
Vrts
p66
tp67
a(g54
g24
g59
tp68
a(g31
g66
tp69
a(Vlove
p70
Vmuch
p71
tp72
a(Vstrongly
p73
Vdislike
p74
tp75
aVcountry
p76
aVgirl
p77
ag59
ag66
ag73
aValways
p78
aVmaking
p79
a(Vanyone
p80
Vcould
p81
tp82
a(g80
g81
Vdislike
p83
tp84
a(g81
g83
tp85
a(g81
g83
g76
tp86
a(g76
Vmusic
p87
tp88
a(g76
g87
Vits
p89
tp90
a(g83
g76
tp91
a(g83
g76
g87
tp92
a(g89
g46
tp93
a(g87
g89
tp94
a(g87
g89
g46
tp95
a(Vreally
p96
Vsure
p97
tp98
a(g96
g97
g80
tp99
a(g97
g80
tp100
a(g97
g80
g81
tp101
aVbaby
p102
aVlt3
p103
aVtime
p104
aVtweets
p105
a(g38
Vlove
p106
tp107
a(g38
g106
Vtortex
p108
tp109
a(g40
Vtour
p110
tp111
a(g40
g110
g38
tp112
a(Vlove
p113
Vknow
p114
tp115
a(g106
g108
tp116
a(g106
g108
g79
tp117
a(g5
Vdislike
p118
tp119
a(g108
g79
tp120
a(g110
g38
tp121
a(g110
g38
g106
tp122
aVhappy
p123
aVretweet
p124
aVstill
p125
ag108
ag110
aVway
p126
aVyoure
p127
a(g13
g124
tp128
a(g13
g124
g105
tp129
a(g114
g12
tp130
a(g113
g114
g12
tp131
a(Vmuch
p132
Vdislike
p133
tp134
a(g57
g13
tp135
a(g57
g13
g124
tp136
a(g124
g105
tp137
a(g124
g105
g113
tp138
a(g105
g113
tp139
a(g105
g113
g114
tp140
aVbitch
p141
aVfucking
p142
aVlife
p143
aVthats
p144
aVthing
p145
aVtweet
p146
a(g12
Vlov
p147
tp148
a(Viiampayce
p149
g57
tp150
a(g149
g57
g13
tp151
a(g114
g12
g147
tp152
aVbirthday
p153
aVdays
p154
aVfact
p155
aVhard
p156
ag149
aVjust
p157
ag147
aVnew
p158
aVperson
p159
aVthis
p160
aVwish
p161
a(Vdislike
p162
Vmuch
p163
tp164
aVbetter
p165
aVcant
p166
aVcome
p167
aVday
p168
aVeven
p169
aVfamily
p170
aVfeel
p171
aVicon
p172
aVnotice
p173
aVschool
p174
aVactually
p175
aVaint
p176
aVback
p177
aVbad
p178
aVbitches
p179
aVbut
p180
aVcause
p181
aVfuck
p182
aVgetting
p183
aVkiss
p184
aVliampayne
p185
aVlive
p186
aVmakes
p187
aVmean
p188
aVnever
p189
aVsaid
p190
aVshit
p191
aVsong
p192
aVthat
p193
aVthe
p194
aVthough
p195
aVworld
p196
a(Vdislike
p197
Vsomeone
p198
tp199
a(Vmuch
p200
Vlove
p201
tp202
aVass
p203
aVaway
p204
aVbeforeidieiwanna
p205
aVbio
p206
aVdidnt
p207
aVeverything
p208
aVfollowers
p209
aVfound
p210
aVfunny
p211
aVgirls
p212
aVgive
p213
aVgoing
p214
aVhes
p215
aVimportant
p216
aVlooking
p217
aVmom
p218
aVnobody
p219
aVnothing
p220
aVsongs
p221
aVtake
p222
aVthanks
p223
aVtoday
p224
aVugh
p225
aVwait
p226
aVwhole
p227
a(Vacknowledge
p228
Vexistence
p229
tp230
a(g228
g229
Vfollow
p231
tp232
a(Vbabe
p233
Vbirthday
p234
tp235
a(g233
g234
Vdays
p236
tp237
a(g205
Vmake
p238
tp239
a(g234
g236
tp240
a(g234
g236
Vplease
p241
tp242
a(g236
g241
tp243
a(g236
g241
g228
tp244
a(g20
Vacc
p245
tp246
a(Vdont
p247
g27
tp248
a(Vdont
p249
Vknow
p250
tp251
a(g229
g231
tp252
a(g229
g231
Vsay
p253
tp254
a(g231
g253
tp255
a(g231
g253
Vplease
p256
tp257
a(Vfucking
p258
Vlove
p259
tp260
a(g77
g2
tp261
a(g8
Vlove
p262
tp263
a(Vliam
p264
Vlove
p265
tp266
a(g264
g265
Vyou
p267
tp268
a(Vliampayne
p269
g233
tp270
a(g269
g233
g234
tp271
a(g19
g20
g245
tp272
a(Vlove
p273
Vbig
p274
tp275
a(g241
g228
tp276
a(g241
g228
g229
tp277
a(g256
g264
tp278
a(g256
g264
g265
tp279
a(Vreally
p280
Vdislike
p281
Vpeople
p282
tp283
a(g253
g256
tp284
a(g253
g256
g264
tp285
ag228
aVarent
p286
ag233
aVbit
p287
aVbody
p288
aVboyfriend
p289
aVcare
p290
aVcarlyfollowme
p291
aVeveryone
p292
ag229
aVguess
p293
aVguys
p294
aVhome
p295
aVhouse
p296
aVlast
p297
ag264
aVlong
p298
aVmany
p299
aVnight
p300
aVpls
p301
aVread
p302
aVreason
p303
aVremember
p304
aVsee
p305
aVsometimes
p306
aVstrong
p307
aVthings
p308
aVwhatever
p309
aVwhen
p310
aVwomen
p311
a(Vactually
p312
Vlove
p313
tp314
a(Vdislike
p315
Vnothing
p316
tp317
a(Vdislike
p318
Vschool
p319
tp320
a(g169
g195
tp321
a(g169
g195
Vdislike
p322
tp323
a(Vfell
p324
Vlove
p325
tp326
a(Vfollow
p327
Vplease
p328
tp329
a(Vheader
p330
g172
tp331
a(Vlove
p332
g102
tp333
a(Vlove
p334
Vkiss
p335
tp336
a(Vlove
p337
Vsong
p338
tp339
a(Vplease
p340
Vfollow
p341
tp342
a(g195
g322
tp343
a(Vwish
p344
Vcould
p345
tp346
aVafraid
p347
aVand
p348
aVaround
p349
aVattention
p350
aVaunt
p351
aVbelieve
p352
aVbest
p353
aVbiggest
p354
aVblack
p355
aVbring
p356
aVcarly
p357
aVcute
p358
aVdamn
p359
aVdoesnt
p360
aVdone
p361
aVevery
p362
ag324
aVfirst
p363
aVfriends
p364
aVhead
p365
ag330
aVhelp
p366
aVhey
p367
aVhii
p368
aVive
p369
aVkobe
p370
aVmiss
p371
aVnothin
p372
aVput
p373
aVsaying
p374
aVshow
p375
aVsmiles
p376
aVsnow
p377
aVsomething
p378
aVsorry
p379
aVswear
p380
aVtalk
p381
aVtext
p382
aVthank
p383
aVthey
p384
aVtrying
p385
aVtwitter
p386
aVupset
p387
aVvideo
p388
aVweird
p389
aVwhat
p390
aVwhy
p391
aVwithout
p392
aVwont
p393
aVwork
p394
aVwrong
p395
aVyour
p396
a(Vaint
p397
Vgot
p398
tp399
a(g397
g398
g372
tp400
a(Valil
p401
g287
tp402
a(Vall
p403
g47
tp404
a(g403
g47
g350
tp405
a(Vamp
p406
Vyoure
p407
tp408
a(g406
g407
Vfunny
p409
tp410
a(Vass
p411
Vocean
p412
tp413
a(g411
g412
g397
tp414
a(Vbaby
p415
Vlove
p416
tp417
a(Vbeef
p418
Vhoes
p419
tp420
a(g418
g419
Vdislike
p421
tp422
a(g205
g238
Vsure
p423
tp424
a(Vbellavitaaa
p425
Vdont
p426
tp427
a(g425
g426
g418
tp428
a(g274
g411
tp429
a(g274
g411
g412
tp430
a(Vcheer
p431
Vplease
p432
tp433
a(g431
g432
Vnotice
p434
tp435
a(Vcomes
p436
Vnaturally
p437
tp438
a(g436
g437
g406
tp439
a(Vdislike
p440
Vdont
p441
tp442
a(Vdislike
p443
g170
tp444
a(Vdislike
p445
g295
tp446
a(g445
g295
Vsometimes
p447
tp448
a(Vdislike
p449
Vlife
p450
tp451
a(Vdislike
p452
Vlot
p453
tp454
a(Vdislike
p455
g299
tp456
a(g162
g163
g403
tp457
a(g133
g17
tp458
a(Vdislike
p459
Vpaul
p460
tp461
a(g421
Vshrugs
p462
tp463
a(g2
Vslut
p464
tp465
a(g2
g464
g23
tp466
a(g197
g198
Vtries
p467
tp468
a(Vdislike
p469
Vuname
p470
tp471
a(g426
g418
tp472
a(g426
g418
g419
tp473
a(g441
Vreally
p474
tp475
a(Vfeel
p476
Vlike
p477
tp478
a(Vfind
p479
Vlove
p480
tp481
a(g479
g480
Vfaster
p482
tp483
a(Vfirstlady
p484
g197
tp485
a(g484
g197
g198
tp486
a(g210
g77
tp487
a(g210
g77
g2
tp488
a(g409
Vhell
p489
tp490
a(g211
Vlike
p491
tp492
a(g211
g491
g436
tp493
a(g77
g2
g464
tp494
a(Vgirl
p495
g196
tp496
a(g398
g372
tp497
a(Vhappiest
p498
Vgirl
p499
tp500
a(Vhard
p501
g211
tp502
a(g501
g211
g491
tp503
a(g368
g431
tp504
a(g368
g431
g432
tp505
a(g419
g421
tp506
a(g419
g421
g462
tp507
a(g295
g447
tp508
a(g295
g447
g193
tp509
a(g216
Vpeople
p510
tp511
a(g216
g510
Vlife
p512
tp513
a(g23
g155
tp514
a(g335
Vspain
p515
tp516
a(Vknow
p517
Vmuch
p518
tp519
a(g517
g518
g188
tp520
a(Vleads
p521
Vunhappy
p522
tp523
a(g512
g517
tp524
a(g512
g517
g518
tp525
a(g491
g436
tp526
a(g491
g436
g437
tp527
a(g273
g274
g411
tp528
a(Vlove
p529
Vdont
p530
tp531
a(g480
g482
tp532
a(Vlove
p533
Vgetting
p534
tp535
a(g334
g335
g515
tp536
a(Vlove
p537
g22
tp538
a(Vlove
p539
Vsongs
p540
tp541
a(g238
g423
tp542
a(g238
g423
g216
tp543
a(g188
Vmuch
p544
tp545
a(g188
g544
Vlove
p546
tp547
a(g163
g403
tp548
a(g163
g403
g47
tp549
a(g518
g188
tp550
a(g518
g188
g544
tp551
a(g437
g406
tp552
a(g437
g406
g407
tp553
a(g434
g334
tp554
a(g434
g334
g335
tp555
a(g412
g397
tp556
a(g412
g397
g398
tp557
a(Vone
p558
g354
tp559
a(Vone
p560
Vlove
p561
tp562
a(Vpeople
p563
g479
tp564
a(g563
g479
g480
tp565
a(g510
g512
tp566
a(g510
g512
g517
tp567
a(Vpeople
p568
g3
tp569
a(Vpeople
p570
Vlove
p571
tp572
a(Vperson
p573
Vdislike
p574
tp575
a(g432
g434
tp576
a(g432
g434
g334
tp577
a(Vreally
p578
Vlike
p579
tp580
a(Vreasons
p581
Vlove
p582
tp583
a(Vseriously
p584
g162
tp585
a(g584
g162
g163
tp586
a(g464
g23
tp587
a(g464
g23
g155
tp588
a(g198
g467
tp589
a(g198
g467
g501
tp590
a(g447
g193
tp591
a(g447
g193
g521
tp592
a(Vstill
p593
Vlove
p594
tp595
a(g423
g216
tp596
a(g423
g216
g510
tp597
a(g193
g521
tp598
a(g193
g521
g522
tp599
a(g145
Vdislike
p600
tp601
a(g467
g501
tp602
a(g467
g501
g211
tp603
a(g225
Vdislike
p604
tp605
a(Vugly
p606
g563
tp607
a(g606
g563
g479
tp608
a(g47
g350
tp609
a(g407
g409
tp610
a(g407
g409
g489
tp611
aVabout
p612
aVago
p613
ag401
ag403
aVannoying
p614
aVanswer
p615
aVbeautiful
p616
ag418
ag425
aVbitching
p617
aVcall
p618
ag431
ag436
aVcouple
p619
aVdat
p620
aVdifferent
p621
aVdirection
p622
aVeat
p623
aVeyes
p624
aVface
p625
aVfalling
p626
ag482
aVfeeling
p627
ag479
ag484
aVforever
p628
aVfree
p629
aVgirlfriend
p630
aVglad
p631
aVgood
p632
aVgrandmother
p633
ag498
ag489
ag419
aVhope
p634
aVhow
p635
aVidk
p636
aVion
p637
aVjustin
p638
aVlaugh
p639
ag521
aVleast
p640
aVlie
p641
aVlisten
p642
aVliterally
p643
aVmade
p644
aVman
p645
aVmarry
p646
aVmight
p647
aVmore
p648
aVmovies
p649
aVname
p650
ag437
aVnext
p651
aVnice
p652
aVnigga
p653
aVniggas
p654
aVnot
p655
ag412
aVparents
p656
aVpassion
p657
ag460
aVperiod
p658
aVplace
p659
aVqueen
p660
aVradio
p661
aVreading
p662
ag581
ag584
aVshame
p663
aVshowing
p664
ag462
aVsick
p665
aVsister
p666
aVsleep
p667
ag464
aVsoooo
p668
ag515
aVstarting
p669
aVstop
p670
aVstraight
p671
aVthen
p672
aVtht
p673
aVtimes
p674
ag467
aVtry
p675
ag606
ag470
ag522
aVvom
p676
aVwell
p677
aVwent
p678
aVwhoever
p679
aVwith
p680
aVyall
p681
aVyeah
p682
aVyet
p683
aVyouuuu
p684
a(V4th
p685
Vperiod
p686
tp687
a(g685
g686
Vhilarious
p688
tp689
a(Vabsolutely
p690
Vlove
p691
tp692
a(Vactual
p693
Vfuck
p694
tp695
a(g693
g694
Vsupposed
p696
tp697
a(g312
g313
Veverything
p698
tp699
a(Vaftergfi
p700
Vlove
p701
tp702
a(Vaint
p703
Vbeefing
p704
tp705
a(g703
g704
g680
tp706
a(g401
g287
Valil
p707
tp708
a(g78
g387
tp709
a(g78
g387
Vthats
p710
tp711
a(g615
Vwould
p712
tp713
a(g615
g712
g663
tp714
a(g286
Vsexy
p715
tp716
a(g286
g715
Vcorvettes
p717
tp718
a(Vaunt
p719
Vgrandmother
p720
tp721
a(Vbaby
p722
Vbaby
p723
tp724
a(Vbaby
p725
Vbring
p726
tp727
a(g102
Vfollow
p728
tp729
a(g102
g728
g289
tp730
a(Vballin
p731
Vhard
p732
tp733
a(g731
g732
Vswea
p734
tp735
a(Vbash
p736
Vblack
p737
tp738
a(g736
g737
Vwomen
p739
tp740
a(g704
g680
tp741
a(g704
g680
Vnobody
p742
tp743
a(Vbeforeidieiwanna
p744
Vmake
p745
g656
tp746
a(g354
Vdreams
p747
tp748
a(g354
g747
Vlt3
p749
tp750
a(Vbio
p751
g182
tp752
a(g751
g182
g179
tp753
a(Vbio
p754
Vicon
p755
tp756
a(g754
g755
g469
tp757
a(g206
g332
tp758
a(g206
g332
g102
tp759
a(g287
g707
tp760
a(g287
g707
Vbit
p761
tp762
a(Vbitch
p763
Vlike
p764
tp765
a(g763
g764
Vhoe
p766
tp767
a(g179
g15
tp768
a(g179
g15
Vmoney
p769
tp770
a(Vbitches
p771
Vlove
p772
tp773
a(g355
Vmen
p774
tp775
a(g355
g774
g736
tp776
a(g737
g739
tp777
a(g737
g739
Vlast
p778
tp779
a(Vbody
p780
Vsore
p781
tp782
a(g288
Vworkouts
p783
tp784
a(g288
g783
Vlike
p785
tp786
a(g289
g751
tp787
a(g289
g751
g182
tp788
a(Vburney
p789
g584
tp790
a(g789
g584
g162
tp791
a(g180
Vdislike
p792
tp793
a(Vcant
p794
g667
tp795
a(Vcarly
p796
Vfollow
p797
tp798
a(g796
g797
Vplease
p799
tp800
a(Vcarlyfollowme
p801
g796
tp802
a(g801
g796
g797
tp803
a(g291
Vlove
p804
tp805
a(g291
g804
Vyou
p806
tp807
a(Vcertain
p808
Vpeople
p809
tp810
a(Vchecked
p811
Vmom
p812
tp813
a(g811
g812
g666
tp814
a(Vclare
p815
Vughhhhhhhhh
p816
tp817
a(g815
g816
Vdislike
p818
tp819
a(Vclass
p820
g685
tp821
a(g820
g685
g686
tp822
a(Vcome
p823
g415
tp824
a(g823
g415
g416
tp825
a(Vdat
p826
g370
tp827
a(g826
g370
Vlove
p828
tp829
a(Vday
p830
Vwhole
p831
tp832
a(g830
g831
g780
tp833
a(Vdislike
p834
g355
tp835
a(g834
g355
g774
tp836
a(g322
g820
tp837
a(g322
g820
g685
tp838
a(Vdislike
p839
Veveryone
p840
tp841
a(Vdislike
p842
Vfact
p843
tp844
a(Vdislike
p845
Vfull
p846
tp847
a(g845
g846
g288
tp848
a(Vdislike
p849
Vguy
p850
tp851
a(g792
Vhate
p852
tp853
a(Vdislike
p854
Vheader
p855
tp856
a(g854
g855
Vicon
p857
tp858
a(Vdislike
p859
Vkobe
p860
tp861
a(g118
g644
tp862
a(g118
g644
g303
tp863
a(g455
g299
g212
tp864
a(Vdislike
p865
g218
tp866
a(g865
g218
Vright
p867
tp868
a(Vdislike
p869
Vmustangs
p870
tp871
a(g869
g870
g286
tp872
a(Vdislike
p873
g158
tp874
a(Vdislike
p875
Vnobody
p876
tp877
a(g875
g876
Vjust
p878
tp879
a(g133
g17
Vdimple
p880
tp881
a(Vdislike
p882
g657
tp883
a(Vdislike
p884
Vpeople
p885
Vdislike
p886
tp887
a(Vdislike
p888
Vpeople
p889
Vdont
p890
tp891
a(Vdislike
p892
Vpeople
p893
Vsay
p894
tp895
a(g281
g282
g58
tp896
a(Vdislike
p897
Vperson
p898
tp899
a(Vdislike
p900
Vppl
p901
tp902
a(g900
g901
g78
tp903
a(g604
g661
tp904
a(g604
g661
g45
tp905
a(g318
g319
g664
tp906
a(Vdislike
p907
g665
tp908
a(g574
g376
tp909
a(g574
g376
Vltltltltltlt
p910
tp911
a(Vdislike
p912
Vtrey
p913
tp914
a(g912
g913
Vnew
p915
tp916
a(Vdislike
p917
Vway
p918
tp919
a(Vdislike
p920
g679
tp921
a(Vdont
p922
g290
tp923
a(g890
Vfeel
p924
tp925
a(g890
g924
Vneed
p926
tp927
a(Vdont
p928
g142
tp929
a(g928
g142
g568
tp930
a(Vdont
p931
Vget
p932
tp933
a(Vdont
p934
Vhate
p935
g73
tp936
a(g530
Vknow
p937
Vfucking
p938
tp939
a(Vdont
p940
Vlove
p941
tp942
a(Vdont
p943
Vreally
p944
Vmatch
p945
tp946
a(Vdont
p947
Vthink
p948
tp949
a(g747
g749
tp950
a(g698
g854
tp951
a(g698
g854
g855
tp952
a(Veverything
p953
Vperfect
p954
tp955
a(g953
g954
Vdislike
p956
tp957
a(g155
Vcouhzebl3yrc
p958
tp959
a(g924
g926
tp960
a(g924
g926
Vtell
p961
tp962
a(g728
g289
tp963
a(g728
g289
g751
tp964
a(Vfollow
p965
g558
tp966
a(g965
g558
g354
tp967
a(g797
g799
Vlove
p968
tp969
a(Vfollowers
p970
Vtwitter
p971
tp972
a(g970
g971
Vcojxzlw8pzw2
p973
tp974
a(g182
g179
tp975
a(g182
g179
g15
tp976
a(g694
g696
tp977
a(g694
g696
Vtrain
p978
tp979
a(g142
g568
tp980
a(g142
g568
g3
tp981
a(g846
g288
tp982
a(g846
g288
g783
tp983
a(g15
g769
tp984
a(g15
g769
Vscratches
p985
tp986
a(Vgirl
p987
g318
g319
tp988
a(g495
g196
Vlove
p989
tp990
a(g630
g206
tp991
a(g630
g206
g332
tp992
a(g212
Vcraaazzzy
p993
tp994
a(g631
Vgot
p995
tp996
a(g498
g499
Vworld
p997
tp998
a(Vhappy
p999
Vproud
p1000
tp1001
a(g999
g1000
Vtravel
p1002
tp1003
a(g732
g734
tp1004
a(g732
g734
Vthink
p1005
tp1006
a(Vhate
p1007
Vpeople
p1008
tp1009
a(g935
g73
tp1010
a(g935
g73
g74
tp1011
a(Vhates
p1012
Vstrong
p1013
tp1014
a(g1012
g1013
Vword
p1015
tp1016
a(g365
Vsure
p1017
tp1018
a(g365
g1017
g144
tp1019
a(g855
g857
g943
tp1020
a(g330
g172
Vuser
p1021
tp1022
a(g367
Vlove
p1023
tp1024
a(g688
Vthomas
p1025
tp1026
a(g688
g1025
Vbeats
p1027
tp1028
a(g766
Vyaaaass
p1029
tp1030
a(g766
g1029
Vbitch
p1031
tp1032
a(Vhonestly
p1033
Vreally
p1034
tp1035
a(g1033
g1034
Vdislike
p1036
tp1037
a(Vice
p1038
Vcream
p1039
tp1040
a(g755
g469
tp1041
a(g755
g469
g470
tp1042
a(g857
g943
tp1043
a(g857
g943
g944
tp1044
a(g172
g1021
tp1045
a(g172
g1021
g315
tp1046
a(Vidgaf
p1047
g928
tp1048
a(g1047
g928
g142
tp1049
a(Vill
p1050
g628
tp1051
a(Vimportant
p1052
Vinformation
p1053
tp1054
a(g1052
g1053
Vforserious
p1055
tp1056
a(g1053
g1055
tp1057
a(g637
g875
tp1058
a(g637
g875
g876
tp1059
a(g23
g155
g958
tp1060
a(Vjonas
p1061
Vbrothers
p1062
tp1063
a(g878
Vcooolling
p1064
tp1065
a(g157
g25
tp1066
a(g157
g25
g11
tp1067
a(Vkaikai
p1068
Vlol
p1069
tp1070
a(g1068
g1069
Vreally
p1071
tp1072
a(Vknow
p1073
Vdislike
p1074
tp1075
a(g937
g938
tp1076
a(Vknow
p1077
g189
tp1078
a(g370
g828
tp1079
a(g370
g828
Vsong
p1080
tp1081
a(g778
Vtime
p1082
tp1083
a(g778
g1082
g811
tp1084
a(g639
Vlove
p1085
tp1086
a(g785
g693
tp1087
a(g785
g693
g694
tp1088
a(g3
Vanyway
p1089
tp1090
a(Vlike
p1091
g754
tp1092
a(g1091
g754
g755
tp1093
a(g579
g330
tp1094
a(g579
g330
g172
tp1095
a(g764
g766
tp1096
a(g764
g766
g1029
tp1097
a(Vlike
p1098
Vlol
p1099
tp1100
a(Vlike
p1101
Vpeople
p1102
tp1103
a(g643
Vdislike
p1104
tp1105
a(g1069
g1071
tp1106
a(g1069
g1071
Vdislike
p1107
tp1108
a(Vlooking
p1109
Vforward
p1110
tp1111
a(g332
g102
g728
tp1112
a(g529
g530
g937
tp1113
a(g313
g698
tp1114
a(g313
g698
g854
tp1115
a(Vlove
p1116
Vfact
p1117
tp1118
a(Vlove
p1119
Vhoney
p1120
tp1121
a(Vlove
p1122
Vlt3
p1123
tp1124
a(Vlove
p1125
Vmiss
p1126
tp1127
a(Vlove
p1128
Vmuch
p1129
Vplease
p1130
tp1131
a(Vlove
p1132
Vmuch
p1133
Vpls
p1134
tp1135
a(g582
Vniall
p1136
tp1137
a(Vlove
p1138
Vseeing
p1139
tp1140
a(Vlove
p1141
Vselena
p1142
tp1143
a(g828
g1080
g859
tp1144
a(Vlove
p1145
g194
tp1146
a(g1145
g194
g1061
tp1147
a(g1
g126
tp1148
a(Vlove
p1149
g681
tp1150
a(Vlove
p1151
Vyou
p1152
Vmore
p1153
tp1154
a(Vlove
p1155
Vyou
p1156
Vmuch
p1157
tp1158
a(g968
Vyouuuu
p1159
tp1160
a(g644
g303
tp1161
a(g644
g303
g1047
tp1162
a(Vmake
p1163
Vdislike
p1164
tp1165
a(g745
g656
tp1166
a(g745
g656
g999
tp1167
a(g299
g212
tp1168
a(g299
g212
g993
tp1169
a(g646
g560
tp1170
a(g646
g560
g561
tp1171
a(Vmeant
p1172
Vstrongly
p1173
tp1174
a(g1172
g1173
Vdislike
p1175
tp1176
a(g774
g736
tp1177
a(g774
g736
g737
tp1178
a(g218
g867
tp1179
a(g812
g666
tp1180
a(g812
g666
g719
tp1181
a(g769
g985
tp1182
a(g769
g985
g365
tp1183
a(g132
g133
g17
tp1184
a(g1129
g1130
tp1185
a(g1133
g1134
tp1186
a(g1133
g1134
g965
tp1187
a(g870
g286
tp1188
a(g870
g286
g715
tp1189
a(g926
g961
tp1190
a(g926
g961
g1052
tp1191
a(g915
Vsong
p1192
tp1193
a(g651
g830
tp1194
a(g651
g830
g831
tp1195
a(g742
g637
tp1196
a(g742
g637
g875
tp1197
a(g876
g878
tp1198
a(g876
g878
g1064
tp1199
a(Vomg
p1200
Vlove
p1201
tp1202
a(g558
g354
g747
tp1203
a(Vone
p1204
Vday
p1205
tp1206
a(g17
g880
tp1207
a(Vone
p1208
g622
tp1209
a(Vone
p1210
Vthing
p1211
tp1212
a(g656
g999
tp1213
a(g656
g999
g1000
tp1214
a(g5
g118
g644
tp1215
a(g889
g890
tp1216
a(g889
g890
g924
tp1217
a(g568
g3
g1089
tp1218
a(g893
g894
tp1219
a(g893
g894
Vyuuuuss
p1220
tp1221
a(g282
g58
tp1222
a(g954
g956
tp1223
a(g954
g956
Vnothing
p1224
tp1225
a(g686
g688
tp1226
a(g686
g688
g1025
tp1227
a(g573
g574
g376
tp1228
a(g799
g968
tp1229
a(g799
g968
g1159
tp1230
a(g1134
g965
tp1231
a(g1134
g965
g558
tp1232
a(g901
g78
tp1233
a(g901
g78
g387
tp1234
a(g1000
g1002
tp1235
a(g1000
g1002
Vworld
p1236
tp1237
a(g661
g45
tp1238
a(Vread
p1239
Vold
p1240
tp1241
a(g662
Vtweet
p1242
tp1243
a(g662
g1242
Vright
p1244
tp1245
a(Vreally
p1246
g865
g218
tp1247
a(Vreally
p1248
g900
g901
tp1249
a(g1034
g1036
Vschool
p1250
tp1251
a(g578
g579
g330
tp1252
a(g944
g945
tp1253
a(Vreally
p1254
Vreally
p1255
tp1256
a(g1254
g1255
Vdislike
p1257
tp1258
a(g303
g1047
tp1259
a(g303
g1047
g928
tp1260
a(g581
g582
g1136
tp1261
a(g1244
g615
tp1262
a(g1244
g615
g712
tp1263
a(Vright
p1264
g823
tp1265
a(g1264
g823
g415
tp1266
a(Vsay
p1267
Vhate
p1268
tp1269
a(g39
Vlove
p1270
tp1271
a(g894
g1220
tp1272
a(g894
g1220
g763
tp1273
a(g319
g664
tp1274
a(g319
g664
g970
tp1275
a(g985
g365
tp1276
a(g985
g365
g1017
tp1277
a(g715
g717
tp1278
a(g663
g1264
tp1279
a(g663
g1264
g823
tp1280
a(g664
g970
tp1281
a(g664
g970
g971
tp1282
a(g666
g719
tp1283
a(g666
g719
g720
tp1284
a(g376
g910
tp1285
a(Vsnappin
p1286
g459
tp1287
a(g1286
g459
g460
tp1288
a(Vsomeone
p1289
Vdislike
p1290
tp1291
a(g378
Vlike
p1292
tp1293
a(g1080
g859
tp1294
a(g1080
g859
g860
tp1295
a(Vstarting
p1296
Vdislike
p1297
tp1298
a(g307
g912
tp1299
a(g307
g912
g913
tp1300
a(g1013
g1015
tp1301
a(g1013
g1015
g1172
tp1302
a(Vstrongly
p1303
g907
g665
tp1304
a(g696
g978
tp1305
a(g696
g978
g651
tp1306
a(g37
Vlove
p1307
tp1308
a(g1017
g144
tp1309
a(g734
g1005
tp1310
a(g734
g1005
g826
tp1311
a(g380
g606
tp1312
a(g380
g606
g563
tp1313
a(g961
g1052
tp1314
a(g961
g1052
g1053
tp1315
a(g710
g614
tp1316
a(Vthats
p1317
Vdislike
p1318
tp1319
a(Vthats
p1320
Vmuch
p1321
tp1322
a(g1320
g1321
Vdislike
p1323
tp1324
a(g194
g1061
tp1325
a(g194
g1061
g1062
tp1326
a(Vthey
p1327
Vare
p1328
tp1329
a(g1005
g826
tp1330
a(g1005
g826
g370
tp1331
a(Vthis
p1332
Vlove
p1333
tp1334
a(g1025
g1027
tp1335
a(g195
g322
g820
tp1336
a(g1082
g811
tp1337
a(g1082
g811
g812
tp1338
a(Vtoday
p1339
g987
tp1340
a(g1339
g987
g318
tp1341
a(g978
g651
tp1342
a(g978
g651
g830
tp1343
a(g1002
g1236
tp1344
a(g1002
g1236
g646
tp1345
a(g913
g915
tp1346
a(g913
g915
g1192
tp1347
a(g385
Vget
p1348
tp1349
a(g146
Vlove
p1350
tp1351
a(g1242
g1244
tp1352
a(g1242
g1244
g615
tp1353
a(g971
g973
tp1354
a(g225
g604
g661
tp1355
a(g816
g818
tp1356
a(g816
g818
Vpeople
p1357
tp1358
a(Vunderstands
p1359
Vmuch
p1360
tp1361
a(g1359
g1360
g443
tp1362
a(g387
g710
tp1363
a(g387
g710
g614
tp1364
a(g1021
g315
tp1365
a(g1021
g315
g316
tp1366
a(g676
Vvom
p1367
tp1368
a(Vweird
p1369
Vguess
p1370
tp1371
a(g678
g529
tp1372
a(g678
g529
g530
tp1373
a(Vwhen
p1374
g573
tp1375
a(g1374
g573
g574
tp1376
a(g831
g780
tp1377
a(g831
g780
g781
tp1378
a(Vwhy
p1379
Vwould
p1380
tp1381
a(g680
g742
tp1382
a(g680
g742
g637
tp1383
a(g739
g778
tp1384
a(g739
g778
g1082
tp1385
a(g1015
g1172
tp1386
a(g1015
g1172
g1173
tp1387
a(g783
g785
tp1388
a(g783
g785
g693
tp1389
a(g196
g989
tp1390
a(g1236
g646
tp1391
a(g1236
g646
g560
tp1392
a(Vwould
p1393
g498
tp1394
a(g1393
g498
g499
tp1395
a(g48
Vlove
p1396
tp1397
a(g712
g663
tp1398
a(g712
g663
g1264
tp1399
a(Vwould
p1400
Vsomeone
p1401
tp1402
a(Vwrong
p1403
Vtiming
p1404
tp1405
a(g1029
g1031
tp1406
a(Vyears
p1407
g613
tp1408
a(Vyou
p1409
Vlove
p1410
tp1411
a(g1152
g1153
tp1412
a(g1156
g1157
tp1413
a(g1220
g763
tp1414
a(g1220
g763
g764
tp1415
aV100
p1416
ag685
aVability
p1417
ag690
aVact
p1418
ag693
aVadmire
p1419
ag700
aValright
p1420
aValso
p1421
aVamazing
p1422
aVantonio
p1423
aVanymore
p1424
aVanything
p1425
ag1089
ag1328
aVargue
p1426
aVask
p1427
aVaww
p1428
aVawwh
p1429
ag731
ag736
ag1027
aVbed
p1430
ag704
aVbestfriend
p1431
aVbeyond
p1432
aVbird
p1433
aVblind
p1434
aVbook
p1435
aVbottom
p1436
aVboys
p1437
ag1062
aVbunny
p1438
ag789
aVbye
p1439
aVcalled
p1440
aVcame
p1441
aVcareer
p1442
ag808
aVchange
p1443
aVcheck
p1444
ag811
ag815
ag820
aVclick
p1445
ag973
aVcold
p1446
aVcoming
p1447
aVcommunity
p1448
aVconcert
p1449
aVconverse
p1450
aVcool
p1451
ag1064
ag717
ag958
ag993
ag1039
aVcry
p1452
aVcucu
p1453
aVcutest
p1454
aVcuz
p1455
aVdecent
p1456
aVdifference
p1457
ag880
aVdoor
p1458
aVdream
p1459
ag747
aVdying
p1460
aVfacebook
p1461
aVfan
p1462
aVfans
p1463
aVfar
p1464
aVfat
p1465
aVfeet
p1466
aVfigure
p1467
aVfish
p1468
aVfollowed
p1469
ag1055
ag1110
aVfour
p1470
aVfreshman
p1471
aVfriend
p1472
ag846
aVfun
p1473
aVglory
p1474
aVgod
p1475
aVgonna
p1476
aVgreat
p1477
ag850
aVhahaha
p1478
aVhair
p1479
aVharry
p1480
ag1012
ag688
ag766
ag1033
aVhonesty
p1481
ag1120
aVhot
p1482
ag1038
ag1047
ag1053
aVintroduce
p1483
aVjob
p1484
ag1061
ag1068
aVkinda
p1485
aVkissed
p1486
aVknowing
p1487
aVleave
p1488
aVliked
p1489
aVlistening
p1490
aVlittle
p1491
aVloud
p1492
ag910
aVmales
p1493
ag945
aVmay
p1494
aVmeans
p1495
ag1172
ag774
aVmet
p1496
aVmichael
p1497
ag769
aVmoon
p1498
aVmouth
p1499
ag870
aVnah
p1500
ag926
aVneeds
p1501
ag1136
aVokay
p1502
ag1240
aVoomf
p1503
aVpants
p1504
aVpaying
p1505
aVpicture
p1506
aVpictures
p1507
ag901
aVpretty
p1508
aVproblems
p1509
ag1000
aVreal
p1510
aVrespect
p1511
ag985
ag1139
ag1142
ag715
aVshe
p1512
aVsheeran
p1513
aVshorts
p1514
aVshots
p1515
aVsimple
p1516
aVsince
p1517
ag1286
aVsome
p1518
aVsongsthatwillnevergetold
p1519
aVsoon
p1520
ag781
aVsrsly
p1521
aVstarted
p1522
aVstupid
p1523
aVsummer
p1524
aVsupport
p1525
ag696
ag734
aVsweetest
p1526
aVtalented
p1527
aVtalking
p1528
aVteam
p1529
aVtears
p1530
aVtest
p1531
aVthere
p1532
aVtheyre
p1533
ag1025
aVthrow
p1534
aVtim
p1535
ag1404
aVtomorrow
p1536
aVtonight
p1537
aVtook
p1538
ag978
ag1002
ag913
aVtruth
p1539
aVtrynna
p1540
ag816
aVunderstand
p1541
ag1359
aVupdates
p1542
aVuse
p1543
ag1021
aVusually
p1544
aVwalk
p1545
aVwanna
p1546
aVwanted
p1547
aVwear
p1548
aVwho
p1549
ag1015
ag783
aVwow
p1550
aVwtf
p1551
ag1029
aVyah
p1552
ag1407
aVyoui
p1553
aVyouu
p1554
ag1220
a(g1416
Vdislike
p1555
tp1556
a(V100
p1557
Vsomething
p1558
tp1559
a(g1557
g1558
g383
tp1560
a(V1000
p1561
Vsongs
p1562
tp1563
a(g1561
g1562
Viphone
p1564
tp1565
a(V123
p1566
g5
tp1567
a(g1566
g5
g118
tp1568
a(V15k
p1569
Vfollowers
p1570
tp1571
a(g1569
g1570
Vgonna
p1572
tp1573
a(V1slow
p1574
Vinternet
p1575
tp1576
a(g1574
g1575
Vconnection
p1577
tp1578
a(V20k
p1579
Vfollowers
p1580
tp1581
a(g1579
g1580
Vlove
p1582
tp1583
a(V21213
p1584
Vbeyond
p1585
tp1586
a(g1584
g1585
Vlove
p1587
tp1588
a(V23k
p1589
Vagen
p1590
tp1591
a(g1589
g1590
g301
tp1592
a(V295
p1593
Vfollowings
p1594
tp1595
a(g1593
g1594
Vplease
p1596
tp1597
a(V2night
p1598
Vgoing
p1599
tp1600
a(g1598
g1599
Vturnt
p1601
tp1602
a(V2plans
p1603
Vgetting
p1604
tp1605
a(g1603
g1604
Vcanceled
p1606
tp1607
a(V2years
p1608
Vapart
p1609
tp1610
a(g1608
g1609
Vstill
p1611
tp1612
a(V3people
p1613
Vdislike4homework
p1614
tp1615
a(V409
p1616
Vlove
p1617
tp1618
a(g1616
g1617
Vtruck
p1619
tp1620
a(V4ammy
p1621
g351
tp1622
a(g1621
g351
Vpassed
p1623
tp1624
a(V50000
p1625
g209
tp1626
a(g1625
g209
Voriginally
p1627
tp1628
a(V64zoolane
p1629
Vwould
p1630
tp1631
a(g1629
g1630
Vlove
p1632
tp1633
a(V911
p1634
Vlove
p1635
tp1636
a(g1634
g1635
Vthings
p1637
tp1638
a(Vabc
p1639
g48
tp1640
a(g1639
g48
g1396
tp1641
a(g1417
Vliterally
p1642
tp1643
a(g1417
g1642
Vdislike
p1644
tp1645
a(Vability
p1646
Vmake
p1647
tp1648
a(g1646
g1647
Vpeople
p1649
tp1650
a(Vable
p1651
g1514
tp1652
a(g1651
g1514
Vcut
p1653
tp1654
a(Vabout
p1655
Vion
p1656
tp1657
a(g1655
g1656
Vhate
p1658
tp1659
a(Vabout
p1660
Vwhat
p1661
tp1662
a(g1660
g1661
Vdoing
p1663
tp1664
a(g612
Vyou
p1665
tp1666
a(Vabsolutelly
p1667
g1422
tp1668
a(Vabsolutely
p1669
Vlove
p1670
Vwork
p1671
tp1672
a(Vacc
p1673
Vfan
p1674
tp1675
a(g1673
g1674
Vacc
p1676
tp1677
a(Vacc
p1678
Vperfect
p1679
tp1680
a(g1676
Vpls
p1681
tp1682
a(Vaccent
p1683
Vtho
p1684
tp1685
a(Vaccents
p1686
Vdislike
p1687
tp1688
a(g1686
g1687
g1683
tp1689
a(Vaccept
p1690
Vfact
p1691
tp1692
a(g1690
g1691
Vlove
p1693
tp1694
a(Vaccepted
p1695
Vaccidentally
p1696
tp1697
a(g1695
g1696
Vdeliberately
p1698
tp1699
a(g1696
g1698
tp1700
a(g1696
g1698
Vdropped
p1701
tp1702
a(Vaccount
p1703
Vrates
p1704
tp1705
a(g1703
g1704
Vpls
p1706
tp1707
a(Vaccounts
p1708
Vjust
p1709
tp1710
a(Vact
p1711
Vdifferent
p1712
tp1713
a(g1711
g1712
Varound
p1714
tp1715
a(g1418
Vlike
p1716
tp1717
a(g1418
g1716
Vlil
p1718
tp1719
a(Vactin
p1720
Vlike
p1721
tp1722
a(g1720
g1721
Vdont
p1723
tp1724
a(Vactions
p1725
Vlove
p1726
tp1727
a(g1725
g1726
Veveryone
p1728
tp1729
a(Vacts
p1730
Vway
p1731
tp1732
a(g1730
g1731
Vway
p1733
tp1734
a(g175
Vdont
p1735
tp1736
a(g175
g1735
Vhate
p1737
tp1738
a(Vactually
p1739
Vkidding
p1740
tp1741
a(g1739
g1740
g1254
tp1742
a(Vactually
p1743
Vlove
p1744
g1466
tp1745
a(Vactually
p1746
Vrefreshing
p1747
tp1748
a(g1746
g1747
Vamaz
p1749
tp1750
a(Vaddicted
p1751
g6
tp1752
a(g1751
g6
g166
tp1753
a(Vadios
p1754
Vyuckkyy
p1755
tp1756
a(g1419
Vexpensive
p1757
tp1758
a(g1419
g1757
Vtastee
p1759
tp1760
a(Vadmire
p1761
Vwinston
p1762
tp1763
a(g1761
g1762
Vchurchill
p1764
tp1765
a(Vadnd
p1766
Vlove
p1767
tp1768
a(g1766
g1767
Vcoz
p1769
tp1770
a(Vadore
p1771
Vlt3
p1772
tp1773
a(Vaffair
p1774
Vtoday
p1775
tp1776
a(g1774
g1775
Vpint
p1777
tp1778
a(Vafraid
p1779
Vdead
p1780
tp1781
a(g1779
g1780
Vdying
p1782
tp1783
a(Vafraid
p1784
Vfall
p1785
tp1786
a(g347
Vsay
p1787
tp1788
a(g347
g1787
Vthink
p1789
tp1790
a(Vafraid
p1791
Vstudent
p1792
tp1793
a(g1791
g1792
Vwould
p1794
tp1795
a(Vafrika
p1796
Vcant
p1797
tp1798
a(g1796
g1797
Vsleep
p1799
tp1800
a(Vaftergfi
p1801
Vlove
p1802
Vbunny
p1803
tp1804
a(g700
g701
Vhoneymei
p1805
tp1806
a(g1590
g301
tp1807
a(g1590
g301
Vlove
p1808
tp1809
a(g613
Vdidnt
p1810
tp1811
a(g613
g1810
Veven
p1812
tp1813
a(Vago
p1814
Vfeel
p1815
tp1816
a(g1814
g1815
Vmuch
p1817
tp1818
a(Vago
p1819
Vlove
p1820
tp1821
a(Vagree
p1822
Vdisagree
p1823
tp1824
a(g1822
g1823
Vidk
p1825
tp1826
a(g176
Vbad
p1827
tp1828
a(g176
g1827
Vcha
p1829
tp1830
a(Vaint
p1831
g219
tp1832
a(g1831
g219
Vgot
p1833
tp1834
a(Vaka
p1835
Vassburger
p1836
tp1837
a(g1835
g1836
Vwth
p1838
tp1839
a(Valibi
p1840
Vboyfriend
p1841
tp1842
a(g1840
g1841
Vdislike
p1843
tp1844
a(Valil
p1845
Vbit
p1846
g1125
tp1847
a(Valive
p1848
Vnotice
p1849
tp1850
a(g1848
g1849
Vplease
p1851
tp1852
a(Vallegiance
p1853
Vblind
p1854
tp1855
a(g1853
g1854
Vwithout
p1856
tp1857
a(Vallen
p1858
Vplay
p1859
tp1860
a(g1858
g1859
Vdamn
p1861
tp1862
a(Vallmens
p1863
Vschool
p1864
tp1865
a(g1863
g1864
Vpriests
p1866
tp1867
a(Valmost
p1868
Vnothing
p1869
tp1870
a(g1868
g1869
Vthingsflirting
p1871
tp1872
a(Valone
p1873
Vtogether
p1874
tp1875
a(g1873
g1874
Vlove
p1876
tp1877
a(Valong
p1878
Vlove
p1879
tp1880
a(g1878
g1879
g625
tp1881
a(Valot
p1882
Vhappy
p1883
tp1884
a(g1882
g1883
Vpeople
p1885
tp1886
a(Valready
p1887
g8
tp1888
a(g1887
g8
g262
tp1889
a(g1420
Vill
p1890
tp1891
a(g1420
g1890
Vlie
p1892
tp1893
a(Valso
p1894
Vgotten
p1895
tp1896
a(g1421
Vtotally
p1897
tp1898
a(g1421
g1897
Vlove
p1899
tp1900
a(Valways
p1901
Vask
p1902
tp1903
a(g1901
g1902
Vdirection
p1904
tp1905
a(Valways
p1906
Vbest
p1907
tp1908
a(g1906
g1907
Vreally
p1909
tp1910
a(Valways
p1911
Vdislike
p1912
tp1913
a(Valways
p1914
Vleave
p1915
tp1916
a(g1914
g1915
Vshoes
p1917
tp1918
a(Valways
p1919
Vlike
p1920
tp1921
a(g1919
g1920
g1200
tp1922
a(Valways
p1923
Vlove
p1924
tp1925
a(g1923
g1924
Vyou
p1926
tp1927
a(Valways
p1928
Vmakes
p1929
tp1930
a(g1928
g1929
g639
tp1931
a(Valways
p1932
Vruining
p1933
tp1934
a(g1932
g1933
Vthings
p1935
tp1936
a(Valways
p1937
Vwish
p1938
tp1939
a(Valways
p1940
Vworried
p1941
tp1942
a(g1940
g1941
g1660
tp1943
a(Valways
p1944
Vwrong
p1945
tp1946
a(g1944
g1945
Vtiming
p1947
tp1948
a(Valwayss
p1949
Vimpaul
p1950
tp1951
a(g1949
g1950
Vsnappin
p1952
tp1953
a(Vamazing
p1954
Vlove
p1955
tp1956
a(g1954
g1955
Vmuch
p1957
tp1958
a(Vamber
p1959
Vugh
p1960
tp1961
a(g1959
g1960
Vdislike
p1962
tp1963
a(Vamerica
p1964
Vsomewhere
p1965
tp1966
a(g1964
g1965
Vfar
p1967
tp1968
a(Vamerican
p1969
g1686
tp1970
a(g1969
g1686
g1687
tp1971
a(Vamong
p1972
Vmany
p1973
tp1974
a(g1972
g1973
Vreasons
p1975
tp1976
a(Vamp
p1977
Vbasically
p1978
tp1979
a(g1977
g1978
Vlike
p1980
tp1981
a(Vamp
p1982
Vbooji
p1983
tp1984
a(g1982
g1983
Vpeople
p1985
tp1986
a(Vamp
p1987
Vfantabulous
p1988
tp1989
a(g1987
g1988
Vlove
p1990
tp1991
a(Vamp
p1992
Vflop
p1993
tp1994
a(g1992
g1993
g349
tp1995
a(Vamp
p1996
Vhes
p1997
tp1998
a(g1996
g1997
Vworst
p1999
tp2000
a(Vamp
p2001
Vhug
p2002
tp2003
a(Vamp
p2004
Vlaptop
p2005
tp2006
a(g2004
g2005
Vratchet
p2007
tp2008
a(g43
Vmainmain
p2009
tp2010
a(g43
g2009
g1149
tp2011
a(Vamp
p2012
Vpromise
p2013
tp2014
a(g2012
g2013
Vtell
p2015
tp2016
a(Vamp
p2017
Vsay
p2018
tp2019
a(g2017
g2018
Vwhatever
p2020
tp2021
a(Vamp
p2022
Vsons
p2023
tp2024
a(Vamp
p2025
Vthe
p2026
tp2027
a(g2025
g2026
Vcrazy
p2028
tp2029
a(Vamp
p2030
Vyour
p2031
tp2032
a(g2030
g2031
g1474
tp2033
a(Vampamp
p2034
Vteased
p2035
tp2036
a(g2034
g2035
g227
tp2037
a(Vand
p2038
Vawwh
p2039
tp2040
a(g2038
g2039
g1151
tp2041
a(Vand
p2042
Vread
p2043
tp2044
a(g2042
g2043
Vthis
p2045
tp2046
a(Vand
p2047
g304
tp2048
a(g2047
g304
Veyes
p2049
tp2050
a(g348
Vterrible
p2051
tp2052
a(g348
g2051
g308
tp2053
a(Vanddislike
p2054
Vlittle
p2055
tp2056
a(g2054
g2055
Vbit
p2057
tp2058
a(Vandroid
p2059
Vcalm
p2060
tp2061
a(Vang
p2062
Vlove
p2063
tp2064
a(g2062
g2063
g1937
tp2065
a(Vangel
p2066
Vlove
p2067
tp2068
a(Vanimals
p2069
g947
tp2070
a(g2069
g947
g948
tp2071
a(Vannounce
p2072
Varrival
p2073
tp2074
a(g2072
g2073
Vrex
p2075
tp2076
a(Vannoy
p2077
Vcodxpmickfxd
p2078
tp2079
a(Vannoying
p2080
Vstrongly
p2081
tp2082
a(g2080
g2081
Vdislike
p2083
tp2084
a(Vannoys
p2085
g1101
tp2086
a(g2085
g1101
g1102
tp2087
a(Vanswer
p2088
Vyet
p2089
tp2090
a(Vantiamerican
p2091
g1379
tp2092
a(g2091
g1379
g1380
tp2093
a(Vantonio
p2094
Vhaha
p2095
tp2096
a(g1423
Vlol
p2097
tp2098
a(g1423
g2097
Vomg
p2099
tp2100
a(Vanybody
p2101
g378
tp2102
a(g2101
g378
g1292
tp2103
a(Vanymore
p2104
Vdoesnt
p2105
tp2106
a(g2104
g2105
Vmean
p2107
tp2108
a(g1424
Vill
p2109
tp2110
a(g1424
g2109
Vforever
p2111
tp2112
a(Vanyone
p2113
Vdislike
p2114
tp2115
a(g2113
g2114
Vmuch
p2116
tp2117
a(Vanyone
p2118
Vdont
p2119
tp2120
a(g2118
g2119
Vlike
p2121
tp2122
a(g56
Vlol
p2123
tp2124
a(g56
g2123
g1518
tp2125
a(g1425
Vlike
p2126
tp2127
a(g1425
g2126
Vdislike
p2128
tp2129
a(Vanything
p2130
Vyet
p2131
tp2132
a(g2130
g2131
Vmike
p2133
tp2134
a(g1609
g1611
tp2135
a(g1609
g1611
Vdeeply
p2136
tp2137
a(Vapologise
p2138
Vadvance
p2139
tp2140
a(Vapp
p2141
Vgotta
p2142
tp2143
a(g2141
g2142
g381
tp2144
a(Vapparently
p2145
Varent
p2146
tp2147
a(g2145
g2146
Vcivilized
p2148
tp2149
a(Vapple
p2150
Vproducts
p2151
tp2152
a(g2150
g2151
Voperate
p2153
tp2154
a(Vaquarium
p2155
Vweirdphobia
p2156
tp2157
a(g1328
g1476
tp2158
a(g1328
g1476
Vhappy
p2159
tp2160
a(Vare
p2161
Vthe
p2162
tp2163
a(g2161
g2162
Vsweetest
p2164
tp2165
a(g2146
g2148
tp2166
a(g2146
g2148
Varent
p2167
tp2168
a(Varent
p2169
Vwavelength
p2170
tp2171
a(g2169
g2170
g2104
tp2172
a(g1426
Vdgn
p2173
tp2174
a(g1426
g2173
Vfaishal
p2175
tp2176
a(Vargue
p2177
Vwithout
p2178
tp2179
a(g2177
g2178
Vtalismanic
p2180
tp2181
a(Varguing
p2182
Vhate
p2183
tp2184
a(g2182
g2183
g1720
tp2185
a(Varmy
p2186
Vfirefighter
p2187
tp2188
a(g2186
g2187
Vcannot
p2189
tp2190
a(Varound
p2191
g1621
tp2192
a(g2191
g1621
g351
tp2193
a(g1714
Vcertain
p2194
tp2195
a(g1714
g2194
Vpeople
p2196
tp2197
a(g349
Vlike
p2198
tp2199
a(g349
g2198
g1468
tp2200
a(Varound
p2201
Vsay
p2202
tp2203
a(g2201
g2202
Vbabyy
p2204
tp2205
a(g2073
g2075
tp2206
a(g2073
g2075
Vrayne
p2207
tp2208
a(Varse
p2209
Vupnn
p2210
tp2211
a(Vashley
p2212
Vdislike
p2213
tp2214
a(g2212
g2213
Vyoulol
p2215
tp2216
a(g1902
g1904
tp2217
a(g1902
g1904
Vsubmissive
p2218
tp2219
a(g1427
Vrainy
p2220
tp2221
a(g1427
g2220
Vdayim
p2222
tp2223
a(Vasked
p2224
Vwanted
p2225
tp2226
a(g2224
g2225
Vice
p2227
tp2228
a(Vasking
p2229
Vfirst
p2230
tp2231
a(Vaskolly
p2232
Vxxxxx
p2233
tp2234
a(Vasperger
p2235
g1835
tp2236
a(g2235
g1835
g1836
tp2237
a(g203
Vgirl
p2238
tp2239
a(g203
g2238
Vgrow
p2240
tp2241
a(Vassand
p2242
Vtits
p2243
tp2244
a(g2242
g2243
Vmovies
p2245
tp2246
a(g1836
g1838
tp2247
a(Vatm
p2248
Vdislike
p2249
tp2250
a(g2248
g2249
g2059
tp2251
a(Vattention
p2252
Vreally
p2253
tp2254
a(g2252
g2253
Vhehehe
p2255
tp2256
a(Vatvespa
p2257
Vthanks
p2258
tp2259
a(g2257
g2258
g2062
tp2260
a(Vaunt
p2261
Vfran
p2262
tp2263
a(g2261
g2262
Vmiss
p2264
tp2265
a(g351
g1623
tp2266
a(g351
g1623
Vaway
p2267
tp2268
a(Vauntie
p2269
Vlove
p2270
tp2271
a(Vaunts
p2272
Vpiss
p2273
tp2274
a(g2272
g2273
Vreason
p2275
tp2276
a(Vaustin
p2277
Vsanti
p2278
tp2279
a(g2277
g2278
Vnick
p2280
tp2281
a(Vauth
p2282
Vmom
p2283
tp2284
a(g2282
g2283
Vstill
p2285
tp2286
a(Vautomatically
p2287
Vdislike
p2288
tp2289
a(g2287
g2288
Vgetyourshittogether
p2290
tp2291
a(Vaverage
p2292
Vlooking
p2293
tp2294
a(g2292
g2293
Vgingers
p2295
tp2296
a(Vaway
p2297
Vblink
p2298
tp2299
a(g2297
g2298
Veye
p2300
tp2301
a(Vaway
p2302
Vdislike
p2303
tp2304
a(Vaway
p2305
Vhead
p2306
tp2307
a(g2305
g2306
Vlawd
p2308
tp2309
a(g204
Vknow
p2310
tp2311
a(g204
g2310
g178
tp2312
a(g2267
Vlove
p2313
tp2314
a(g2267
g2313
g2261
tp2315
a(Vawesome
p2316
Vcousin
p2317
tp2318
a(g2316
g2317
Vlove
p2319
tp2320
a(g1428
Vlove
p2321
tp2322
a(Vaww
p2323
Vthanks
p2324
tp2325
a(g2323
g2324
Vsis
p2326
tp2327
a(g1429
Vdont
p2328
tp2329
a(g1429
g2328
g1452
tp2330
a(g2039
g1151
tp2331
a(g2039
g1151
g1152
tp2332
a(Vawww
p2333
Vlove
p2334
tp2335
a(g2333
g2334
Vespecially
p2336
tp2337
a(Vawwww
p2338
Vlove
p2339
tp2340
a(g2338
g2339
g638
tp2341
a(Vaya
p2342
Vknow
p2343
tp2344
a(g2342
g2343
Vsince
p2345
tp2346
a(g722
g723
Vbaby
p2347
tp2348
a(g723
g2347
Vgot
p2349
tp2350
a(Vbaby
p2351
Vbring
p2352
Vpain
p2353
tp2354
a(g725
g726
Vshame
p2355
tp2356
a(g2347
g2349
tp2357
a(g2347
g2349
g200
tp2358
a(Vbaby
p2359
Vlove
p2360
Vtext
p2361
tp2362
a(Vbaby
p2363
Vlove
p2364
Vyouc
p2365
tp2366
a(g415
g416
Vyouo
p2367
tp2368
a(Vbaby
p2369
Vlt3
p2370
tp2371
a(Vbabygirl
p2372
Vyou
p2373
tp2374
a(g2372
g2373
Vbestest
p2375
tp2376
a(Vbabyhood
p2377
Vwaaaah
p2378
tp2379
a(g2204
Vlove
p2380
tp2381
a(g177
g1589
tp2382
a(g177
g1589
g1590
tp2383
a(Vback
p2384
Vcarry
p2385
tp2386
a(g2384
g2385
Vkiss
p2387
tp2388
a(Vback
p2389
g1507
tp2390
a(g2389
g1507
Vcouple
p2391
tp2392
a(Vback
p2393
Vwantgtfoh
p2394
tp2395
a(g2393
g2394
Vfeeling
p2396
tp2397
a(g178
g180
tp2398
a(g178
g180
g792
tp2399
a(g1827
g1829
tp2400
a(g1827
g1829
Vbig
p2401
tp2402
a(Vbad
p2403
Vlife
p2404
tp2405
a(g2403
g2404
Vpicked
p2406
tp2407
a(Vbad
p2408
Vstrongly
p2409
tp2410
a(g2408
g2409
Vdislike
p2411
tp2412
a(Vbad
p2413
Vwartsandall
p2414
tp2415
a(Vbad
p2416
Vway
p2417
tp2418
a(g2416
g2417
g2138
tp2419
a(Vbae
p2420
g1887
tp2421
a(g2420
g1887
g8
tp2422
a(Vbaee
p2423
Vhacking
p2424
tp2425
a(g2423
g2424
Vlove
p2426
tp2427
a(Vbag
p2428
Vdreamsgood
p2429
tp2430
a(g2428
g2429
Vnight
p2431
tp2432
a(Vbalanced
p2433
Vreporting
p2434
tp2435
a(g2433
g2434
Vbut
p2436
tp2437
a(Vball
p2438
Vlike
p2439
tp2440
a(g2438
g2439
g1547
tp2441
a(Vballs
p2442
g141
tp2443
a(Vbarbie
p2444
Vmovies60e9
p2445
tp2446
a(Vbarely
p2447
Vwear
p2448
tp2449
a(g2447
g2448
Vshorts
p2450
tp2451
a(Vbargnani
p2452
Vcondone
p2453
tp2454
a(g2452
g2453
Vbooing
p2455
tp2456
a(Vbartlett
p2457
Vlove
p2458
tp2459
a(g2457
g2458
g377
tp2460
a(g1978
g1980
tp2461
a(g1978
g1980
Vdislike
p2462
tp2463
a(Vbeautiful
p2464
Vpictures
p2465
tp2466
a(g2464
g2465
Vlooks
p2467
tp2468
a(g616
g1526
tp2469
a(g616
g1526
g495
tp2470
a(Vbecause
p2471
Vlove
p2472
tp2473
a(Vbecauseofyou
p2474
g642
tp2475
a(g2474
g642
Vlove
p2476
tp2477
a(g1430
g1987
tp2478
a(g1430
g1987
g1988
tp2479
a(Vbed
p2480
Vsoon
p2481
tp2482
a(g2480
g2481
Vlove
p2483
tp2484
a(Vbeeep
p2485
Vlove
p2486
tp2487
a(g2485
g2486
Veastside
p2488
tp2489
a(Vbeforeidieiwanna
p2490
Vpunch
p2491
tp2492
a(g2490
g2491
Veveryone
p2493
tp2494
a(Vbeginning
p2495
Vreally
p2496
tp2497
a(g2495
g2496
Vdislike
p2498
tp2499
a(Vbeliebers
p2500
g298
tp2501
a(g2500
g298
Vlove
p2502
tp2503
a(Vbelieve
p2504
Vclick
p2505
tp2506
a(Vbelieve
p2507
Vlove
p2508
tp2509
a(g2507
g2508
Vfirst
p2510
tp2511
a(g352
Vpeople
p2512
tp2513
a(g352
g2512
Vreally
p2514
tp2515
a(Vbelieve
p2516
Vsaid
p2517
tp2518
a(g2516
g2517
Vlove
p2519
tp2520
a(Vbell
p2521
Vstarbucks
p2522
tp2523
a(Vbesides
p2524
Vfans
p2525
tp2526
a(g2524
g2525
g1464
tp2527
a(Vbest
p2528
Vgive
p2529
tp2530
a(g2528
g2529
Vbest
p2531
tp2532
a(g1907
g1909
tp2533
a(g2531
Vthings
p2534
tp2535
a(g1431
g1535
tp2536
a(g1431
g1535
Vwhatever
p2537
tp2538
a(Vbet
p2539
Vsomeone
p2540
tp2541
a(g2539
g2540
Vpopped
p2542
tp2543
a(Vbetter
p2544
Vcome
p2545
tp2546
a(g2544
g2545
Vtan
p2547
tp2548
a(Vbetter
p2549
Veverybody
p2550
tp2551
a(Vbetter
p2552
g292
tp2553
a(g2552
g292
Velse
p2554
tp2555
a(Vbetter
p2556
g1467
tp2557
a(g165
Voff
p2558
tp2559
a(g165
g2558
g392
tp2560
a(Vbetter
p2561
Vperson
p2562
tp2563
a(g2561
g2562
Vlove
p2564
tp2565
a(g1432
Vbored
p2566
tp2567
a(g1432
g2566
g2004
tp2568
a(g1585
g1587
tp2569
a(Vbieber
p2570
Vlong
p2571
tp2572
a(g2570
g2571
Vyou
p2573
tp2574
a(Vbig
p2575
Vbooty
p2576
tp2577
a(g2575
g2576
Vbitches
p2578
tp2579
a(Vbig
p2580
Vcities
p2581
tp2582
a(g2580
g2581
Vsunsettoowowlook
p2583
tp2584
a(g2401
Vdawg
p2585
tp2586
a(g2401
g2585
Vlol
p2587
tp2588
a(Vbig
p2589
Vsean
p2590
tp2591
a(g2589
g2590
Vcover
p2592
tp2593
a(Vbiggest
p2594
g1459
tp2595
a(g2594
g1459
Vfollow
p2596
tp2597
a(Vbiggest
p2598
Vhearts
p2599
tp2600
a(g2598
g2599
Vworld
p2601
tp2602
a(Vbikini
p2603
Vbirthday
p2604
tp2605
a(g2603
g2604
Vlove
p2606
tp2607
a(Vbion
p2608
Vdislike
p2609
tp2610
a(g2608
g2609
Vuname
p2611
tp2612
a(g1433
Vbird
p2613
tp2614
a(g1433
g2613
g358
tp2615
a(g2613
g358
tp2616
a(g2613
g358
Vlove
p2617
tp2618
a(Vbirds
p2619
Vthat
p2620
tp2621
a(g2619
g2620
Vnigga
p2622
tp2623
a(g2604
g2606
tp2624
a(Vbirthday
p2625
Vtweet
p2626
tp2627
a(Vbirthday
p2628
Vwish
p2629
tp2630
a(g2628
g2629
Vsaid
p2631
tp2632
a(Vbit
p2633
Vkarma
p2634
tp2635
a(g1846
g1125
tp2636
a(g1846
g1125
g1126
tp2637
a(g2057
Vright
p2638
tp2639
a(Vbitch
p2640
Vdislike
p2641
tp2642
a(Vbitch
p2643
Veven
p2644
tp2645
a(g2643
g2644
Vlol
p2646
tp2647
a(Vbitch
p2648
Vplease
p2649
tp2650
a(g2648
g2649
g39
tp2651
a(Vbitches
p2652
Vcall
p2653
tp2654
a(g2652
g2653
Vlong
p2655
tp2656
a(g771
g772
Vdislike
p2657
tp2658
a(Vbitches
p2659
Vman
p2660
tp2661
a(Vbitching
p2662
Vcold
p2663
tp2664
a(g2662
g2663
Vbitching
p2665
tp2666
a(g617
Vsnow
p2667
tp2668
a(g617
g2667
g2662
tp2669
a(g2665
Vsweating
p2670
tp2671
a(g2665
g2670
Vlove
p2672
tp2673
a(Vbitty
p2674
g203
tp2675
a(g2674
g203
g2238
tp2676
a(Vblah
p2677
Vdislike
p2678
tp2679
a(Vbless
p2680
Vlt3
p2681
tp2682
a(Vblessed
p2683
Vjob
p2684
tp2685
a(g2683
g2684
g690
tp2686
a(g1434
g1853
tp2687
a(g1434
g1853
g1854
tp2688
a(g1854
g1856
tp2689
a(g1854
g1856
Vstudying
p2690
tp2691
a(g2298
g2300
tp2692
a(g2298
g2300
Vhelp
p2693
tp2694
a(Vblocked
p2695
Vlol
p2696
tp2697
a(g2695
g2696
Vstill
p2698
tp2699
a(Vblog
p2700
Vlink
p2701
tp2702
a(g2700
g2701
Vone
p2703
tp2704
a(Vblown
p2705
Vnot
p2706
tp2707
a(g2705
g2706
g673
tp2708
a(Vbody
p2709
g623
tp2710
a(g2709
g623
Vsandwich
p2711
tp2712
a(Vboiag
p2713
Vyea
p2714
tp2715
a(g2713
g2714
Vlove
p2716
tp2717
a(Vbombed
p2718
g1531
tp2719
a(g2718
g1531
Vsike
p2720
tp2721
a(Vbones
p2722
Vseason6
p2723
tp2724
a(Vboo
p2725
Vill
p2726
tp2727
a(g2725
g2726
Vtake
p2728
tp2729
a(Vbooboo
p2730
g1996
tp2731
a(g2730
g1996
g1997
tp2732
a(g2455
Vhes
p2733
tp2734
a(g2455
g2733
Vteam
p2735
tp2736
a(g1983
g1985
tp2737
a(Vbook
p2738
Vdont
p2739
tp2740
a(g2738
g2739
g1541
tp2741
a(g1435
Vinstagram
p2742
tp2743
a(Vbookers
p2744
g192
tp2745
a(g2744
g192
Vturned
p2746
tp2747
a(Vbooks
p2748
g1447
tp2749
a(g2748
g1447
Vdonations
p2750
tp2751
a(g2576
g2578
tp2752
a(g2566
g2004
tp2753
a(g2566
g2004
g2005
tp2754
a(Vboredddddddd
p2755
Vdont
p2756
tp2757
a(g2755
g2756
Vfollow
p2758
tp2759
a(Vboring
p2760
Vhitting
p2761
tp2762
a(g2760
g2761
g2480
tp2763
a(Vborn
p2764
g1584
tp2765
a(g2764
g1584
g1585
tp2766
a(Vbother
p2767
g385
tp2768
a(g2767
g385
g1348
tp2769
a(Vbottom
p2770
Vheart
p2771
tp2772
a(Vbout
p2773
Vbut
p2774
tp2775
a(g2773
g2774
Vdont
p2776
tp2777
a(Vbouttime
p2778
Vspringtraining
p2779
tp2780
a(Vboy
p2781
Vcutt
p2782
tp2783
a(g2781
g2782
g191
tp2784
a(g1841
g1843
tp2785
a(g1841
g1843
Vprinciples
p2786
tp2787
a(Vboyfriend
p2788
Vlt3
p2789
tp2790
a(Vboys
p2791
g2277
tp2792
a(g2791
g2277
g2278
tp2793
a(Vbrazil
p2794
Vyou
p2795
tp2796
a(g2794
g2795
Vreason
p2797
tp2798
a(Vbrettney
p2799
Vout
p2800
tp2801
a(g2799
g2800
Veat
p2802
tp2803
a(Vbright
p2804
g310
tp2805
a(g2804
g310
g363
tp2806
a(Vbring
p2807
Vdrugs
p2808
tp2809
a(g2807
g2808
g2351
tp2810
a(g356
Vlove
p2811
tp2812
a(g356
g2811
g725
tp2813
a(g2352
g2353
tp2814
a(g726
g2355
tp2815
a(g726
g2355
g2807
tp2816
a(Vbrooks
p2817
g1210
tp2818
a(g2817
g1210
g1211
tp2819
a(Vbrotherinlaw
p2820
Vhes
p2821
tp2822
a(g2820
g2821
Vfucken
p2823
tp2824
a(Vbrothers
p2825
Vjust
p2826
tp2827
a(g2825
g2826
Vtake
p2828
tp2829
a(g1062
Vmuch
p2830
tp2831
a(g1062
g2830
Vthey
p2832
tp2833
a(Vbtw
p2834
Vwanna
p2835
tp2836
a(g2834
g2835
Vsay
p2837
tp2838
a(Vbubby
p2839
Veyes
p2840
tp2841
a(g2839
g2840
Vglued
p2842
tp2843
a(Vbubu
p2844
Vdrake
p2845
tp2846
a(g2844
g2845
g2730
tp2847
a(Vbullshit
p2848
Vwont
p2849
tp2850
a(g2848
g2849
Vthink
p2851
tp2852
a(Vbump
p2853
Vmiddle
p2854
tp2855
a(g2853
g2854
Vforehead
p2856
tp2857
a(g1438
g1416
tp2858
a(g1438
g1416
g1555
tp2859
a(g1803
Vloveme
p2860
tp2861
a(g1803
g2860
Vstop
p2862
tp2863
a(Vburning
p2864
Vpassion
p2865
tp2866
a(Vbusiness
p2867
Vits
p2868
tp2869
a(g2867
g2868
Vfree
p2870
tp2871
a(Vbussup
p2872
Vgot
p2873
tp2874
a(g2872
g2873
Vsnacks
p2875
tp2876
a(Vbusy
p2877
Vsmoking
p2878
tp2879
a(g2877
g2878
g570
tp2880
a(g180
g792
g852
tp2881
a(g2436
Vdislike
p2882
Vultra
p2883
tp2884
a(g2774
g2776
tp2885
a(g2774
g2776
Vlove
p2886
tp2887
a(Vbut
p2888
Vjust
p2889
tp2890
a(g2888
g2889
Vlove
p2891
tp2892
a(Vbut
p2893
Vlove
p2894
tp2895
a(g2893
g2894
Veminem
p2896
tp2897
a(Vbut
p2898
Vnever
p2899
tp2900
a(g2898
g2899
Vsaid
p2901
tp2902
a(Vbutt
p2903
Vsomeone
p2904
tp2905
a(g2903
g2904
Vsend
p2906
tp2907
a(Vbye
p2908
Vjason
p2909
tp2910
a(Vcake
p2911
Vco60u2v8740r
p2912
tp2913
a(g618
Vback
p2914
tp2915
a(g2653
g2655
tp2916
a(g2653
g2655
Vbitches
p2917
tp2918
a(Vcall
p2919
Vnames
p2920
tp2921
a(g2919
g2920
Vdislike
p2922
tp2923
a(Vcalled
p2924
g2235
tp2925
a(g2924
g2235
g1835
tp2926
a(g1440
Vcancer
p2927
tp2928
a(g1440
g2927
g1538
tp2929
a(g1441
g360
tp2930
a(g1441
g360
Vforget
p2931
tp2932
a(Vcame
p2933
Vright
p2934
tp2935
a(g2933
g2934
Vcollege
p2936
tp2937
a(Vcampus
p2938
Vlost
p2939
tp2940
a(g1606
g1613
tp2941
a(g1606
g1613
g1614
tp2942
a(g2927
g1538
tp2943
a(g2927
g1538
g633
tp2944
a(Vcandy1min
p2945
g1801
tp2946
a(g2945
g1801
g1802
tp2947
a(Vcandycrush
p2948
Vshebeatlevel33
p2949
tp2950
a(g2189
g1690
tp2951
a(g2189
g1690
g1691
tp2952
a(Vcant
p2953
Vdecide
p2954
tp2955
a(g2953
g2954
Vlike
p2956
tp2957
a(Vcant
p2958
Vimagine
p2959
tp2960
a(g2958
g2959
Vgoing
p2961
tp2962
a(Vcant
p2963
g41
tp2964
a(g2963
g41
Vmilton
p2965
tp2966
a(g166
Vresist
p2967
tp2968
a(g166
g2967
g626
tp2969
a(g1797
g1799
Vhouse
p2970
tp2971
a(g794
g667
g660
tp2972
a(Vcant
p2973
Vtell
p2974
tp2975
a(g2973
g2974
Vdont
p2976
tp2977
a(Vcant
p2978
Vwait
p2979
tp2980
a(g2978
g2979
Vdislike
p2981
tp2982
a(Vcaptain
p2983
Vstruggle
p2984
tp2985
a(g2983
g2984
Vwoodenspoon
p2986
tp2987
a(Vcar
p2988
Vmakes
p2989
tp2990
a(g2988
g2989
Vtrip
p2991
tp2992
a(Vcare
p2993
Valright
p2994
tp2995
a(g290
Vbuttons
p2996
tp2997
a(Vcare
p2998
Vgot
p2999
tp3000
a(g2998
g2999
g2500
tp3001
a(Vcare
p3002
Vlove
p3003
tp3004
a(g3002
g3003
Vyoure
p3005
tp3006
a(Vcare
p3007
Vwhos
p3008
tp3009
a(g3007
g3008
Vlooking
p3010
tp3011
a(g1442
g215
tp3012
a(g1442
g215
Vgot
p3013
tp3014
a(Vcareer
p3015
Vthing
p3016
tp3017
a(Vcarly
p3018
Vfollowed
p3019
tp3020
a(g3018
g3019
g1579
tp3021
a(g357
Vlove
p3022
tp3023
a(g357
g3022
Vmuch
p3024
tp3025
a(Vcarlyfollowme
p3026
Vhey
p3027
tp3028
a(g3026
g3027
g357
tp3029
a(g2385
g2387
tp3030
a(g2385
g2387
Vgoodbye
p3031
tp3032
a(Vcatch
p3033
Vsomething
p3034
tp3035
a(g3033
g3034
Vmight
p3036
tp3037
a(Vcatcher
p3038
Vrye
p3039
tp3040
a(g3038
g3039
Vgreat
p3041
tp3042
a(Vcaught
p3043
Vpun
p3044
tp3045
a(g181
g2877
tp3046
a(g181
g2877
g2878
tp3047
a(Vcause
p3048
Vdouble
p3049
tp3050
a(Vcause
p3051
Vhes
p3052
tp3053
a(g3051
g3052
Vcool
p3054
tp3055
a(Vcause
p3056
Vimma
p3057
tp3058
a(g3056
g3057
Vcry
p3059
tp3060
a(Vcause
p3061
Vknow
p3062
tp3063
a(g3061
g3062
Vnever
p3064
tp3065
a(Vcause
p3066
Vlove
p3067
tp3068
a(g3066
g3067
Vhair
p3069
tp3070
a(Vcause
p3071
g654
tp3072
a(g3071
g654
g1940
tp3073
a(Vcelebrate
p3074
g1520
tp3075
a(g3074
g1520
Vget
p3076
tp3077
a(g1829
g2401
tp3078
a(g1829
g2401
g2585
tp3079
a(Vchance
p3080
g1407
tp3081
a(g3080
g1407
g613
tp3082
a(Vchange
p3083
Vicon
p3084
tp3085
a(g3083
g3084
Vfelling
p3086
tp3087
a(g1443
Vupdates
p3088
tp3089
a(g1443
g3088
Vphone
p3090
tp3091
a(Vcharacter
p3092
Vswear
p3093
tp3094
a(g3092
g3093
Vlove
p3095
tp3096
a(Vcheck
p3097
Vone
p3098
tp3099
a(g3097
g3098
Vknow
p3100
tp3101
a(g1444
Vtweet
p3102
tp3103
a(g1444
g3102
Vsaying
p3104
tp3105
a(Vchelsstw
p3106
Vmattsukulele
p3107
tp3108
a(g3106
g3107
Vyoull
p3109
tp3110
a(Vcher
p3111
Vqueen
p3112
tp3113
a(g3111
g3112
g1128
tp3114
a(Vchest
p3115
g2384
tp3116
a(g3115
g2384
g2385
tp3117
a(Vchew
p3118
Vlike
p3119
tp3120
a(g3118
g3119
Vreta
p3121
tp3122
a(Vchild
p3123
Vmisbehaved
p3124
tp3125
a(g3123
g3124
Vhahaha
p3126
tp3127
a(Vchose
p3128
Vdislike
p3129
tp3130
a(g3128
g3129
Vhuman
p3131
tp3132
a(Vchristian
p3133
g2145
tp3134
a(g3133
g2145
g2146
tp3135
a(Vchristine13
p3136
Vtop
p3137
tp3138
a(g3136
g3137
g1454
tp3139
a(Vchuckii
p3140
g2744
tp3141
a(g3140
g2744
g192
tp3142
a(g2581
g2583
tp3143
a(g2581
g2583
Vcoijixghn9mm
p3144
tp3145
a(g2148
g2167
tp3146
a(Vclassroom
p3147
Vknow
p3148
tp3149
a(g3147
g3148
Vfailed
p3150
tp3151
a(g1445
Vdont
p3152
tp3153
a(g1445
g3152
g2507
tp3154
a(Vclubs
p3155
g3071
tp3156
a(g3155
g3071
g654
tp3157
a(Vcoach
p3158
Vwells
p3159
tp3160
a(Vcocky
p3161
Vpeople
p3162
tp3163
a(Vcojxmfrviyrv
p3164
Vlol
p3165
tp3166
a(g2663
g2665
tp3167
a(g2663
g2665
g2670
tp3168
a(g1446
Vweather
p3169
tp3170
a(g1446
g3169
Vits
p3171
tp3172
a(Vcollaborate
p3173
Vlisten
p3174
tp3175
a(Vcome
p3176
g1878
tp3177
a(g3176
g1878
g1879
tp3178
a(Vcome
p3179
g2794
tp3180
a(g3179
g2794
g2795
tp3181
a(Vcome
p3182
Vshow
p3183
tp3184
a(g2545
g2547
tp3185
a(g2545
g2547
Vill
p3186
tp3187
a(g167
Vthink
p3188
tp3189
a(g167
g3188
g175
tp3190
a(Vcome
p3191
Vtrue
p3192
tp3193
a(g3191
g3192
Vlove
p3194
tp3195
a(Vcomfort
p3196
Vappreciate
p3197
tp3198
a(g1447
g2750
tp3199
a(g1447
g2750
Vlove
p3200
tp3201
a(Vcoming
p3202
Vhome
p3203
tp3204
a(g1448
g3147
tp3205
a(g1448
g3147
g3148
tp3206
a(Vcompared
p3207
g1536
tp3208
a(g3207
g1536
Vlt3
p3209
tp3210
a(g1449
Vniggas
p3211
tp3212
a(g1449
g3211
g3182
tp3213
a(Vconcert
p3214
Vright
p3215
tp3216
a(g3214
g3215
Vdamn
p3217
tp3218
a(g2453
g2455
tp3219
a(g2453
g2455
g2733
tp3220
a(g1577
g1603
tp3221
a(g1577
g1603
g1604
tp3222
a(Vconsider
p3223
Vself
p3224
tp3225
a(g3223
g3224
Vpucka
p3226
tp3227
a(Vcontrol
p3228
Vher
p3229
tp3230
a(g3228
g3229
Vmessy
p3231
tp3232
a(g1450
Vlove
p3233
tp3234
a(g1450
g3233
Vconverse
p3235
tp3236
a(g3235
Vseveral
p3237
tp3238
a(g3235
g3237
Vpair
p3239
tp3240
a(g1451
g223
tp3241
a(g1451
g223
Vinfo
p3242
tp3243
a(Vcos
p3244
Vfell
p3245
tp3246
a(g3244
g3245
Vlove
p3247
tp3248
a(g345
g2725
tp3249
a(g345
g2725
g2726
tp3250
a(Vcould
p3251
Vfriendsi
p3252
tp3253
a(g3251
g3252
Vrealllllllyyyyy
p3254
tp3255
a(Vcould
p3256
g366
tp3257
a(Vcould
p3258
Vlol
p3259
tp3260
a(g3258
g3259
Vwell
p3261
tp3262
a(Vcould
p3263
Vmean
p3264
tp3265
a(g3263
g3264
Vreally
p3266
tp3267
a(Vcould
p3268
Vsee
p3269
tp3270
a(g3268
g3269
Voneday
p3271
tp3272
a(Vcould
p3273
Vtake
p3274
tp3275
a(g3273
g3274
Vpeople
p3276
tp3277
a(Vcould
p3278
Vtomorrow
p3279
tp3280
a(g3278
g3279
Vlove
p3281
tp3282
a(Vcould
p3283
g395
tp3284
a(g3283
g395
Vnot
p3285
tp3286
a(Vcouldnt
p3287
Vmake
p3288
tp3289
a(g3287
g3288
Vlot
p3290
tp3291
a(Vcountry
p3292
Vbitch
p3293
tp3294
a(Vcountry
p3295
Vdislike
p3296
tp3297
a(g3295
g3296
g1434
tp3298
a(Vcouple
p3299
Vfollowers
p3300
tp3301
a(g3299
g3300
g348
tp3302
a(g619
g674
tp3303
a(g619
g674
Vlook
p3304
tp3305
a(g2391
Vyears
p3306
tp3307
a(g2391
g3306
g1814
tp3308
a(Vcourse
p3309
Vposted
p3310
tp3311
a(g3309
g3310
Vrecipe
p3312
tp3313
a(Vcourtesy
p3314
Vniggaz
p3315
tp3316
a(g3314
g3315
Vlol
p3317
tp3318
a(g2317
g2319
tp3319
a(g2317
g2319
g1771
tp3320
a(g2592
Vthe
p3321
tp3322
a(g1769
Vtht
p3323
tp3324
a(Vcraving
p3325
g154
tp3326
a(Vcrawl
p3327
Vdog
p3328
tp3329
a(g3327
g3328
g1458
tp3330
a(g2028
Vthing
p3331
tp3332
a(g2028
g3331
g1655
tp3333
a(Vcream
p3334
Veven
p3335
tp3336
a(g3334
g3335
Vthough
p3337
tp3338
a(g1039
g1494
tp3339
a(g1039
g1494
Vmay
p3340
tp3341
a(Vcringe
p3342
Vyuck
p3343
tp3344
a(Vcritical
p3345
g7
tp3346
a(g3345
g7
g1546
tp3347
a(Vcross
p3348
Vthat
p3349
tp3350
a(g3348
g3349
g1972
tp3351
a(g1452
g3056
tp3352
a(g1452
g3056
g3057
tp3353
a(g3059
g1327
tp3354
a(g3059
g1327
g1328
tp3355
a(Vcrying
p3356
g156
tp3357
a(g3356
g156
g1145
tp3358
a(Vcuban
p3359
Vlistening
p3360
tp3361
a(g3359
g3360
Vright
p3362
tp3363
a(g1453
Vwhats
p3364
tp3365
a(g1453
g3364
Vcucu
p3366
tp3367
a(g3366
Vyou
p3368
tp3369
a(g3366
g3368
g2556
tp3370
a(Vcurrently
p3371
Vdislike
p3372
tp3373
a(g3371
g3372
g3325
tp3374
a(g1653
Vdrive
p3375
tp3376
a(Vcute
p3377
Vguys
p3378
tp3379
a(g3377
g3378
Vtime
p3380
tp3381
a(g358
g2617
tp3382
a(g358
g2617
Vthenotebook
p3383
tp3384
a(g1454
Vfreshman
p3385
tp3386
a(g1454
g3385
g2791
tp3387
a(Vcutie
p3388
Vlove
p3389
tp3390
a(g3388
g3389
Vtalks
p3391
tp3392
a(g2782
g191
tp3393
a(g2782
g191
Vholy
p3394
tp3395
a(Vcuz
p3396
Vdislike
p3397
tp3398
a(g3396
g3397
Vfakes
p3399
tp3400
a(g1455
Vwahhh
p3401
tp3402
a(Vdabiebahcrew
p3403
Vlikedislike
p3404
tp3405
a(g3403
g3404
g1673
tp3406
a(Vdaddy
p3407
Vthats
p3408
tp3409
a(g3407
g3408
Vdont
p3410
tp3411
a(Vdadwhen
p3412
Vhogwarts
p3413
tp3414
a(Vdagain
p3415
g2428
tp3416
a(g3415
g2428
g2429
tp3417
a(Vdamage
p3418
g361
tp3419
a(g359
g3314
tp3420
a(g359
g3314
g3315
tp3421
a(g3217
Vjealous
p3422
tp3423
a(g3217
g3422
Vpriorities
p3424
tp3425
a(g1861
Vmuch
p3426
tp3427
a(Vdariel
p3428
Vmuch
p3429
tp3430
a(g3428
g3429
Vfag
p3431
tp3432
a(Vdave
p3433
Vthats
p3434
tp3435
a(g3433
g3434
g1457
tp3436
a(g2585
g2587
tp3437
a(Vday
p3438
g2958
tp3439
a(g3438
g2958
g2959
tp3440
a(g168
Veveryday
p3441
tp3442
a(g1205
Vgod
p3443
tp3444
a(g1205
g3443
Vgone
p3445
tp3446
a(Vday
p3447
Vhahahaha
p3448
tp3449
a(g3447
g3448
Vcorokpy8f4k4
p3450
tp3451
a(Vday
p3452
Vstop
p3453
tp3454
a(g3452
g3453
Vwont
p3455
tp3456
a(g2222
Vtrynna
p3457
tp3458
a(g2222
g3457
Vnice
p3459
tp3460
a(Vdays
p3461
g1819
tp3462
a(g3461
g1819
g1820
tp3463
a(Vdays
p3464
Vhappy
p3465
tp3466
a(g3464
g3465
Vlove
p3467
tp3468
a(Vdays
p3469
Vreally
p3470
tp3471
a(g3469
g3470
g449
tp3472
a(g1780
g1782
tp3473
a(g1780
g1782
Vfish
p3474
tp3475
a(Vdeathly
p3476
g1779
tp3477
a(g3476
g1779
g1780
tp3478
a(g1456
g649
tp3479
a(Vdecent
p3480
Vokay
p3481
tp3482
a(g3480
g3481
Vwtf
p3483
tp3484
a(g2954
g2956
tp3485
a(g2954
g2956
Vdislike
p3486
tp3487
a(Vdeejay
p3488
g293
tp3489
a(g3488
g293
g401
tp3490
a(Vdeelena
p3491
Vevery
p3492
tp3493
a(g3491
g3492
Vinch
p3494
tp3495
a(Vdeep
p3496
Vinside
p3497
tp3498
a(g3496
g3497
Vgirls
p3499
tp3500
a(g2136
Vlove
p3501
tp3502
a(g2136
g3501
Votheri
p3503
tp3504
a(Vdef
p3505
Vdislike
p3506
tp3507
a(g3505
g3506
Vlot
p3508
tp3509
a(Vdegrees
p3510
Vblech
p3511
tp3512
a(Vdelete
p3513
Vsongs
p3514
tp3515
a(g3513
g3514
g1831
tp3516
a(g1698
g1701
tp3517
a(Vdeon
p3518
Vfuck
p3519
tp3520
a(g3518
g3519
g3051
tp3521
a(Vdeshaye
p3522
g1858
tp3523
a(g3522
g1858
g1859
tp3524
a(g2173
g2175
tp3525
a(g2173
g2175
Vpsl
p3526
tp3527
a(Vdiamond
p3528
Vupset
p3529
tp3530
a(g3528
g3529
Vpissed
p3531
tp3532
a(Vdid
p3533
Vwant
p3534
tp3535
a(g3533
g3534
Vtell
p3536
tp3537
a(g207
g2438
tp3538
a(g207
g2438
g2439
tp3539
a(Vdidnt
p3540
g618
tp3541
a(g3540
g618
g2914
tp3542
a(g1810
g1812
tp3543
a(g1810
g1812
Vipod
p3544
tp3545
a(Vdidnt
p3546
Vknow
p3547
tp3548
a(g3546
g3547
g1417
tp3549
a(Vdidnt
p3550
Vlike
p3551
tp3552
a(g3550
g3551
Vthen
p3553
tp3554
a(Vdidnt
p3555
Vmarry
p3556
tp3557
a(g3555
g3556
Vzayn
p3558
tp3559
a(Vdied
p3560
Vmom
p3561
tp3562
a(Vdifference
p3563
g2709
tp3564
a(g3563
g2709
g623
tp3565
a(g1457
Vlove
p3566
tp3567
a(g1457
g3566
Vgood
p3568
tp3569
a(g1712
g1714
tp3570
a(g1712
g1714
g2194
tp3571
a(g621
Vguess
p3572
tp3573
a(g621
g3572
Valien
p3574
tp3575
a(Vdifferent
p3576
Vlane
p3577
tp3578
a(Vdimple
p3579
g3164
tp3580
a(g3579
g3164
g3165
tp3581
a(g880
Vcotitdpj6ptl
p3582
tp3583
a(g622
Vdont
p3584
tp3585
a(g622
g3584
Veven
p3586
tp3587
a(g1904
g2218
tp3588
a(Vdirectioners
p3589
Vman
p3590
tp3591
a(g3589
g3590
Vthey
p3592
tp3593
a(Vdirty
p3594
Vlook
p3595
tp3596
a(g3594
g3595
g1495
tp3597
a(g1823
g1825
tp3598
a(g1823
g1825
Vsweet
p3599
tp3600
a(Vdisgusting
p3601
Vdislike
p3602
tp3603
a(Vdislike
p3604
g612
tp3605
a(g3604
g612
g1665
tp3606
a(g1687
g1683
tp3607
a(g1687
g1683
g1684
tp3608
a(g2128
g1703
g1704
tp3609
a(g886
g1725
tp3610
a(g886
g1725
g1726
tp3611
a(Vdislike
p3612
Vactivity
p3613
tp3614
a(Vdislike
p3615
g1822
tp3616
a(g3615
g1822
g1823
tp3617
a(g2249
g2059
tp3618
a(g2249
g2059
g2060
tp3619
a(Vdislike
p3620
g56
tp3621
a(g3620
g56
g2123
tp3622
a(Vdislike
p3623
g2141
tp3624
a(g3623
g2141
g2142
tp3625
a(Vdislike
p3626
g2182
tp3627
a(g3626
g2182
g2183
tp3628
a(Vdislike
p3629
g2272
tp3630
a(g3629
g2272
g2273
tp3631
a(Vdislike
p3632
Vbangs
p3633
tp3634
a(Vdislike
p3635
g2452
tp3636
a(g3635
g2452
g2453
tp3637
a(Vdislike
p3638
g1431
tp3639
a(g3638
g1431
g1535
tp3640
a(g600
g2580
tp3641
a(g600
g2580
g2581
tp3642
a(Vdislike
p3643
g2643
tp3644
a(g3643
g2643
g2644
tp3645
a(Vdislike
p3646
g2659
tp3647
a(g3646
g2659
g2660
tp3648
a(g3296
g1434
tp3649
a(g3296
g1434
g1853
tp3650
a(g2083
g2722
tp3651
a(g2083
g2722
g2723
tp3652
a(Vdislike
p3653
g1437
tp3654
a(Vdislike
p3655
g2853
tp3656
a(g3655
g2853
g2854
tp3657
a(Vdislike
p3658
g2911
tp3659
a(g3658
g2911
g2912
tp3660
a(Vdislike
p3661
g808
tp3662
a(g3661
g808
g809
tp3663
a(Vdislike
p3664
Vchemhahaha
p3665
tp3666
a(g1962
Vco7ufhvmlhgb
p3667
tp3668
a(Vdislike
p3669
g3158
tp3670
a(g3669
g3158
g3159
tp3671
a(Vdislike
p3672
Vcobalt
p3673
tp3674
a(Vdislike
p3675
g3161
tp3676
a(g3675
g3161
g3162
tp3677
a(Vdislike
p3678
g3202
tp3679
a(g3678
g3202
g3203
tp3680
a(Vdislike
p3681
g3299
tp3682
a(g3681
g3299
g3300
tp3683
a(g3372
g3325
tp3684
a(g3372
g3325
g154
tp3685
a(g9
Vdad
p3686
tp3687
a(Vdislike
p3688
g3407
tp3689
a(g3688
g3407
g3408
tp3690
a(Vdislike
p3691
g3428
tp3692
a(g3691
g3428
g3429
tp3693
a(Vdislike
p3694
g3528
tp3695
a(g3694
g3528
g3529
tp3696
a(Vdislike
p3697
g3589
tp3698
a(g3697
g3589
g3590
tp3699
a(Vdislike
p3700
Vdont
p3701
Vget
p3702
tp3703
a(g440
g441
g474
tp3704
a(Vdislike
p3705
Vdont
p3706
Vtalk
p3707
tp3708
a(Vdislike
p3709
Vepisode
p3710
tp3711
a(g3709
g3710
Vsoooo
p3712
tp3713
a(Vdislike
p3714
Veven
p3715
tp3716
a(g839
g840
g306
tp3717
a(Vdislike
p3718
Veyebrow
p3719
tp3720
a(g3718
g3719
Vpiercings
p3721
tp3722
a(Vdislike
p3723
Vface
p3724
tp3725
a(g842
g843
Vfit
p3726
tp3727
a(Vdislike
p3728
Vfact
p3729
Vimplemented
p3730
tp3731
a(g3397
g3399
tp3732
a(g3397
g3399
Vpeople
p3733
tp3734
a(Vdislike
p3735
Vfamily
p3736
Vright
p3737
tp3738
a(g443
g170
g384
tp3739
a(Vdislike
p3740
g1465
tp3741
a(g3740
g1465
Vghetto
p3742
tp3743
a(Vdislike
p3744
Vfeeling
p3745
tp3746
a(Vdislike
p3747
Vflag
p3748
tp3749
a(g3747
g3748
Vspam
p3750
tp3751
a(Vdislike
p3752
Vfrench
p3753
tp3754
a(g3752
g3753
Vmontana
p3755
tp3756
a(g1318
Vfridays
p3757
tp3758
a(Vdislike
p3759
Vfriends
p3760
tp3761
a(Vdislike
p3762
Vgame
p3763
tp3764
a(g3762
g3763
Vwait
p3765
tp3766
a(Vdislike
p3767
Vgetting
p3768
tp3769
a(g3767
g3768
g2633
tp3770
a(g2288
g2290
tp3771
a(Vdislike
p3772
Vgirlfriend
p3773
tp3774
a(Vdislike
p3775
Vgirls
p3776
tp3777
a(g3775
g3776
Vdislike
p3778
tp3779
a(Vdislike
p3780
Vhate
p3781
Vgetting
p3782
tp3783
a(Vdislike
p3784
Vhating
p3785
tp3786
a(g3784
g3785
Vtakes
p3787
tp3788
a(Vdislike
p3789
g635
tp3790
a(g3789
g635
Veli
p3791
tp3792
a(g3129
g3131
tp3793
a(g3129
g3131
Vrace
p3794
tp3795
a(Vdislike
p3796
Vhypocrit
p3797
tp3798
a(g3796
g3797
Vgurls
p3799
tp3800
a(g1164
Vignore
p3801
tp3802
a(g1164
g3801
Vguess
p3803
tp3804
a(Vdislike
p3805
Vignored
p3806
tp3807
a(g3805
g3806
g2705
tp3808
a(Vdislike
p3809
g1050
tp3810
a(g3809
g1050
g628
tp3811
a(Vdislike
p3812
Vjusttalking
p3813
tp3814
a(g3812
g3813
Vsomeone
p3815
tp3816
a(Vdislike
p3817
Vknowing
p3818
tp3819
a(g3817
g3818
Vstand
p3820
tp3821
a(Vdislike
p3822
Vlhopoff
p3823
tp3824
a(Vdislike
p3825
Vliars
p3826
tp3827
a(Vdislike
p3828
Vlife
p3829
g2948
tp3830
a(Vdislike
p3831
Vlike
p3832
tp3833
a(g3831
g3832
g1470
tp3834
a(Vdislike
p3835
Vliking
p3836
tp3837
a(g3835
g3836
Vgirl
p3838
tp3839
a(Vdislike
p3840
g1491
tp3841
a(g3840
g1491
Vmix
p3842
tp3843
a(Vdislike
p3844
Vlol
p3845
tp3846
a(g3844
g3845
Vyeah
p3847
tp3848
a(Vdislike
p3849
Vlook
p3850
tp3851
a(g3849
g3850
g2389
tp3852
a(g452
g453
Vgirl
p3853
tp3854
a(Vdislike
p3855
Vlot
p3856
Vpeople
p3857
tp3858
a(g3506
g3508
Vshit
p3859
tp3860
a(Vdislike
p3861
Vmakes
p3862
tp3863
a(g3861
g3862
Vplayers
p3864
tp3865
a(g3778
Vmales
p3866
tp3867
a(g3778
g3866
Vdislike
p3868
tp3869
a(Vdislike
p3870
Vmany
p3871
g1509
tp3872
a(Vdislike
p3873
Vmeyou
p3874
tp3875
a(g3873
g3874
Vknowlike
p3876
tp3877
a(g1104
Vmichigan
p3878
tp3879
a(g1104
g3878
Vstates
p3880
tp3881
a(g1323
Vmomma
p3882
tp3883
a(g1323
g3882
Vboyfriend
p3884
tp3885
a(Vdislike
p3886
Vmonarchs
p3887
tp3888
a(g3886
g3887
Vorganization
p3889
tp3890
a(Vdislike
p3891
Vmoran
p3892
tp3893
a(g3891
g3892
Vright
p3894
tp3895
a(Vdislike
p3896
Vmother
p3897
tp3898
a(Vdislike
p3899
Vmuch
p3900
Vlikeee
p3901
tp3902
a(g2114
g2116
Vpeople
p3903
tp3904
a(Vdislike
p3905
Vmuch
p3906
Vright
p3907
tp3908
a(Vdislike
p3909
Vmuch
p3910
Vugh
p3911
tp3912
a(Vdislike
p3913
Vmuch
p3914
Vwow
p3915
tp3916
a(Vdislike
p3917
Vmyeisha
p3918
tp3919
a(g3917
g3918
g3522
tp3920
a(g873
g158
g2820
tp3921
a(Vdislike
p3922
Vnew
p3923
g388
tp3924
a(Vdislike
p3925
Vnigga
p3926
tp3927
a(g3925
g3926
Vkiss
p3928
tp3929
a(Vdislike
p3930
Vnoah
p3931
tp3932
a(g3930
g3931
Vhate
p3933
tp3934
a(Vdislike
p3935
Vnone
p3936
tp3937
a(g3935
g3936
Vvices
p3938
tp3939
a(Vdislike
p3940
Vone
p3941
Vexbestfriends
p3942
tp3943
a(Vdislike
p3944
g1503
tp3945
a(Vdislike
p3946
Vpecola
p3947
tp3948
a(g3946
g3947
Vyoung
p3949
tp3950
a(Vdislike
p3951
Vpeople
p3952
Vgive
p3953
tp3954
a(Vdislike
p3955
Vpeople
p3956
g1483
tp3957
a(Vdislike
p3958
Vpeople
p3959
Vquestioning
p3960
tp3961
a(Vdislike
p3962
Vpeople
p3963
Vrefer
p3964
tp3965
a(g28
g29
g382
tp3966
a(Vdislike
p3967
Vpeople
p3968
Vtry
p3969
tp3970
a(Vdislike
p3971
Vpeople
p3972
Vunnecessarily
p3973
tp3974
a(Vdislike
p3975
Vpeople
p3976
g1543
tp3977
a(Vdislike
p3978
Vperfection
p3979
tp3980
a(g3978
g3979
Vmumford
p3981
tp3982
a(g897
g898
g2864
tp3983
a(g1644
Vperson
p3984
Vmuch
p3985
tp3986
a(Vdislike
p3987
Vpicture
p3988
tp3989
a(g3987
g3988
Vone
p3990
tp3991
a(g2922
Vpretend
p3992
tp3993
a(g2922
g3992
Vgive
p3994
tp3995
a(g1843
g2786
tp3996
a(g1843
g2786
Vsorry
p3997
tp3998
a(Vdislike
p3999
Vquick
p4000
tp4001
a(g3999
g4000
Vlol
p4002
tp4003
a(g1074
Vreally
p4004
tp4005
a(g1074
g4004
Vstrong
p4006
tp4007
a(Vdislike
p4008
Vreyes13
p4009
tp4010
a(g4008
g4009
g1455
tp4011
a(Vdislike
p4012
Vright
p4013
tp4014
a(Vdislike
p4015
Vservers
p4016
tp4017
a(g4015
g4016
Vthink
p4018
tp4019
a(Vdislike
p4020
Vshowing
p4021
tp4022
a(g4020
g4021
Vlegs
p4023
tp4024
a(Vdislike
p4025
Vskinship
p4026
tp4027
a(g4025
g4026
Vguys
p4028
tp4029
a(Vdislike
p4030
Vsnapchating
p4031
tp4032
a(g4030
g4031
g3377
tp4033
a(Vdislike
p4034
Vsnot
p4035
tp4036
a(g4034
g4035
Vhate
p4037
tp4038
a(Vdislike
p4039
Vsnow
p4040
tp4041
a(g4039
g4040
Vhate
p4042
tp4043
a(Vdislike
p4044
Vsocial
p4045
tp4046
a(g4044
g4045
Vclimbers
p4047
tp4048
a(Vdislike
p4049
g1289
g1290
tp4050
a(Vdislike
p4051
Vsomeone
p4052
Vpetty
p4053
tp4054
a(Vdislike
p4055
Vsomeone
p4056
Vtweet
p4057
tp4058
a(Vdislike
p4059
Vspoken
p4060
tp4061
a(g4059
g4060
g1499
tp4062
a(Vdislike
p4063
Vstarted
p4064
tp4065
a(g4063
g4064
g1436
tp4066
a(Vdislike
p4067
Vstill
p4068
tp4069
a(g4067
g4068
g1695
tp4070
a(Vdislike
p4071
g671
tp4072
a(g4071
g671
Vdudes
p4073
tp4074
a(Vdislike
p4075
Vsummer
p4076
tp4077
a(g4075
g4076
Vfinn
p4078
tp4079
a(Vdislike
p4080
Vtaco
p4081
tp4082
a(g4080
g4081
g2521
tp4083
a(Vdislike
p4084
Vtawanna
p4085
tp4086
a(g4084
g4085
Vlove
p4087
tp4088
a(Vdislike
p4089
Vtell
p4090
tp4091
a(g4089
g4090
Vperson
p4092
tp4093
a(Vdislike
p4094
Vten
p4095
tp4096
a(g4094
g4095
Vseconds
p4097
tp4098
a(g2462
Vthingstwin
p4099
tp4100
a(Vdislike
p4101
Vthink
p4102
tp4103
a(g4101
g4102
g1369
tp4104
a(Vdislike
p4105
Vthis
p4106
tp4107
a(g4105
g4106
Vthing
p4108
tp4109
a(Vdislike
p4110
g1534
tp4111
a(g4110
g1534
Vina
p4112
tp4113
a(g3486
Vtim
p4114
tp4115
a(Vdislike
p4116
Vtomatoes
p4117
tp4118
a(Vdislike
p4119
Vtrap
p4120
tp4121
a(g4119
g4120
Vmusic
p4122
tp4123
a(Vdislike
p4124
Vtrying
p4125
tp4126
a(g4124
g4125
Vget
p4127
tp4128
a(g2498
Vugh
p4129
tp4130
a(g2882
g2883
tp4131
a(g2882
g2883
Vright
p4132
tp4133
a(g2609
g2611
g3048
tp4134
a(g2981
Vvideos
p4135
tp4136
a(g2981
g4135
Vyeah
p4137
tp4138
a(g917
g918
g2150
tp4139
a(Vdislike
p4140
Vway
p4141
Voomf
p4142
tp4143
a(Vdislike
p4144
Vwearing
p4145
tp4146
a(g4144
g4145
Vpants
p4147
tp4148
a(Vdislike
p4149
Vwhoever
p4150
Vgoing
p4151
tp4152
a(g920
g679
Vwant
p4153
tp4154
a(Vdislike
p4155
Vwhole
p4156
tp4157
a(g4155
g4156
Vplayermy
p4158
tp4159
a(Vdislike
p4160
Vwomen
p4161
tp4162
a(g4160
g4161
Vwhocant
p4163
tp4164
a(Vdislike
p4165
Vwork
p4166
tp4167
a(g4165
g4166
Vsaturdays
p4168
tp4169
a(Vdislike
p4170
Vwyd
p4171
tp4172
a(g4170
g4171
Vtext
p4173
tp4174
a(g2657
Vyaw
p4175
tp4176
a(g2657
g4175
Vasses
p4177
tp4178
a(g2213
g2215
tp4179
a(Vdislike
p4180
Vyouwe
p4181
tp4182
a(g4180
g4181
g3576
tp4183
a(Vdoesnt
p4184
g2993
tp4185
a(g4184
g2993
g2994
tp4186
a(Vdoesnt
p4187
Vdrink
p4188
tp4189
a(g4187
g4188
Vgarri
p4190
tp4191
a(g360
g2931
tp4192
a(g360
g2931
Vlove
p4193
tp4194
a(g2105
g2107
tp4195
a(g2105
g2107
g4180
tp4196
a(g3328
g1458
tp4197
a(g3328
g1458
Vget
p4198
tp4199
a(g1663
Vijs
p4200
tp4201
a(Vdominique
p4202
Vstill
p4203
tp4204
a(g4202
g4203
Vlove
p4205
tp4206
a(g2750
g3200
tp4207
a(g2750
g3200
g217
tp4208
a(Vdone
p4209
g1439
tp4210
a(Vdone
p4211
Vknow
p4212
tp4213
a(g4211
g4212
g3496
tp4214
a(Vdone
p4215
Vonly
p4216
tp4217
a(g4215
g4216
Vlove
p4218
tp4219
a(g3152
g2507
tp4220
a(g3152
g2507
g2508
tp4221
a(g922
g290
g2996
tp4222
a(Vdont
p4223
g3007
g3008
tp4224
a(Vdont
p4225
g3128
tp4226
a(g4225
g3128
g3129
tp4227
a(g2328
g1452
tp4228
a(g2328
g1452
g3056
tp4229
a(Vdont
p4230
g4039
tp4231
a(g4230
g4039
g4040
tp4232
a(g3584
g3586
tp4233
a(g3584
g3586
Vfollow
p4234
tp4235
a(g2756
g2758
tp4236
a(g3701
g3702
Vlike
p4237
tp4238
a(g931
g932
Vpeople
p4239
tp4240
a(g1735
g1737
g2113
tp4241
a(Vdont
p4242
Vhate
p4243
g771
tp4244
a(g247
g27
g882
tp4245
a(g249
g250
g2767
tp4246
a(Vdont
p4247
Vknow
p4248
Vname
p4249
tp4250
a(g1723
Vknow
p4251
Vshit
p4252
tp4253
a(Vdont
p4254
Vknowmooi
p4255
tp4256
a(g4254
g4255
g1549
tp4257
a(g2119
g2121
tp4258
a(g2119
g2121
Vserious
p4259
tp4260
a(g940
g941
Vhow
p4261
tp4262
a(Vdont
p4263
Vmind
p4264
tp4265
a(g4263
g4264
Vrain
p4266
tp4267
a(g441
g474
g3620
tp4268
a(g2976
Vremember
p4269
tp4270
a(g2976
g4269
Vnight
p4271
tp4272
a(g3410
Vsay
p4273
tp4274
a(g3410
g4273
Vshit
p4275
tp4276
a(Vdont
p4277
Vsee
p4278
tp4279
a(g4277
g4278
Vpeople
p4280
tp4281
a(Vdont
p4282
Vsimple
p4283
tp4284
a(g4282
g4283
Vquestion
p4285
tp4286
a(g3706
g3707
tp4287
a(g3706
g3707
g1424
tp4288
a(g947
g948
Vpower
p4289
tp4290
a(Vdont
p4291
Vthink
p4292
Vunderstand
p4293
tp4294
a(Vdont
p4295
g104
tp4296
a(g4295
g104
g1007
tp4297
a(g2739
g1541
tp4298
a(g2739
g1541
Vpeople
p4299
tp4300
a(g7
g1546
tp4301
a(g7
g1546
g177
tp4302
a(Vdoor
p4303
g2001
tp4304
a(g4303
g2001
g2002
tp4305
a(g1458
g4198
tp4306
a(g1458
g4198
Vhouse
p4307
tp4308
a(g2845
g2730
tp4309
a(g2845
g2730
g1996
tp4310
a(Vdream
p4311
g3191
tp4312
a(g4311
g3191
g3192
tp4313
a(g1459
g2596
tp4314
a(g1459
g2596
g1393
tp4315
a(g747
g749
Vxx1
p4316
tp4317
a(Vdreams
p4318
Vlt3
p4319
Vxx7
p4320
tp4321
a(g2429
g2431
tp4322
a(g2429
g2431
Vlove
p4323
tp4324
a(g4188
g4190
tp4325
a(g4188
g4190
Vtastes
p4326
tp4327
a(Vdrop
p4328
Vimpatient
p4329
tp4330
a(g2808
g2351
tp4331
a(g2808
g2351
g2352
tp4332
a(Vdude
p4333
Vkissed
p4334
tp4335
a(g4333
g4334
Vguylmao
p4336
tp4337
a(g4073
Vstraight
p4338
tp4339
a(g4073
g4338
Vevents
p4340
tp4341
a(Vduke
p4342
Vfree
p4343
tp4344
a(g4342
g4343
Vfam
p4345
tp4346
a(Vdungeon
p4347
Vgorilla
p4348
tp4349
a(g4347
g4348
Vtook
p4350
tp4351
a(g1782
g3474
tp4352
a(g1782
g3474
Vlove
p4353
tp4354
a(g1460
Vover
p4355
tp4356
a(g1460
g4355
Vhere
p4357
tp4358
a(Vdylan
p4359
Vlove
p4360
tp4361
a(g4359
g4360
Vteen
p4362
tp4363
a(g2802
Vmustbetay
p4364
tp4365
a(g2802
g4364
Vhoopinislife
p4366
tp4367
a(Veat
p4368
Vsalad
p4369
tp4370
a(g4368
g4369
Vone
p4371
tp4372
a(g623
g2711
tp4373
a(g623
g2711
g4368
tp4374
a(Vedition
p4375
Vvideo
p4376
tp4377
a(g4375
g4376
Vtigoy
p4378
tp4379
a(Vegg
p4380
g3744
tp4381
a(g4380
g3744
g3745
tp4382
a(g3791
g3540
tp4383
a(g3791
g3540
g618
tp4384
a(Vemma
p4385
Vwatson
p4386
tp4387
a(Vemmert
p4388
g668
tp4389
a(g4388
g668
Vfreaking
p4390
tp4391
a(Vend
p4392
g3438
tp4393
a(g4392
g3438
g2958
tp4394
a(Vengland
p4395
g2524
tp4396
a(g4395
g2524
g2525
tp4397
a(g3710
g3712
tp4398
a(g3710
g3712
Vbad
p4399
tp4400
a(Vepisodes
p4401
Vwhole
p4402
tp4403
a(g4401
g4402
Vfamily
p4404
tp4405
a(g2336
Vxoxo
p4406
tp4407
a(g3586
g4234
tp4408
a(g3586
g4234
Vdislike
p4409
tp4410
a(g1812
g3544
tp4411
a(g1812
g3544
g917
tp4412
a(g2644
g2646
tp4413
a(g4340
Vstraight
p4414
tp4415
a(g4340
g4414
g3155
tp4416
a(Vevery
p4417
Vday
p4418
tp4419
a(Vevery
p4420
Vfriday
p4421
tp4422
a(g3492
g3494
tp4423
a(g3492
g3494
Vhouse
p4424
tp4425
a(g362
Vone
p4426
tp4427
a(g2493
g3723
tp4428
a(g2493
g3723
g3724
tp4429
a(g292
g2554
tp4430
a(g1728
Vone
p4431
tp4432
a(g1728
g4431
g2598
tp4433
a(g840
g306
tp4434
a(Veverything
p4435
Vpeople
p4436
tp4437
a(g4435
g4436
g2085
tp4438
a(g208
g302
tp4439
a(g208
g302
g2091
tp4440
a(g1757
g1759
tp4441
a(g2300
g2693
tp4442
a(g2300
g2693
g1525
tp4443
a(g3719
g3721
tp4444
a(g2049
g2804
tp4445
a(g2049
g2804
g310
tp4446
a(g2840
g2842
tp4447
a(g2840
g2842
Vtube
p4448
tp4449
a(g625
Vill
p4450
tp4451
a(g625
g4450
g1419
tp4452
a(Vfacebook
p4453
g2287
tp4454
a(g4453
g2287
g2288
tp4455
a(g1461
g1501
tp4456
a(g1461
g1501
g3615
tp4457
a(g1117
g1914
tp4458
a(g1117
g1914
g1915
tp4459
a(Vfact
p4460
g1432
tp4461
a(g4460
g1432
g2566
tp4462
a(g843
g3726
tp4463
a(g843
g3726
g1561
tp4464
a(Vfact
p4465
g1482
tp4466
a(g4465
g1482
Voutside
p4467
tp4468
a(g3729
g3730
tp4469
a(g3729
g3730
Vpersonal
p4470
tp4471
a(g1691
g1693
tp4472
a(g1691
g1693
Vfirefighters
p4473
tp4474
a(g3431
g1418
tp4475
a(g3431
g1418
g1716
tp4476
a(g3150
Vtest
p4477
tp4478
a(g2175
g3526
tp4479
a(g2175
g3526
g2186
tp4480
a(g3399
g3733
tp4481
a(g3399
g3733
g1711
tp4482
a(g626
Varmsssss
p4483
tp4484
a(Vfalling
p4485
g2903
tp4486
a(g4485
g2903
g2904
tp4487
a(Vfalling
p4488
Vhard
p4489
tp4490
a(g4488
g4489
Vrihanna
p4491
tp4492
a(g4345
Vphat
p4493
tp4494
a(g4345
g4493
g43
tp4495
a(Vfamily
p4496
Vhappy
p4497
tp4498
a(g4496
g4497
Vcute
p4499
tp4500
a(Vfamily
p4501
Vlike
p4502
tp4503
a(g4501
g4502
Vfamily
p4504
tp4505
a(g4404
Vlove
p4506
tp4507
a(Vfamily
p4508
Vmane
p4509
tp4510
a(g4508
g4509
g1204
tp4511
a(g3736
g3737
tp4512
a(g170
g384
tp4513
a(g170
g384
Vliterally
p4514
tp4515
a(g4504
Vtime
p4516
tp4517
a(g4504
g4516
Vsacred
p4518
tp4519
a(g1462
g1639
tp4520
a(g1462
g1639
g48
tp4521
a(g1674
g1676
tp4522
a(g1674
g1676
g1681
tp4523
a(g2525
g1464
tp4524
a(g2525
g1464
g1446
tp4525
a(g1988
g1990
tp4526
a(g1988
g1990
g1774
tp4527
a(g1967
Vaway
p4528
tp4529
a(g1464
g1446
tp4530
a(g1464
g1446
g3169
tp4531
a(Vfat
p4532
g4380
tp4533
a(g4532
g4380
g3744
tp4534
a(g1465
g3742
tp4535
a(g1465
g3742
g1982
tp4536
a(Vfatty
p4537
Vgirl
p4538
tp4539
a(g4537
g4538
Vfirst
p4540
tp4541
a(Vfavorite
p4542
g3518
tp4543
a(g4542
g3518
g3519
tp4544
a(Vfavourite
p4545
g3092
tp4546
a(g4545
g3092
g3093
tp4547
a(g171
g3661
tp4548
a(g171
g3661
g808
tp4549
a(Vfeel
p4550
Vhappy
p4551
tp4552
a(g4550
g4551
Vyou
p4553
tp4554
a(g476
g477
g3922
tp4555
a(Vfeel
p4556
Vlike
p4557
Vneeds
p4558
tp4559
a(Vfeel
p4560
Vlike
p4561
Vsinging
p4562
tp4563
a(g1815
g1817
tp4564
a(g1815
g1817
Vbetter
p4565
tp4566
a(Vfeelin
p4567
Vspecial
p4568
tp4569
a(g4567
g4568
g2420
tp4570
a(g2396
Vbiatchhhh
p4571
tp4572
a(g627
g1487
tp4573
a(g627
g1487
g2718
tp4574
a(Vfeet
p4575
Vsoaked
p4576
tp4577
a(Vfell
p4578
Vlove
p4579
g3359
tp4580
a(Vfell
p4581
Vlove
p4582
Vstupid
p4583
tp4584
a(g324
g325
Vtumnus
p4585
tp4586
a(g3245
g3247
Vyah
p4587
tp4588
a(g3086
g4532
tp4589
a(g3086
g4532
g4380
tp4590
a(Vfights
p4591
g2973
tp4592
a(g4591
g2973
g2974
tp4593
a(Vfigure
p4594
Vmake
p4595
tp4596
a(g4594
g4595
g3899
tp4597
a(Vfilled
p4598
Vmemories
p4599
tp4600
a(g4598
g4599
Vpeople
p4601
tp4602
a(Vfinished
p4603
g394
tp4604
a(g2187
g2189
tp4605
a(g2187
g2189
g1690
tp4606
a(g363
g1496
tp4607
a(g363
g1496
Vlove
p4608
tp4609
a(g2510
Vsight
p4610
tp4611
a(g2510
g4610
g2504
tp4612
a(g4540
Vtime
p4613
tp4614
a(g4540
g4613
Vmuch
p4615
tp4616
a(g3474
g4353
tp4617
a(g3474
g4353
Vkeep
p4618
tp4619
a(g1468
g389
tp4620
a(g3726
g1561
tp4621
a(g3726
g1561
g1562
tp4622
a(Vfitchez757
p4623
g307
tp4624
a(g4623
g307
g912
tp4625
a(g3748
g3750
tp4626
a(g3748
g3750
Vthough
p4627
tp4628
a(g1993
g349
tp4629
a(g1993
g349
g2198
tp4630
a(Vfollow
p4631
V7xx
p4632
tp4633
a(Vfollow
p4634
g1442
tp4635
a(g4634
g1442
g215
tp4636
a(g341
g1444
tp4637
a(g341
g1444
g3102
tp4638
a(g4234
g4409
tp4639
a(Vfollow
p4640
Vlove
p4641
tp4642
a(Vfollow
p4643
g103
tp4644
a(Vfollow
p4645
Vmake
p4646
tp4647
a(g4645
g4646
Vhappiest
p4648
tp4649
a(Vfollow
p4650
Vmee
p4651
tp4652
a(g4650
g4651
Vlt3
p4653
tp4654
a(Vfollow
p4655
Vmeis
p4656
tp4657
a(g4655
g4656
g2594
tp4658
a(Vfollow
p4659
Vplease
p4660
Vamo
p4661
tp4662
a(g2596
g1393
tp4663
a(g2596
g1393
g498
tp4664
a(g3019
g1579
tp4665
a(g3019
g1579
g1580
tp4666
a(g1469
g3106
tp4667
a(g1469
g3106
g3107
tp4668
a(g3300
g348
tp4669
a(g3300
g348
g2051
tp4670
a(g1570
g1572
tp4671
a(g1570
g1572
Vunfollow
p4672
tp4673
a(g1580
g1582
tp4674
a(g209
g1627
tp4675
a(g209
g1627
Vmade
p4676
tp4677
a(g1594
g1596
tp4678
a(g2856
Vreal
p4679
tp4680
a(g628
g3705
tp4681
a(g628
g3705
g3706
tp4682
a(Vforever
p4683
g4385
tp4684
a(g4683
g4385
g4386
tp4685
a(g2111
Vtalk
p4686
tp4687
a(g2111
g4686
g1516
tp4688
a(g2931
g4193
tp4689
a(g2931
g4193
g373
tp4690
a(g1110
Vschool
p4691
tp4692
a(g1110
g4691
Vlife
p4693
tp4694
a(Vforward
p4695
Vwembley
p4696
tp4697
a(g4695
g4696
Vshow
p4698
tp4699
a(Vfoster
p4700
Vsure
p4701
tp4702
a(g4700
g4701
Vlove
p4703
tp4704
a(Vfound
p4705
Vglory
p4706
tp4707
a(g4705
g4706
Vtonight
p4708
tp4709
a(Vfound
p4710
Vnew
p4711
tp4712
a(g4710
g4711
Vlove
p4713
tp4714
a(Vfound
p4715
Vsyndrome
p4716
tp4717
a(g4715
g4716
g2924
tp4718
a(g1470
Vgirls
p4719
tp4720
a(g1470
g4719
Vlacrosse
p4721
tp4722
a(Vfour
p4723
Vweddings
p4724
tp4725
a(g4723
g4724
Vsmh
p4726
tp4727
a(g2262
g2264
tp4728
a(g2262
g2264
Vdearly
p4729
tp4730
a(g4390
Vmuchhhhh
p4731
tp4732
a(g4390
g4731
Vmytriplet
p4733
tp4734
a(g2870
g3292
tp4735
a(g2870
g3292
g3293
tp4736
a(g629
g4342
tp4737
a(g629
g4342
g4343
tp4738
a(g4343
g4345
tp4739
a(g4343
g4345
g4493
tp4740
a(g3753
g3755
tp4741
a(g3385
g2791
tp4742
a(g3385
g2791
g2277
tp4743
a(g1471
Vyear
p4744
tp4745
a(g1471
g4744
Vyoure
p4746
tp4747
a(g1472
g3415
tp4748
a(g1472
g3415
g2428
tp4749
a(Vfriend
p4750
Vgot
p4751
tp4752
a(g4750
g4751
Vpaisley
p4753
tp4754
a(g364
g1484
tp4755
a(Vfriends
p4756
Vmuch
p4757
tp4758
a(Vfriends
p4759
Vsthudamn
p4760
tp4761
a(g3252
g3254
tp4762
a(g3252
g3254
Vlove
p4763
tp4764
a(Vfuck
p4765
g2781
tp4766
a(g4765
g2781
g2782
tp4767
a(g3519
g3051
tp4768
a(g3519
g3051
g3052
tp4769
a(g2823
Vlame
p4770
tp4771
a(Vfucking
p4772
Vdislike
p4773
tp4774
a(g4772
g4773
Vfamily
p4775
tp4776
a(Vfucking
p4777
Vlove
p4778
Vjadee
p4779
tp4780
a(g258
g259
Vthe
p4781
tp4782
a(Vfucking
p4783
Vlove
p4784
Vyou
p4785
tp4786
a(Vfucking
p4787
Vlove
p4788
Vzac
p4789
tp4790
a(Vfun
p4791
g4485
tp4792
a(g4791
g4485
g2903
tp4793
a(g1473
Vlove
p4794
tp4795
a(g1473
g4794
Vretweets
p4796
tp4797
a(Vgain
p4798
Vimage
p4799
tp4800
a(g3763
g3765
tp4801
a(g3763
g3765
g4328
tp4802
a(Vganna
p4803
Vtel
p4804
tp4805
a(g4803
g4804
g214
tp4806
a(g4190
g4326
tp4807
a(g4190
g4326
g3601
tp4808
a(Vget
p4809
g1557
tp4810
a(g4809
g1557
g1558
tp4811
a(g3076
Vhome
p4812
tp4813
a(g3076
g4812
Vlove
p4814
tp4815
a(g4198
g4307
tp4816
a(g4198
g4307
Vlmfao
p4817
tp4818
a(Vget
p4819
Vhugs
p4820
tp4821
a(g4819
g4820
Vtoday
p4822
tp4823
a(Vget
p4824
Vjudged
p4825
tp4826
a(g4824
g4825
Vlove
p4827
tp4828
a(g3702
g4237
tp4829
a(g3702
g4237
Vstill
p4830
tp4831
a(Vget
p4832
Vmindset
p4833
tp4834
a(g4832
g4833
Vthat
p4835
tp4836
a(g1348
Vnotice
p4837
tp4838
a(g1348
g4837
g1077
tp4839
a(g4127
Voutta
p4840
tp4841
a(g932
g4239
tp4842
a(g932
g4239
g3840
tp4843
a(Vget
p4844
Vrid
p4845
tp4846
a(g4844
g4845
Vcould
p4847
tp4848
a(Vget
p4849
Vwant
p4850
tp4851
a(g4849
g4850
Vhuh
p4852
tp4853
a(Vgettin
p4854
Vshots
p4855
tp4856
a(g4854
g4855
Vnothin
p4857
tp4858
a(g3768
g2633
tp4859
a(g3768
g2633
g2634
tp4860
a(g1604
g1606
tp4861
a(g1604
g1606
g1613
tp4862
a(g3782
g4844
tp4863
a(g3782
g4844
g4845
tp4864
a(Vgetting
p4865
Vlast
p4866
tp4867
a(g4865
g4866
Vlaugh
p4868
tp4869
a(g534
Vpaid
p4870
tp4871
a(g534
g4870
g4420
tp4872
a(Vgetting
p4873
Vscoring
p4874
tp4875
a(g4873
g4874
g1443
tp4876
a(Vgfi
p4877
Vlove
p4878
tp4879
a(g4877
g4878
Vyoumei
p4880
tp4881
a(g3742
g1982
tp4882
a(g3742
g1982
g1983
tp4883
a(Vgiovanny
p4884
Vweird
p4885
tp4886
a(g4884
g4885
Vguess
p4887
tp4888
a(Vgirl
p4889
g1848
tp4890
a(g4889
g1848
g1849
tp4891
a(g3838
g4184
tp4892
a(g3838
g4184
g2993
tp4893
a(g4538
g4540
tp4894
a(g4538
g4540
g4613
tp4895
a(g2238
g2240
tp4896
a(g2238
g2240
g2442
tp4897
a(Vgirl
p4898
Vthatll
p4899
tp4900
a(g4898
g4899
Vmake
p4901
tp4902
a(Vgirl
p4903
Vworld
p4904
Vjepsiearereadyfortigoynewvideo
p4905
tp4906
a(g3853
g683
tp4907
a(g3853
g683
g125
tp4908
a(Vgirls
p4909
g1919
tp4910
a(g4909
g1919
g1920
tp4911
a(g3776
g3778
tp4912
a(g3776
g3778
g3866
tp4913
a(g4719
g4721
tp4914
a(g4719
g4721
g1529
tp4915
a(g3499
Vlove
p4916
tp4917
a(g3499
g4916
g2844
tp4918
a(g2529
g2531
tp4919
a(g2529
g2531
g2534
tp4920
a(Vgive
p4921
Vdamn
p4922
tp4923
a(g213
g3594
tp4924
a(g213
g3594
g3595
tp4925
a(Vgive
p4926
Vmeat
p4927
tp4928
a(g3953
Vnumber
p4929
tp4930
a(g3953
g4929
Vwithout
p4931
tp4932
a(g3994
Vrats
p4933
tp4934
a(g3994
g4933
Vass
p4935
tp4936
a(Vglad
p4937
Vgot
p4938
Vlunch
p4939
tp4940
a(g631
g995
g174
tp4941
a(Vglad
p4942
Vlive
p4943
tp4944
a(g4942
g4943
Vmamma
p4945
tp4946
a(Vglamours
p4947
Vhero
p4948
tp4949
a(g4947
g4948
Vtollywoodi
p4950
tp4951
a(g4706
g4708
tp4952
a(g4706
g4708
Vdislike
p4953
tp4954
a(Vglowieexxx
p4955
g1303
tp4956
a(g4955
g1303
g907
tp4957
a(g2842
g4448
tp4958
a(g3443
g3445
tp4959
a(g3443
g3445
g2680
tp4960
a(g1475
Vlove
p4961
tp4962
a(g1475
g4961
g2988
tp4963
a(Vgoing
p4964
g2625
tp4965
a(g4964
g2625
g2626
tp4966
a(Vgoing
p4967
Vhappen
p4968
tp4969
a(g4967
g4968
Vlove
p4970
tp4971
a(g214
Vnoo
p4972
tp4973
a(g214
g4972
Vtalked
p4974
tp4975
a(g2961
Vschool
p4976
tp4977
a(g2961
g4976
Voru
p4978
tp4979
a(g4151
Vshm
p4980
tp4981
a(g4151
g4980
g3214
tp4982
a(g1599
g1601
tp4983
a(g1599
g1601
Vspinning
p4984
tp4985
a(g3445
g2680
tp4986
a(g3445
g2680
g2681
tp4987
a(g1476
g2159
tp4988
a(g1476
g2159
g1530
tp4989
a(g1572
g4672
tp4990
a(g1572
g4672
Vloads
p4991
tp4992
a(g3568
g2413
tp4993
a(g3568
g2413
g2414
tp4994
a(Vgood
p4995
g300
tp4996
a(g4995
g300
Vpeople
p4997
tp4998
a(g632
Vsaying
p4999
tp5000
a(g632
g4999
Vlove
p5001
tp5002
a(g3031
g2377
tp5003
a(g3031
g2377
g2378
tp5004
a(g4348
g4350
tp5005
a(g4348
g4350
Vviagra
p5006
tp5007
a(g44
g1751
tp5008
a(g44
g1751
g6
tp5009
a(g2999
g2500
tp5010
a(g2999
g2500
g298
tp5011
a(Vgot
p5012
g2652
tp5013
a(g5012
g2652
g2653
tp5014
a(Vgot
p5015
g3747
tp5016
a(g5015
g3747
g3748
tp5017
a(g3013
Vhandful
p5018
tp5019
a(g3013
g5018
g1456
tp5020
a(Vgot
p5021
Vlet
p5022
tp5023
a(g5021
g5022
g3700
tp5024
a(Vgot
p5025
Vlove
p5026
tp5027
a(g5025
g5026
Vyaa
p5028
tp5029
a(g4938
g4939
tp5030
a(g4938
g4939
g3388
tp5031
a(g2349
g200
tp5032
a(g2349
g200
g201
tp5033
a(g4751
g4753
tp5034
a(g4751
g4753
g2603
tp5035
a(g995
g174
tp5036
a(g995
g174
Vrather
p5037
tp5038
a(g2873
g2875
tp5039
a(g2873
g2875
Vlove
p5040
tp5041
a(g1833
Vtime
p5042
tp5043
a(g1833
g5042
g620
tp5044
a(g2142
g381
tp5045
a(Vgrandma
p5046
g2224
tp5047
a(g5046
g2224
g2225
tp5048
a(g633
g2297
tp5049
a(g633
g2297
g2298
tp5050
a(g3041
g2738
tp5051
a(g3041
g2738
g2739
tp5052
a(g1477
Vdayyyyyy
p5053
tp5054
a(Vgreatly
p5055
g4160
tp5056
a(g5055
g4160
g4161
tp5057
a(g2240
g2442
tp5058
a(g2240
g2442
g141
tp5059
a(g3572
g3574
tp5060
a(g293
g401
tp5061
a(g293
g401
g287
tp5062
a(g1370
g621
tp5063
a(g1370
g621
g3572
tp5064
a(g3803
Vsort
p5065
tp5066
a(g3803
g5065
Vlike
p5067
tp5068
a(g4887
Vusually
p5069
tp5070
a(g4887
g5069
Vintroduce
p5071
tp5072
a(Vgunn
p5073
g2066
tp5074
a(g5073
g2066
g2067
tp5075
a(Vguts
p5076
Vtell
p5077
tp5078
a(g5076
g5077
Vmuch
p5079
tp5080
a(g4336
Vlove
p5081
tp5082
a(g4336
g5081
g4756
tp5083
a(g294
g3256
tp5084
a(g294
g3256
g366
tp5085
a(Vguys
p5086
Vthe
p5087
tp5088
a(g5086
g5087
Vworld
p5089
tp5090
a(g3378
g3380
tp5091
a(g3378
g3380
Vnight
p5092
tp5093
a(g4028
Vwould
p5094
tp5095
a(g4028
g5094
g4819
tp5096
a(g2424
g2426
tp5097
a(g2424
g2426
Vpooh
p5098
tp5099
a(Vhadislike
p5100
Vpeople
p5101
tp5102
a(g5100
g5101
Vput
p5103
tp5104
a(Vhahah
p5105
Vknow
p5106
tp5107
a(g3126
Vlove
p5108
tp5109
a(g3126
g5108
Vlouis
p5110
tp5111
a(g1478
Vyessssssss
p5112
tp5113
a(g1478
g5112
Vlove
p5114
tp5115
a(g3448
g3450
tp5116
a(Vhahahahahaha
p5117
Vthank
p5118
tp5119
a(g5117
g5118
Vlovely
p5120
tp5121
a(g3069
Vlike
p5122
tp5123
a(g3069
g5122
Vthat
p5124
tp5125
a(Vhammer
p5126
Vtime
p5127
tp5128
a(g5126
g5127
g3173
tp5129
a(Vhand
p5130
Vjohnny
p5131
tp5132
a(g5130
g5131
Vheaux
p5133
tp5134
a(g5018
g1456
tp5135
a(g5018
g1456
g649
tp5136
a(Vhanging
p5137
Vpeople
p5138
tp5139
a(g5137
g5138
g4417
tp5140
a(Vhannah
p5141
g2080
tp5142
a(g5141
g2080
g2081
tp5143
a(g4968
g4970
tp5144
a(g4968
g4970
Vlt3xxx
p5145
tp5146
a(Vhappiest
p5147
g4889
g1848
tp5148
a(Vhappily
p5149
Vsungjae
p5150
tp5151
a(g5149
g5150
Vmakes
p5152
tp5153
a(g4497
g4499
tp5154
a(g3465
g3467
tp5155
a(g123
g187
tp5156
a(g123
g187
Vhappy
p5157
tp5158
a(g5157
Voutweighs
p5159
tp5160
a(g5157
g5159
g3612
tp5161
a(g1883
g1885
tp5162
a(g2159
g1530
tp5163
a(g2159
g1530
g2038
tp5164
a(Vhappy
p5165
Vthree
p5166
tp5167
a(g5165
g5166
g1472
tp5168
a(g4551
g4553
tp5169
a(g4551
g4553
g1928
tp5170
a(g156
g1145
tp5171
a(g156
g1145
g194
tp5172
a(g4489
g4491
tp5173
a(Vhard
p5174
g393
tp5175
a(g5174
g393
g641
tp5176
a(Vhard
p5177
Vwork
p5178
tp5179
a(g5177
g5178
g3287
tp5180
a(Vharry
p5181
g4683
tp5182
a(g5181
g4683
g4385
tp5183
a(g1480
g186
tp5184
a(Vhashtags
p5185
g4453
tp5186
a(g5185
g4453
g2287
tp5187
a(Vhasnt
p5188
Vtweeted
p5189
tp5190
a(g5188
g5189
g2130
tp5191
a(g2183
g1720
tp5192
a(g2183
g1720
g1721
tp5193
a(g1737
g2113
tp5194
a(g1737
g2113
g2114
tp5195
a(g4243
g771
tp5196
a(g4243
g771
g772
tp5197
a(Vhate
p5198
g3295
tp5199
a(g5198
g3295
g3296
tp5200
a(g27
g882
tp5201
a(g27
g882
g657
tp5202
a(g3781
g3782
tp5203
a(g3781
g3782
g4844
tp5204
a(g1658
Vhim
p5205
tp5206
a(g1658
g5205
g593
tp5207
a(g1268
Vlike
p5208
tp5209
a(g1268
g5208
Vmean
p5210
tp5211
a(Vhate
p5212
Vlove
p5213
tp5214
a(Vhate
p5215
g1208
tp5216
a(g5215
g1208
g622
tp5217
a(Vhate
p5218
Vpeople
p5219
g2919
tp5220
a(g1007
g1008
Vhate
p5221
tp5222
a(g4037
Vpotty
p5223
tp5224
a(g4037
g5223
Vtraining
p5225
tp5226
a(g4042
Vslush
p5227
tp5228
a(g4042
g5227
Vpullman
p5229
tp5230
a(Vhate
p5231
Vsnow
p5232
tp5233
a(g5231
g5232
Vlove
p5234
tp5235
a(g5221
Vweed
p5236
tp5237
a(g5221
g5236
g181
tp5238
a(g3933
Vwhy
p5239
tp5240
a(g3933
g5239
g1400
tp5241
a(Vhatin
p5242
Vyou
p5243
tp5244
a(g5242
g5243
g2888
tp5245
a(g3785
g3787
tp5246
a(g3785
g3787
Vplace
p5247
tp5248
a(Vhave
p5249
g1477
tp5250
a(g5249
g1477
g5053
tp5251
a(Vhavent
p5252
g2088
tp5253
a(g5252
g2088
g2089
tp5254
a(g2306
g2308
tp5255
a(g2306
g2308
g337
tp5256
a(Vhearing
p5257
Vname
p5258
tp5259
a(g5257
g5258
Vmakes
p5260
tp5261
a(g2599
g2601
tp5262
a(g2599
g2601
Vrealtalk
p5263
tp5264
a(g5133
g2872
tp5265
a(g5133
g2872
g2873
tp5266
a(Vhellomoe
p5267
Vreally
p5268
tp5269
a(g5267
g5268
g3958
tp5270
a(Vhelp
p5271
g4832
tp5272
a(g5271
g4832
g4833
tp5273
a(g2693
g1525
tp5274
a(g2693
g1525
Vcolfcsryderl
p5275
tp5276
a(g3229
g3231
tp5277
a(g3229
g3231
Vloud
p5278
tp5279
a(g4948
g4950
tp5280
a(g4948
g4950
Vlove
p5281
tp5282
a(g3052
g3054
tp5283
a(Vhes
p5284
Vcute
p5285
tp5286
a(g2821
g2823
tp5287
a(g2821
g2823
g4770
tp5288
a(g215
g3013
tp5289
a(g215
g3013
g5018
tp5290
a(g2733
g2735
tp5291
a(g2733
g2735
Vrtz
p5292
tp5293
a(g1997
g1999
tp5294
a(Vhess
p5295
g897
tp5296
a(g5295
g897
g898
tp5297
a(g3027
g357
tp5298
a(g3027
g357
g3022
tp5299
a(Vhey
p5300
Vlove
p5301
Vtoday
p5302
tp5303
a(g367
g1023
Vyouyour
p5304
tp5305
a(Vhey
p5306
Vreleased
p5307
tp5308
a(g5306
g5307
Vnew
p5309
tp5310
a(Vheyyy
p5311
Vsaying
p5312
tp5313
a(g5311
g5312
g3061
tp5314
a(Vhids
p5315
g153
tp5316
a(Vhighly
p5317
g4012
tp5318
a(g5317
g4012
g4013
tp5319
a(Vhii
p5320
Vlove
p5321
tp5322
a(g5320
g5321
Vyouim
p5323
tp5324
a(g5205
g593
tp5325
a(g5205
g593
g594
tp5326
a(Vhispanics
p5327
Vpeople
p5328
tp5329
a(g5327
g5328
Vtalk
p5330
tp5331
a(g2761
g2480
tp5332
a(g2761
g2480
g2481
tp5333
a(Vhmm
p5334
Vreally
p5335
tp5336
a(g5334
g5335
Vdislike
p5337
tp5338
a(g3394
Vjesus
p5339
tp5340
a(g3394
g5339
Vmary
p5341
tp5342
a(g4812
g4814
tp5343
a(g4812
g4814
Vmiss
p5344
tp5345
a(Vhomie
p5346
Vnah
p5347
tp5348
a(Vhonesty
p5349
Vsay
p5350
tp5351
a(g5349
g5350
Vkiana
p5352
tp5353
a(g1805
Vlove
p5354
tp5355
a(g1805
g5354
g2945
tp5356
a(Vhood
p5357
Volney
p5358
tp5359
a(g4366
Vschemeking
p5360
tp5361
a(g4366
g5360
Vlove
p5362
tp5363
a(Vhope
p5364
g5076
tp5365
a(g5364
g5076
g5077
tp5366
a(Vhope
p5367
Vleast
p5368
tp5369
a(g5367
g5368
g3251
tp5370
a(g634
Vone
p5371
tp5372
a(g634
g5371
g3043
tp5373
a(g1482
g4467
tp5374
a(g1482
g4467
Vtbh
p5375
tp5376
a(g296
g1796
tp5377
a(g296
g1796
g1797
tp5378
a(g4424
g4598
tp5379
a(g4424
g4598
g4599
tp5380
a(g4307
g4817
tp5381
a(Vhouse
p5382
Vright
p5383
tp5384
a(g5382
g5383
Vprobably
p5385
tp5386
a(g2970
Vugggh
p5387
tp5388
a(g2970
g5387
g1246
tp5389
a(Vhouses
p5390
Vknock
p5391
tp5392
a(g5390
g5391
g4303
tp5393
a(Vhouston
p5394
g1519
tp5395
a(g635
g3791
tp5396
a(g635
g3791
g3540
tp5397
a(g4261
g5188
tp5398
a(g4261
g5188
g5189
tp5399
a(Vhow
p5400
Vlove
p5401
tp5402
a(g5400
g5401
g1784
tp5403
a(Vhuge
p5404
g1462
tp5405
a(g5404
g1462
g1639
tp5406
a(g4820
g4822
tp5407
a(g4820
g4822
Vwould
p5408
tp5409
a(Vhulu
p5410
g1430
tp5411
a(g5410
g1430
g1987
tp5412
a(g3131
g3794
tp5413
a(g3131
g3794
Vits
p5414
tp5415
a(g3797
g3799
tp5416
a(Vibe
p5417
Visit
p5418
tp5419
a(g5417
g5418
g4187
tp5420
a(g2227
g3334
g3335
tp5421
a(g1038
g1039
g1494
tp5422
a(Vicon
p5423
g2608
tp5424
a(g5423
g2608
g2609
tp5425
a(g3084
g3086
tp5426
a(g3084
g3086
g4532
tp5427
a(Videntify
p5428
Vterm
p5429
tp5430
a(g5428
g5429
Vpuck
p5431
tp5432
a(Videntities
p5433
Vlove
p5434
tp5435
a(g5433
g5434
Vwould
p5436
tp5437
a(Vidk
p5438
Vlove
p5439
tp5440
a(g636
Vmuch
p5441
tp5442
a(g636
g5441
g3418
tp5443
a(g1825
g3599
tp5444
a(g1825
g3599
g652
tp5445
a(Vidol
p5446
Vtweet
p5447
tp5448
a(g5446
g5447
Vmuch
p5449
tp5450
a(g3801
g3803
tp5451
a(g3801
g3803
g5065
tp5452
a(g3806
g2705
tp5453
a(g3806
g2705
g2706
tp5454
a(g4450
g1419
tp5455
a(g4450
g1419
g1757
tp5456
a(g3186
g4124
tp5457
a(g3186
g4124
g4125
tp5458
a(g1050
g628
g3705
tp5459
a(g2109
g2111
g4686
tp5460
a(g1890
g1892
tp5461
a(g1890
g1892
Vnext
p5462
tp5463
a(Vill
p5464
Vmake
p5465
tp5466
a(g5464
g5465
Vlove
p5467
tp5468
a(g2726
g2728
tp5469
a(g2726
g2728
Vmany
p5470
tp5471
a(Vill
p5472
Vwatch
p5473
tp5474
a(g5472
g5473
g5149
tp5475
a(g2959
g2961
tp5476
a(g2959
g2961
g4976
tp5477
a(g3057
g3059
tp5478
a(g3057
g3059
g1327
tp5479
a(g1950
g1952
tp5480
a(g1950
g1952
Vdislike
p5481
tp5482
a(g3730
g4470
tp5483
a(g3730
g4470
g4798
tp5484
a(Vimportant
p5485
g359
tp5486
a(g5485
g359
g3314
tp5487
a(g4112
Vrape
p5488
tp5489
a(g4112
g5488
g4347
tp5490
a(g3494
g4424
tp5491
a(g3494
g4424
g4598
tp5492
a(g3242
Vway
p5493
tp5494
a(g3242
g5493
g5404
tp5495
a(Vinitials
p5496
g159
tp5497
a(g5496
g159
Vpassionately
p5498
tp5499
a(Vinot
p5500
g127
tp5501
a(g5500
g127
g374
tp5502
a(g3497
g3499
tp5503
a(g3497
g3499
g4916
tp5504
a(Vinspires
p5505
g2561
tp5506
a(g5505
g2561
g2562
tp5507
a(g1575
g1577
tp5508
a(g1575
g1577
g1603
tp5509
a(Vinternship
p5510
g294
tp5511
a(g5510
g294
g3256
tp5512
a(g1483
g4884
tp5513
a(g1483
g4884
g4885
tp5514
a(g5071
Vnickname
p5515
tp5516
a(g5071
g5515
Vjoey
p5517
tp5518
a(g1656
g1658
tp5519
a(g1656
g1658
g5205
tp5520
a(g1564
g682
tp5521
a(g1564
g682
g3513
tp5522
a(g3544
g917
tp5523
a(g3544
g917
g918
tp5524
a(Virene
p5525
Vsituation
p5526
tp5527
a(Viroc
p5528
Vlove
p5529
tp5530
a(g5528
g5529
Vcannabis
p5531
tp5532
a(g5418
g4187
tp5533
a(g5418
g4187
g4188
tp5534
a(g3171
g1746
tp5535
a(g3171
g1746
g1747
tp5536
a(Vits
p5537
g3510
tp5538
a(g5537
g3510
g3511
tp5539
a(Vits
p5540
g884
tp5541
a(g5540
g884
g885
tp5542
a(g5414
g4435
tp5543
a(g5414
g4435
g4436
tp5544
a(g2868
g2870
tp5545
a(g2868
g2870
g3292
tp5546
a(Vits
p5547
Vmuch
p5548
tp5549
a(g5547
g5548
g1473
tp5550
a(Vits
p5551
Vokhe
p5552
tp5553
a(g5551
g5552
Vsaid
p5554
tp5555
a(Vits
p5556
Vweird
p5557
tp5558
a(g5556
g5557
Vreally
p5559
tp5560
a(g369
g2403
tp5561
a(g369
g2403
g2404
tp5562
a(Vive
p5563
g4603
tp5564
a(g5563
g4603
g394
tp5565
a(Vive
p5566
Vmanaged
p5567
tp5568
a(g5566
g5567
g3987
tp5569
a(Vive
p5570
Vnever
p5571
tp5572
a(g5570
g5571
Vlove
p5573
tp5574
a(Viwanthim
p5575
Vplease
p5576
tp5577
a(Vjagadam
p5578
Vmovie
p5579
tp5580
a(g5578
g5579
Vsoo
p5581
tp5582
a(g3422
g3424
tp5583
a(g4905
Vlove
p5584
tp5585
a(g4905
g5584
Vyou
p5586
tp5587
a(Vjesse
p5588
Vmoon
p5589
tp5590
a(g5588
g5589
g2072
tp5591
a(g5339
g5341
tp5592
a(g5339
g5341
Vjoseph
p5593
tp5594
a(g2684
g690
tp5595
a(g2684
g690
g691
tp5596
a(Vjoecee
p5597
g4080
tp5598
a(g5597
g4080
g4081
tp5599
a(g5517
Vlol
p5600
tp5601
a(g5131
g5133
tp5602
a(g5131
g5133
g2872
tp5603
a(Vjonas
p5604
g2825
g2826
tp5605
a(g1061
g1062
g2830
tp5606
a(g5593
g3505
tp5607
a(g5593
g3505
g3506
tp5608
a(Vjosh
p5609
g2963
tp5610
a(g5609
g2963
g41
tp5611
a(Vjourno
p5612
Vjust
p5613
tp5614
a(g5612
g5613
Vwant
p5615
tp5616
a(g4825
g4827
tp5617
a(Vjust
p5618
g581
tp5619
a(g5618
g581
g582
tp5620
a(g2826
g2828
tp5621
a(g2826
g2828
Vminute
p5622
tp5623
a(Vjust
p5624
Vthought
p5625
tp5626
a(g5624
g5625
Vyou
p5627
tp5628
a(g5613
g5615
tp5629
a(g5613
g5615
g2433
tp5630
a(Vjustice
p5631
g3728
tp5632
a(g5631
g3728
g3729
tp5633
a(Vjustin
p5634
g2570
tp5635
a(g5634
g2570
g2571
tp5636
a(g638
Vremembers
p5637
tp5638
a(g638
g5637
g1441
tp5639
a(Vjustin
p5640
Vsaid
p5641
tp5642
a(g5640
g5641
Vpap
p5643
tp5644
a(g3813
g3815
tp5645
a(g3813
g3815
Vlong
p5646
tp5647
a(Vkdrama
p5648
Vthing
p5649
tp5650
a(g5648
g5649
g3870
tp5651
a(g4618
g2155
tp5652
a(g4618
g2155
g2156
tp5653
a(Vkelly
p5654
Vlive
p5655
tp5656
a(g5654
g5655
Vknow
p5657
tp5658
a(g5352
Vment
p5659
tp5660
a(g5352
g5659
g1608
tp5661
a(Vkid
p5662
g2495
tp5663
a(g5662
g2495
g2496
tp5664
a(g1740
g1254
tp5665
a(g1740
g1254
g1255
tp5666
a(g1485
g4008
tp5667
a(g1485
g4008
g4009
tp5668
a(Vkinda
p5669
Vtwitter
p5670
tp5671
a(g5669
g5670
Vstalking
p5672
tp5673
a(g3928
Vass
p5674
tp5675
a(g2387
g3031
tp5676
a(g2387
g3031
g2377
tp5677
a(g184
g44
tp5678
a(g184
g44
g1751
tp5679
a(Vkiss
p5680
Vitalian
p5681
tp5682
a(g4334
g4336
tp5683
a(g4334
g4336
g5081
tp5684
a(g1486
g1552
tp5685
a(g1486
g1552
g3244
tp5686
a(Vknew
p5687
g655
tp5688
a(g5687
g655
Vlove
p5689
tp5690
a(g5391
g4303
tp5691
a(g5391
g4303
g2001
tp5692
a(g3547
g1417
tp5693
a(g3547
g1417
g1642
tp5694
a(g2310
g178
tp5695
a(g2310
g178
g180
tp5696
a(g250
g2767
tp5697
a(g250
g2767
g385
tp5698
a(g4212
g3496
tp5699
a(g4212
g3496
g3497
tp5700
a(Vknow
p5701
g3638
g1431
tp5702
a(g1073
g1074
g4004
tp5703
a(g3148
g3150
tp5704
a(g3148
g3150
g4477
tp5705
a(Vknow
p5706
g4640
g4641
tp5707
a(g5657
g5177
tp5708
a(g5657
g5177
g5178
tp5709
a(Vknow
p5710
Vlove
p5711
g2252
tp5712
a(Vknow
p5713
Vlove
p5714
Vbitchhh
p5715
tp5716
a(Vknow
p5717
Vlove
p5718
g5174
tp5719
a(Vknow
p5720
Vlovebird
p5721
tp5722
a(g4248
g4249
tp5723
a(g4248
g4249
Vlove
p5724
tp5725
a(g1077
g189
g4967
tp5726
a(g3062
g3064
g305
tp5727
a(Vknow
p5728
Vpeople
p5729
tp5730
a(g5728
g5729
g2978
tp5731
a(Vknow
p5732
Vread
p5733
tp5734
a(g5732
g5733
Vtext
p5735
tp5736
a(g4251
g4252
tp5737
a(g2343
g2345
tp5738
a(g2343
g2345
Vlast
p5739
tp5740
a(Vknow
p5741
Vsound
p5742
tp5743
a(g5741
g5742
Vungrateful
p5744
tp5745
a(Vknow
p5746
Vthats
p5747
tp5748
a(g5746
g5747
Vmuch
p5749
tp5750
a(Vknow
p5751
g1539
tp5752
a(g5751
g1539
g5570
tp5753
a(Vknow
p5754
Vused
p5755
tp5756
a(g5754
g5755
Vdislike
p5757
tp5758
a(g1487
g2718
tp5759
a(g1487
g2718
g1531
tp5760
a(g3818
g3820
tp5761
a(g3818
g3820
Vsomeone
p5762
tp5763
a(g3876
g3412
tp5764
a(g3876
g3412
g3413
tp5765
a(g4255
g1549
tp5766
a(g4255
g1549
Vmooi
p5767
tp5768
a(Vknowokay
p5769
g2908
tp5770
a(g5769
g2908
g2909
tp5771
a(g4721
g1529
tp5772
a(g4721
g1529
g183
tp5773
a(Vlamb
p5774
Vlove
p5775
tp5776
a(g5774
g5775
g2372
tp5777
a(g2005
g2007
tp5778
a(g2005
g2007
Vdislike
p5779
tp5780
a(g4866
g4868
tp5781
a(g297
Vtweet
p5782
tp5783
a(g297
g5782
g1320
tp5784
a(g5739
Vweek
p5785
tp5786
a(g5739
g5785
Vbestfriend
p5787
tp5788
a(Vlasting
p5789
Vrelationship
p5790
tp5791
a(g5789
g5790
Vsomeone
p5792
tp5793
a(Vlaurenmonty
p5794
Vlove
p5795
tp5796
a(g5794
g5795
Vone
p5797
tp5798
a(g2308
g337
tp5799
a(g2308
g337
g338
tp5800
a(Vlazyfriday
p5801
Vitsarealthing
p5802
tp5803
a(g5368
g3251
tp5804
a(g5368
g3251
g3252
tp5805
a(g640
g5025
tp5806
a(g640
g5025
g5026
tp5807
a(Vleast
p5808
Vone
p5809
tp5810
a(g5808
g5809
Vlove
p5811
tp5812
a(g1915
g1917
tp5813
a(g1488
Vtaking
p5814
tp5815
a(g1488
g5814
Vback
p5816
tp5817
a(Vleft
p5818
g5130
tp5819
a(g5818
g5130
g5131
tp5820
a(Vleftie
p5821
Vthink
p5822
tp5823
a(g5821
g5822
g5612
tp5824
a(g4023
g2447
tp5825
a(g4023
g2447
g2448
tp5826
a(g5022
g3700
tp5827
a(g5022
g3700
g3701
tp5828
a(Vliampayne
p5829
g5300
tp5830
a(g5829
g5300
g5301
tp5831
a(g185
g5311
tp5832
a(g185
g5311
g5312
tp5833
a(Vliar
p5834
Vlol
p5835
tp5836
a(g5834
g5835
Vsucks
p5837
tp5838
a(g641
g4488
tp5839
a(g641
g4488
g4489
tp5840
a(g1892
g5462
tp5841
a(g1892
g5462
Vtime
p5842
tp5843
a(Vlie
p5844
Vshit
p5845
tp5846
a(g5844
g5845
Vhappens
p5847
tp5848
a(g143
g1754
tp5849
a(g143
g1754
g1755
tp5850
a(g4693
g2760
tp5851
a(g4693
g2760
g2761
tp5852
a(g3829
g2948
tp5853
a(g3829
g2948
g2949
tp5854
a(Vlife
p5855
g5505
tp5856
a(g5855
g5505
g2561
tp5857
a(g2404
g2406
tp5858
a(g2404
g2406
g2034
tp5859
a(Vlike
p5860
g1969
tp5861
a(g5860
g1969
g1686
tp5862
a(Vlike
p5863
g2933
tp5864
a(g5863
g2933
g2934
tp5865
a(Vlike
p5866
Vcojcvcbggapf
p5867
tp5868
a(Vlike
p5869
g3263
tp5870
a(g5869
g3263
g3264
tp5871
a(g1292
g3604
g612
tp5872
a(g477
g3922
g3923
tp5873
a(Vlike
p5874
g4049
g1289
tp5875
a(g1980
g2462
g4099
tp5876
a(g2956
g3486
g4114
tp5877
a(Vlike
p5878
g920
g679
tp5879
a(g1721
g1723
tp5880
a(g1721
g1723
g4251
tp5881
a(Vlike
p5882
g4375
tp5883
a(g5882
g4375
g4376
tp5884
a(g4502
g4504
tp5885
a(g4502
g4504
g4516
tp5886
a(g2198
g1468
tp5887
a(g2198
g1468
g389
tp5888
a(g3832
g1470
tp5889
a(g3832
g1470
g4719
tp5890
a(Vlike
p5891
g5137
tp5892
a(g5891
g5137
g5138
tp5893
a(Vlike
p5894
g5609
tp5895
a(g5894
g5609
g2963
tp5896
a(Vlike
p5897
g5741
tp5898
a(g5897
g5741
g5742
tp5899
a(Vlike
p5900
Vlazier
p5901
tp5902
a(g1716
g1718
tp5903
a(g1716
g1718
g2674
tp5904
a(Vlike
p5905
Vlol
p5906
Vlove
p5907
tp5908
a(g1098
g1099
Vput
p5909
tp5910
a(Vlike
p5911
Vlove
p5912
tp5913
a(g5911
g5912
Vsass
p5914
tp5915
a(g5208
g5210
tp5916
a(g5208
g5210
Vstrongly
p5917
tp5918
a(g4557
g4558
tp5919
a(g4557
g4558
Vofficial
p5920
tp5921
a(Vlike
p5922
Vokaay
p5923
tp5924
a(g5922
g5923
Vpeople
p5925
tp5926
a(g1920
g1200
tp5927
a(g1920
g1200
g1201
tp5928
a(g1101
g1102
g3118
tp5929
a(g5067
Vpeople
p5930
g1528
tp5931
a(Vlike
p5932
Vreally
p5933
tp5934
a(g5932
g5933
Vdislike
p5935
tp5936
a(g3119
g3121
tp5937
a(g2121
g4259
tp5938
a(g2121
g4259
Vnever
p5939
tp5940
a(g4561
g4562
tp5941
a(g4561
g4562
g1523
tp5942
a(g4237
g4830
tp5943
a(g4237
g4830
Vhappy
p5944
tp5945
a(g5122
g5124
tp5946
a(g3551
g3553
tp5947
a(g3551
g3553
Vmet
p5948
tp5949
a(Vlike
p5950
Vthough
p5951
tp5952
a(g5950
g5951
Vwait
p5953
tp5954
a(g2439
g1547
tp5955
a(g2439
g1547
g1317
tp5956
a(Vlike
p5957
Vwill
p5958
tp5959
a(g5957
g5958
g1923
tp5960
a(Vlike
p5961
Vwishi
p5962
tp5963
a(g5961
g5962
g5367
tp5964
a(Vlike
p5965
Vwonderful
p5966
tp5967
a(g5965
g5966
Vrelaxing
p5968
tp5969
a(g1489
g5701
tp5970
a(g1489
g5701
g3638
tp5971
a(Vliked
p5972
Vvideo
p5973
tp5974
a(g5972
g5973
g5634
tp5975
a(g3404
g1673
g1674
tp5976
a(g3901
g5525
tp5977
a(g3901
g5525
g5526
tp5978
a(g3836
g3838
tp5979
a(g3836
g3838
g4184
tp5980
a(g1718
g2674
tp5981
a(g1718
g2674
g203
tp5982
a(Vlimite
p5983
Vlove
p5984
tp5985
a(g2701
g2703
tp5986
a(Vlips
p5987
g184
tp5988
a(g5987
g184
g44
tp5989
a(g642
g2476
tp5990
a(g642
g2476
Vsongs
p5991
tp5992
a(g1490
Vradio
p5993
tp5994
a(g1490
g5993
g5563
tp5995
a(g3360
g3362
tp5996
a(g3360
g3362
Vnowi
p5997
tp5998
a(g643
g1104
g3878
tp5999
a(g1642
g1644
g3984
tp6000
a(g4514
Vruin
p6001
tp6002
a(g4514
g6001
g168
tp6003
a(g2055
g2057
tp6004
a(g2055
g2057
g2638
tp6005
a(g1491
g3842
tp6006
a(g1491
g3842
Vtheyre
p6007
tp6008
a(g5655
g5657
tp6009
a(g5655
g5657
g5177
tp6010
a(g4943
g4945
tp6011
a(Vlive
p6012
g659
tp6013
a(g6012
g659
g3913
tp6014
a(Vlive
p6015
Vspitta
p6016
tp6017
a(g6015
g6016
g1449
tp6018
a(Vlive
p6019
Vwant
p6020
tp6021
a(g6019
g6020
Vlove
p6022
tp6023
a(Vlmao
p6024
Vsay
p6025
tp6026
a(g6024
g6025
Vhate
p6027
tp6028
a(g4991
Vpeople
p6029
tp6030
a(g4991
g6029
Vdislike
p6031
tp6032
a(Vlol
p6033
Vdislike
p6034
tp6035
a(g4002
g636
tp6036
a(g4002
g636
g5441
tp6037
a(Vlol
p6038
g297
tp6039
a(g6038
g297
g5782
tp6040
a(g5906
g5907
tp6041
a(g5906
g5907
g624
tp6042
a(Vlol
p6043
Vnobody
p6044
tp6045
a(g6043
g6044
Vunderstands
p6046
tp6047
a(g2097
g2099
tp6048
a(g2097
g2099
g2094
tp6049
a(g1099
g5909
tp6050
a(g1099
g5909
Vway
p6051
tp6052
a(g2123
g1518
tp6053
a(g2123
g1518
Vpeople
p6054
tp6055
a(g2696
g2698
tp6056
a(g2696
g2698
g5015
tp6057
a(g5835
g5837
tp6058
a(g5835
g5837
g922
tp6059
a(g22
Vtashara
p6060
tp6061
a(g22
g6060
g4567
tp6062
a(Vlol
p6063
Vthink
p6064
tp6065
a(g6063
g6064
g3066
tp6066
a(g3259
g3261
tp6067
a(g3259
g3261
g5720
tp6068
a(g3845
g3847
tp6069
a(g3845
g3847
Vreally
p6070
tp6071
a(Vlol
p6072
Vyoure
p6073
tp6074
a(g6072
g6073
g347
tp6075
a(g2655
g2917
tp6076
a(g2655
g2917
Vlove
p6077
tp6078
a(Vlong
p6079
g5789
tp6080
a(g6079
g5789
g5790
tp6081
a(g298
g2502
tp6082
a(g5646
Vtimei
p6083
tp6084
a(g5646
g6083
g4556
tp6085
a(g2571
g2573
tp6086
a(g2571
g2573
Vlove
p6087
tp6088
a(Vlook
p6089
g1667
tp6090
a(g6089
g1667
g1422
tp6091
a(g3850
g2389
tp6092
a(g3850
g2389
g1507
tp6093
a(Vlook
p6094
g3480
tp6095
a(g6094
g3480
g3481
tp6096
a(Vlook
p6097
Vface
p6098
tp6099
a(g3304
g5905
tp6100
a(g3304
g5905
g5906
tp6101
a(g3595
g1495
tp6102
a(g3595
g1495
g5869
tp6103
a(g1109
g1110
g4691
tp6104
a(Vlooking
p6105
g4695
g4696
tp6106
a(g2293
g2295
tp6107
a(g3010
g5713
tp6108
a(g3010
g5713
g5714
tp6109
a(Vlooking
p6110
Vreason
p6111
tp6112
a(g6110
g6111
g5198
tp6113
a(g217
Vthru
p6114
tp6115
a(g217
g6114
Vsorting
p6116
tp6117
a(g2467
g5965
tp6118
a(g2467
g5965
g5966
tp6119
a(Vlot
p6120
g1863
tp6121
a(g6120
g1863
g1864
tp6122
a(g3290
g4401
tp6123
a(g3290
g4401
g4402
tp6124
a(g453
g3853
tp6125
a(g453
g3853
g683
tp6126
a(g3856
g3857
tp6127
a(g3856
g3857
g1481
tp6128
a(g3508
g3859
tp6129
a(g3508
g3859
Vtalkers
p6130
tp6131
a(g5278
g4759
tp6132
a(g5278
g4759
g4760
tp6133
a(Vlove
p6134
g1593
tp6135
a(g6134
g1593
g1594
tp6136
a(g2319
g1771
tp6137
a(g2319
g1771
g1772
tp6138
a(g1990
g1774
tp6139
a(g1990
g1774
g1775
tp6140
a(g5401
g1784
tp6141
a(g5401
g1784
g1785
tp6142
a(g2063
g1937
tp6143
a(g2063
g1937
g1938
tp6144
a(Vlove
p6145
g2069
tp6146
a(g6145
g2069
g947
tp6147
a(Vlove
p6148
Vanna
p6149
tp6150
a(Vlove
p6151
g1423
tp6152
a(g6151
g1423
g2097
tp6153
a(Vlove
p6154
g2177
tp6155
a(g6154
g2177
g2178
tp6156
a(g5711
g2252
tp6157
a(g5711
g2252
g2253
tp6158
a(g2313
g2261
tp6159
a(g2313
g2261
g2262
tp6160
a(Vlove
p6161
g2292
tp6162
a(g6161
g2292
g2293
tp6163
a(g2811
g725
g726
tp6164
a(g5775
g2372
tp6165
a(g5775
g2372
g2373
tp6166
a(Vlove
p6167
Vbackground
p6168
tp6169
a(Vlove
p6170
Vbacon
p6171
tp6172
a(Vlove
p6173
Vbeautiful
p6174
tp6175
a(Vlove
p6176
g2575
g2576
tp6177
a(g6087
g2589
g2590
tp6178
a(Vlove
p6179
g2619
tp6180
a(g6179
g2619
g2620
tp6181
a(g5714
g5715
tp6182
a(Vlove
p6183
g2700
tp6184
a(g6183
g2700
g2701
tp6185
a(g4087
Vbobby
p6186
tp6187
a(Vlove
p6188
g2788
tp6189
a(g6188
g2788
g2789
tp6190
a(g4916
g2844
tp6191
a(g4916
g2844
g2845
tp6192
a(g1802
g1803
tp6193
a(g1802
g1803
g2860
tp6194
a(g5354
g2945
tp6195
a(g5354
g2945
g1801
tp6196
a(g5529
g5531
tp6197
a(g4961
g2988
tp6198
a(g4961
g2988
g2989
tp6199
a(Vlove
p6200
Vcomputer
p6201
tp6202
a(g3233
g3235
tp6203
a(g3233
g3235
g3237
tp6204
a(g1767
g1769
tp6205
a(g1767
g1769
g3323
tp6206
a(Vlove
p6207
g3327
tp6208
a(g6207
g3327
g3328
tp6209
a(g4579
g3359
tp6210
a(g4579
g3359
g3360
tp6211
a(Vlove
p6212
g1453
tp6213
a(g6212
g1453
g3364
tp6214
a(Vlove
p6215
Vcuddles
p6216
tp6217
a(Vlove
p6218
Vcurls
p6219
tp6220
a(Vlove
p6221
g3452
tp6222
a(g6221
g3452
g3453
tp6223
a(Vlove
p6224
g3560
tp6225
a(g6224
g3560
g3561
tp6226
a(g772
g2657
tp6227
a(g772
g2657
g4175
tp6228
a(Vlove
p6229
g4282
g4283
tp6230
a(g2486
g2488
tp6231
a(g2894
g2896
tp6232
a(Vlove
p6233
g4388
tp6234
a(g6233
g4388
g668
tp6235
a(Vlove
p6236
g4395
tp6237
a(g6236
g4395
g2524
tp6238
a(g2334
g2336
tp6239
a(g2334
g2336
g4406
tp6240
a(g1726
g1728
tp6241
a(g1726
g1728
g4431
tp6242
a(g5907
g624
tp6243
a(g1879
g625
tp6244
a(g1879
g625
g4450
tp6245
a(g1116
g1117
g1914
tp6246
a(Vlove
p6247
g4465
g1482
tp6248
a(Vlove
p6249
g4508
tp6250
a(g6249
g4508
g4509
tp6251
a(g5114
g4542
tp6252
a(g5114
g4542
g3518
tp6253
a(Vlove
p6254
g627
tp6255
a(g6254
g627
g1487
tp6256
a(g1744
g1466
tp6257
a(g1693
g4473
tp6258
a(g2508
g2510
tp6259
a(g2508
g2510
g4610
tp6260
a(Vlove
p6261
g327
tp6262
a(g6261
g327
g328
tp6263
a(g5081
g4756
tp6264
a(g5081
g4756
g4757
tp6265
a(Vlove
p6266
g4854
tp6267
a(g6266
g4854
g4855
tp6268
a(Vlove
p6269
g4865
g4866
tp6270
a(g533
g534
g4870
tp6271
a(Vlove
p6272
g4873
g4874
tp6273
a(g3566
g3568
tp6274
a(g3566
g3568
g2413
tp6275
a(Vlove
p6276
g5021
tp6277
a(g6276
g5021
g5022
tp6278
a(g5362
Vguys
p6279
tp6280
a(g3067
g3069
tp6281
a(g3067
g3069
g5122
tp6282
a(g5724
g5126
tp6283
a(g5724
g5126
g5127
tp6284
a(g5718
g5174
tp6285
a(g5718
g5174
g393
tp6286
a(Vlove
p6287
g5249
tp6288
a(g6287
g5249
g1477
tp6289
a(Vlove
p6290
Vhilare
p6291
tp6292
a(g701
g1805
tp6293
a(g701
g1805
g5354
tp6294
a(Vlove
p6295
g5357
tp6296
a(g6295
g5357
g5358
tp6297
a(g941
g4261
tp6298
a(g941
g4261
g5188
tp6299
a(Vlove
p6300
g5423
tp6301
a(g6300
g5423
g2608
tp6302
a(Vlove
p6303
Vill
p6304
tp6305
a(g1396
g5510
tp6306
a(g1396
g5510
g294
tp6307
a(g4713
g5575
tp6308
a(g4713
g5575
g5576
tp6309
a(g4778
g4779
tp6310
a(g5281
g5578
tp6311
a(g5281
g5578
g5579
tp6312
a(g2339
g638
tp6313
a(g2339
g638
g5637
tp6314
a(g4353
g4618
tp6315
a(g4353
g4618
g2155
tp6316
a(Vlove
p6317
g5680
g5681
tp6318
a(Vlove
p6319
Vkisses
p6320
tp6321
a(Vlove
p6322
g5732
g5733
tp6323
a(g1270
g1488
tp6324
a(g1270
g1488
g5814
tp6325
a(Vlove
p6326
g143
tp6327
a(g6326
g143
g1754
tp6328
a(g2483
Vlifex
p6329
tp6330
a(Vlove
p6331
g1490
tp6332
a(g6331
g1490
g5993
tp6333
a(g561
Vlive
p6334
tp6335
a(g537
g22
g6060
tp6336
a(Vlove
p6337
g6072
g6073
tp6338
a(g3200
g217
tp6339
a(g3200
g217
g6114
tp6340
a(Vlove
p6341
Vlot
p6342
tp6343
a(g5108
g5110
tp6344
a(Vlove
p6345
Vlove
p6346
tp6347
a(g4970
g5145
tp6348
a(Vlove
p6349
Vmean
p6350
tp6351
a(g6349
g6350
g2770
tp6352
a(g1201
Vmeeting
p6353
tp6354
a(g1201
g6353
Vnew
p6355
tp6356
a(g594
g647
tp6357
a(g594
g647
Vsaid
p6358
tp6359
a(Vlove
p6360
Vminutes
p6361
tp6362
a(g6360
g6361
g700
tp6363
a(g1125
g1126
g684
tp6364
a(Vlove
p6365
Vmuch
p6366
g4659
tp6367
a(Vlove
p6368
Vmuch
p6369
g5165
tp6370
a(g3022
g3024
Vtalented
p6371
tp6372
a(Vlove
p6373
Vmum
p6374
tp6375
a(g4608
Vnight
p6376
tp6377
a(Vlove
p6378
Vobama
p6379
tp6380
a(Vlove
p6381
Vomg
p6382
tp6383
a(g5795
g5797
tp6384
a(g5795
g5797
Vdirection
p6385
tp6386
a(g3501
g3503
tp6387
a(g3501
g3503
Vlove
p6388
tp6389
a(Vlove
p6390
Vour
p6391
tp6392
a(g6390
g6391
g4501
tp6393
a(Vlove
p6394
Vpaying
p6395
tp6396
a(g6394
g6395
g1868
tp6397
a(g1632
Vpen
p6398
tp6399
a(g1632
g6398
Vpal
p6400
tp6401
a(Vlove
p6402
Vpeniel
p6403
tp6404
a(g6402
g6403
Vwell
p6405
tp6406
a(Vlove
p6407
Vperson
p6408
tp6409
a(g6407
g6408
g4803
tp6410
a(g1333
Vphil
p6411
tp6412
a(g1333
g6411
Vlester
p6413
tp6414
a(Vlove
p6415
Vplace
p6416
tp6417
a(Vlove
p6418
Vplaying
p6419
tp6420
a(g6418
g6419
Vpeoples
p6421
tp6422
a(g2426
g5098
tp6423
a(Vlove
p6424
Vprincess
p6425
tp6426
a(g4193
g373
tp6427
a(g4193
g373
g1435
tp6428
a(Vlove
p6429
Vquad
p6430
tp6431
a(g6429
g6430
g5438
tp6432
a(Vlove
p6433
Vranalt33
p6434
tp6435
a(Vlove
p6436
Vrays
p6437
tp6438
a(g6436
g6437
Vsunshine
p6439
tp6440
a(Vlove
p6441
Vreading
p6442
tp6443
a(g6441
g6442
Vtweets
p6444
tp6445
a(g4794
g4796
tp6446
a(g4794
g4796
g1463
tp6447
a(Vlove
p6448
Vright
p6449
tp6450
a(g6448
g6449
g4591
tp6451
a(Vlove
p6452
Vroad
p6453
tp6454
a(g6452
g6453
Vtrips
p6455
tp6456
a(g5912
g5914
tp6457
a(g5912
g5914
g1708
tp6458
a(Vlove
p6459
Vseeing
p6460
g4496
tp6461
a(g1138
g1139
Vsomeone
p6462
tp6463
a(Vlove
p6464
Vselena
p6465
Vmuch
p6466
tp6467
a(Vlove
p6468
Vsense
p6469
tp6470
a(g6468
g6469
g1448
tp6471
a(Vlove
p6472
Vserenaded
p6473
tp6474
a(Vlove
p6475
Vshanice
p6476
tp6477
a(Vlove
p6478
g1512
tp6479
a(g6478
g1512
Vloves
p6480
tp6481
a(Vlove
p6482
Vsheeran
p6483
tp6484
a(g5001
g375
tp6485
a(g5001
g375
Vmouth
p6486
tp6487
a(Vlove
p6488
Vsister
p6489
tp6490
a(g6488
g6489
Vsmiles
p6491
tp6492
a(g5040
Vsnack
p6493
tp6494
a(g5040
g6493
Vfood
p6495
tp6496
a(g2458
g377
tp6497
a(g2458
g377
g631
tp6498
a(Vlove
p6499
Vsnowballs
p6500
tp6501
a(g1899
Vsnuggled
p6502
tp6503
a(g1899
g6502
g3115
tp6504
a(g5573
g42
tp6505
a(g5573
g42
g2528
tp6506
a(Vlove
p6507
Vsong
p6508
Vhello
p6509
tp6510
a(g337
g338
Vyall
p6511
tp6512
a(g2476
g5991
g1239
tp6513
a(Vlove
p6514
Vsongs
p6515
Vtired
p6516
tp6517
a(Vlove
p6518
Vsrsly
p6519
tp6520
a(g4582
g4583
tp6521
a(g4582
g4583
Vthing
p6522
tp6523
a(g5234
g1524
tp6524
a(g5234
g1524
g1480
tp6525
a(Vlove
p6526
Vsun
p6527
tp6528
a(g3389
g3391
tp6529
a(g3389
g3391
Vlol
p6530
tp6531
a(g4360
g4362
tp6532
a(g4360
g4362
Vwolf
p6533
tp6534
a(g2360
g2361
tp6535
a(Vlove
p6536
Vthanks
p6537
tp6538
a(g6536
g6537
g1906
tp6539
a(g2617
g3383
tp6540
a(Vlove
p6541
Vtherealistt
p6542
tp6543
a(g4703
Vtherefore
p6544
tp6545
a(g4703
g6544
Vcutest
p6546
tp6547
a(g1635
g1637
tp6548
a(g1635
g1637
g2773
tp6549
a(Vlove
p6550
Vthis
p6551
tp6552
a(g6550
g6551
Vdeeep
p6553
tp6554
a(g4205
Vthooooolt3lt3lt3
p6555
tp6556
a(Vlove
p6557
Vtht
p6558
tp6559
a(g6557
g6558
g1766
tp6560
a(Vlove
p6561
Vtimes
p6562
tp6563
a(g6561
g6562
Vmama
p6564
tp6565
a(g5301
g5302
tp6566
a(g5301
g5302
g2628
tp6567
a(Vlove
p6568
Vtodaymore
p6569
tp6570
a(g6568
g6569
Vyesterdaybut
p6571
tp6572
a(Vlove
p6573
Vtrail
p6574
tp6575
a(g6573
g6574
Vnashville
p6576
tp6577
a(g1617
g1619
tp6578
a(g1617
g1619
Vpipes
p6579
tp6580
a(Vlove
p6581
Vtruckbut
p6582
tp6583
a(g6581
g6582
Vwin
p6584
tp6585
a(g325
g4585
tp6586
a(g325
g4585
g1522
tp6587
a(Vlove
p6588
Vtvd
p6589
tp6590
a(Vlove
p6591
Vvandosen
p6592
tp6593
a(g6591
g6592
Vnew
p6594
tp6595
a(Vlove
p6596
Vvidding
p6597
tp6598
a(g6596
g6597
Vcommunity
p6599
tp6600
a(Vlove
p6601
Vvisiting
p6602
tp6603
a(g6601
g6602
g364
tp6604
a(g6022
Vwant
p6605
tp6606
a(g6022
g6605
g3033
tp6607
a(Vlove
p6608
Vwatching
p6609
tp6610
a(g6608
g6609
g2444
tp6611
a(Vlove
p6612
Vway
p6613
g5844
tp6614
a(g1
g126
Vtaste
p6615
tp6616
a(Vlove
p6617
Vweeknd
p6618
tp6619
a(g6617
g6618
g634
tp6620
a(Vlove
p6621
Vwhite
p6622
tp6623
a(g6621
g6622
Vnavy
p6624
tp6625
a(Vlove
p6626
Vwife
p6627
tp6628
a(g6626
g6627
Vshe
p6629
tp6630
a(g4763
Vwish
p6631
tp6632
a(g4763
g6631
g3268
tp6633
a(g2716
g311
tp6634
a(g2716
g311
g658
tp6635
a(g1670
g1671
tp6636
a(g1670
g1671
Venvironment
p6637
tp6638
a(g5434
g5436
tp6639
a(g5434
g5436
Vtake
p6640
tp6641
a(g5026
g5028
tp6642
a(g1350
Vyaaa
p6643
tp6644
a(g3247
g4587
tp6645
a(g3247
g4587
Vconfession
p6646
tp6647
a(Vlove
p6648
Vyall
p6649
g1498
tp6650
a(g4218
Vyou
p6651
g2030
tp6652
a(Vlove
p6653
Vyou
p6654
g2369
tp6655
a(Vlove
p6656
Vyou
p6657
Vmuch13
p6658
tp6659
a(g804
g806
Vmuch15
p6660
tp6661
a(g25
g11
Vtruetalent
p6662
tp6663
a(g1924
g1926
Vwhitney
p6664
tp6665
a(g2364
g2365
tp6666
a(g5321
g5323
tp6667
a(g5321
g5323
g5669
tp6668
a(g4878
g4880
tp6669
a(g4878
g4880
g6360
tp6670
a(g416
g2367
tp6671
a(Vlove
p6672
g396
tp6673
a(g6672
g396
g221
tp6674
a(g3003
g3005
tp6675
a(g3003
g3005
g1944
tp6676
a(Vlove
p6677
g1554
tp6678
a(g6677
g1554
g672
tp6679
a(g1023
g5304
tp6680
a(g1023
g5304
g2242
tp6681
a(g4788
g4789
tp6682
a(g4788
g4789
Vefron
p6683
tp6684
a(g5120
Vlove
p6685
tp6686
a(g5120
g6685
Vmuch
p6687
tp6688
a(g2860
g2862
tp6689
a(g2860
g2862
Vbitch
p6690
tp6691
a(g6480
g6561
tp6692
a(g6480
g6561
g6562
tp6693
a(Vlovewillleadusback
p6694
g6151
tp6695
a(g6694
g6151
g1423
tp6696
a(g3209
Viloveyou
p6697
tp6698
a(g4653
Vlt3
p6699
tp6700
a(g749
g4316
tp6701
a(g4319
g4320
tp6702
a(Vlucky
p6703
g6221
tp6704
a(g6703
g6221
g3452
tp6705
a(g4939
g3388
tp6706
a(g4939
g3388
g3389
tp6707
a(Vlyns
p6708
Vlove
p6709
tp6710
a(g6708
g6709
Vmuch
p6711
tp6712
a(Vmad
p6713
g2054
tp6714
a(g6713
g2054
g2055
tp6715
a(g4676
Vthinking
p6716
tp6717
a(g4676
g6716
g4809
tp6718
a(g2009
g1149
tp6719
a(g2009
g1149
g681
tp6720
a(Vmake
p6721
g3464
tp6722
a(g6721
g3464
g3465
tp6723
a(g1163
g1164
g3801
tp6724
a(g4595
g3899
g3900
tp6725
a(Vmake
p6726
g4311
tp6727
a(g6726
g4311
g3191
tp6728
a(g4646
g4648
tp6729
a(g4646
g4648
g4903
tp6730
a(g3288
g3290
tp6731
a(g3288
g3290
g4401
tp6732
a(g5465
g5467
tp6733
a(g5465
g5467
Vyou
p6734
tp6735
a(g41
g2965
tp6736
a(g41
g2965
Vaau
p6737
tp6738
a(g4901
g653
tp6739
a(g4901
g653
Vwait
p6740
tp6741
a(g1647
g1649
tp6742
a(g1647
g1649
g4094
tp6743
a(Vmake
p6744
Vupset
p6745
tp6746
a(g6744
g6745
g1544
tp6747
a(Vmake
p6748
Vyou
p6749
tp6750
a(g6748
g6749
Vwant
p6751
tp6752
a(g5260
g3342
tp6753
a(g5260
g3342
g3343
tp6754
a(Vmakes
p6755
g4550
tp6756
a(g6755
g4550
g4551
tp6757
a(g187
g5157
tp6758
a(g187
g5157
g5159
tp6759
a(g1929
g639
tp6760
a(g1929
g639
g1085
tp6761
a(g3862
g3864
tp6762
a(g3862
g3864
Vseem
p6763
tp6764
a(g2989
g2991
tp6765
a(g2989
g2991
Vway
p6766
tp6767
a(g5152
Vwant
p6768
tp6769
a(g5152
g6768
Vthrow
p6770
tp6771
a(Vmakeupyourmind
p6772
g4575
tp6773
a(g6772
g4575
g4576
tp6774
a(Vmaking
p6775
g3714
tp6776
a(g6775
g3714
g3715
tp6777
a(Vmaking
p6778
Vwoman
p6779
tp6780
a(g6778
g6779
g123
tp6781
a(g3866
g3868
tp6782
a(g3866
g3868
Vlife
p6783
tp6784
a(g1493
g6744
tp6785
a(g1493
g6744
g6745
tp6786
a(g6564
Vtimes
p6787
tp6788
a(g3590
g3592
tp6789
a(g3590
g3592
g1932
tp6790
a(g645
g145
tp6791
a(g645
g145
g600
tp6792
a(g5567
g3987
tp6793
a(g5567
g3987
g3988
tp6794
a(g4509
g1204
tp6795
a(g4509
g1204
g1205
tp6796
a(Vmann
p6797
g6179
tp6798
a(g6797
g6179
g2619
tp6799
a(g3871
g1509
tp6800
a(g1973
g1975
tp6801
a(g1973
g1975
Vlove
p6802
tp6803
a(g5470
g1515
tp6804
a(g5470
g1515
Vyouu
p6805
tp6806
a(g3556
g3558
tp6807
a(g3556
g3558
g5961
tp6808
a(g5341
g5593
tp6809
a(g5341
g5593
g3505
tp6810
a(g3107
g3109
tp6811
a(g3107
g3109
Vlove
p6812
tp6813
a(g3340
g1894
tp6814
a(g3340
g1894
g1895
tp6815
a(g1494
g3340
tp6816
a(g1494
g3340
g1894
tp6817
a(Vmeal
p6818
Vdislike
p6819
tp6820
a(g6350
g2770
tp6821
a(g6350
g2770
g2771
tp6822
a(g2107
g4180
tp6823
a(g2107
g4180
g4181
tp6824
a(g3264
g3266
tp6825
a(g3264
g3266
Vdislike
p6826
tp6827
a(g5210
g5917
tp6828
a(g5210
g5917
Vdislike
p6829
tp6830
a(g1495
g5869
tp6831
a(g1495
g5869
g3263
tp6832
a(Vmeans
p6833
Vmuch
p6834
tp6835
a(g4651
g4653
tp6836
a(g4651
g4653
g6699
tp6837
a(Vmeet
p6838
Vsomeone
p6839
tp6840
a(g6838
g6839
Vtheress
p6841
tp6842
a(g6353
g6355
tp6843
a(g6353
g6355
Vpeople
p6844
tp6845
a(g4656
g2594
tp6846
a(g4656
g2594
g1459
tp6847
a(g4599
g4601
tp6848
a(g4599
g4601
g6224
tp6849
a(g5659
g1608
tp6850
a(g5659
g1608
g1609
tp6851
a(Vmesnino
p6852
g6261
tp6853
a(g6852
g6261
g327
tp6854
a(Vmessages
p6855
Vread
p6856
tp6857
a(g6855
g6856
Vold
p6858
tp6859
a(g3231
g5278
tp6860
a(g3231
g5278
g4759
tp6861
a(g1496
g4608
tp6862
a(g1496
g4608
g6376
tp6863
a(g5948
Vthen
p6864
tp6865
a(g5948
g6864
Vreally
p6866
tp6867
a(g3874
g3876
tp6868
a(g3874
g3876
g3412
tp6869
a(Vmichael
p6870
g4545
tp6871
a(g6870
g4545
g3092
tp6872
a(g1497
Vlove
p6873
tp6874
a(g3878
g3880
tp6875
a(g3878
g3880
g2938
tp6876
a(g2854
g2856
tp6877
a(g2854
g2856
g4679
tp6878
a(g3036
Vashamed
p6879
tp6880
a(Vmight
p6881
g4824
tp6882
a(g6881
g4824
g4825
tp6883
a(g647
g6358
tp6884
a(g647
g6358
Vthings
p6885
tp6886
a(g2133
Vpleaseeeee
p6887
tp6888
a(g2133
g6887
g1460
tp6889
a(g2965
g6737
tp6890
a(g4264
g4266
tp6891
a(g4264
g4266
g4230
tp6892
a(Vminded
p6893
g208
tp6894
a(g6893
g208
g302
tp6895
a(g4833
g4835
tp6896
a(g4833
g4835
Vwhatever
p6897
tp6898
a(g5622
g2042
tp6899
a(g5622
g2042
g2043
tp6900
a(g6361
g700
tp6901
a(g6361
g700
g701
tp6902
a(Vmiracle
p6903
g3861
tp6904
a(g6903
g3861
g3862
tp6905
a(g3124
g3126
tp6906
a(g3124
g3126
g5108
tp6907
a(g2264
g4729
tp6908
a(g371
g3488
tp6909
a(g371
g3488
g293
tp6910
a(g1126
g684
tp6911
a(g1126
g684
Vsoooo
p6912
tp6913
a(g3842
g6007
tp6914
a(g3842
g6007
g1527
tp6915
a(Vmom
p6916
Vright
p6917
Vnowbeyond
p6918
tp6919
a(g2283
g2285
tp6920
a(g2283
g2285
g4034
tp6921
a(g3882
g3884
tp6922
a(g3887
g3889
tp6923
a(g3887
g3889
Vshemars
p6924
tp6925
a(g5767
g6557
tp6926
a(g5767
g6557
g6558
tp6927
a(g5589
g2072
tp6928
a(g5589
g2072
g2073
tp6929
a(g1498
Vback
p6930
tp6931
a(Vmorals
p6932
g3133
tp6933
a(g6932
g3133
g2145
tp6934
a(g3892
g3894
tp6935
a(g648
Vpeople
p6936
tp6937
a(g648
g6936
g669
tp6938
a(g1153
Vyour
p6939
tp6940
a(g1153
g6939
g1678
tp6941
a(Vmorning
p6942
g2191
tp6943
a(g6942
g2191
g1621
tp6944
a(g5579
g5581
tp6945
a(g5579
g5581
Vmuch
p6946
tp6947
a(g2245
g353
tp6948
a(g4615
g1427
tp6949
a(g4615
g1427
g2220
tp6950
a(g1817
g4565
tp6951
a(g6
g166
tp6952
a(g6
g166
g2967
tp6953
a(g5441
g3418
tp6954
a(g5441
g3418
g361
tp6955
a(Vmuch
p6956
g3635
g2452
tp6957
a(g5749
g3664
g3665
tp6958
a(g1360
g443
g170
tp6959
a(g1321
g1323
g3882
tp6960
a(Vmuch
p6961
g3930
g3931
tp6962
a(Vmuch
p6963
g4084
g4085
tp6964
a(g3429
g3431
tp6965
a(g3429
g3431
g1418
tp6966
a(g6366
g4659
tp6967
a(g6366
g4659
g4660
tp6968
a(g5548
g1473
tp6969
a(g5548
g1473
g4794
tp6970
a(g6369
g5165
tp6971
a(g6369
g5165
g5166
tp6972
a(g3900
g3901
tp6973
a(g3900
g3901
g5525
tp6974
a(Vmuch
p6975
g6145
g2069
tp6976
a(g5449
g1155
g1156
tp6977
a(g6946
Vmovies
p6978
tp6979
a(g2116
g3903
tp6980
a(g2116
g3903
Veither
p6981
tp6982
a(Vmuch
p6983
Vplease
p6984
g3179
tp6985
a(g1129
g1130
g4631
tp6986
a(Vmuch
p6987
g1511
tp6988
a(g6987
g1511
Vvegetarians
p6989
tp6990
a(g3906
g3907
tp6991
a(g3906
g3907
Vconsacboauyz
p6992
tp6993
a(g6466
Vsays
p6994
tp6995
a(g6466
g6994
g6317
tp6996
a(g3024
g6371
tp6997
a(g3024
g6371
Vplease
p6998
tp6999
a(g2830
g2832
tp7000
a(g2830
g2832
g2161
tp7001
a(g3910
g3911
tp7002
a(g1157
Vwould
p7003
tp7004
a(g1157
g7003
g3223
tp7005
a(g3914
g3915
tp7006
a(g4731
g4733
tp7007
a(g3981
g2022
tp7008
a(g3981
g2022
g2023
tp7009
a(g4122
Vdontgetit
p7010
tp7011
a(Vmusic
p7012
Voffice
p7013
tp7014
a(g7012
g7013
g1669
tp7015
a(g4364
g4366
tp7016
a(g4364
g4366
g5360
tp7017
a(g3918
g3522
tp7018
a(g3918
g3522
g1858
tp7019
a(Vmyheartishis
p7020
g6063
tp7021
a(g7020
g6063
g6064
tp7022
a(Vnaaaah
p7023
Vdislike
p7024
tp7025
a(g1500
g5346
tp7026
a(g1500
g5346
g5347
tp7027
a(g4249
g5724
tp7028
a(g4249
g5724
g5126
tp7029
a(g5258
g5260
tp7030
a(g5258
g5260
g3342
tp7031
a(g650
Vsayy
p7032
tp7033
a(g650
g7032
Vnamewhen
p7034
tp7035
a(Vnamedonika
p7036
g4460
tp7037
a(g7036
g4460
g1432
tp7038
a(g2920
g2922
tp7039
a(g2920
g2922
g3992
tp7040
a(g7034
Vone
p7041
tp7042
a(g7034
g7041
g2201
tp7043
a(g6576
Vtrails
p7044
tp7045
a(g6576
g7044
g5801
tp7046
a(g6624
Vuniform
p7047
tp7048
a(g6624
g7047
Vhot
p7049
tp7050
a(g1501
g3615
tp7051
a(g1501
g3615
g1822
tp7052
a(g4558
g5920
tp7053
a(g5939
g4051
tp7054
a(g5939
g4051
g4052
tp7055
a(g189
g4967
tp7056
a(g189
g4967
g4968
tp7057
a(g5571
g5573
tp7058
a(g5571
g5573
g42
tp7059
a(Vnever
p7060
Vproblems
p7061
tp7062
a(g7060
g7061
g2118
tp7063
a(g2899
g2901
tp7064
a(g2899
g2901
Vfuck
p7065
tp7066
a(g3064
g305
tp7067
a(g3064
g305
g146
tp7068
a(Vnever
p7069
Vwouldve
p7070
tp7071
a(g7069
g7070
g1486
tp7072
a(g158
g2820
tp7073
a(g158
g2820
g2821
tp7074
a(g6594
Vcarre
p7075
tp7076
a(Vnew
p7077
g4705
tp7078
a(g7077
g4705
g4706
tp7079
a(g4711
g4713
tp7080
a(g4711
g4713
g5575
tp7081
a(g6355
g6844
tp7082
a(g6355
g6844
g5891
tp7083
a(g5309
Vsingle
p7084
tp7085
a(g5309
g7084
g5433
tp7086
a(g915
g1192
g6024
tp7087
a(g3923
g388
tp7088
a(g5462
g5842
tp7089
a(g5462
g5842
Vtrying
p7090
tp7091
a(g3459
Vshow
p7092
tp7093
a(g3459
g7092
Vlove
p7094
tp7095
a(Vnice
p7096
Vstoriesu
p7097
tp7098
a(g7096
g7097
Vone
p7099
tp7100
a(g652
Vway
p7101
tp7102
a(g652
g7101
g5834
tp7103
a(g2280
g4700
tp7104
a(g2280
g4700
g4701
tp7105
a(g5515
g5517
tp7106
a(g5515
g5517
g5600
tp7107
a(Vnicobarcia
p7108
g5882
tp7109
a(g7108
g5882
g4375
tp7110
a(Vnicolebarts
p7111
g6870
tp7112
a(g7111
g6870
g4545
tp7113
a(g2622
g3258
tp7114
a(g2622
g3258
g3259
tp7115
a(g3926
g3928
tp7116
a(g3926
g3928
g5674
tp7117
a(g653
g6740
tp7118
a(g653
g6740
Vsex
p7119
tp7120
a(g654
g1940
tp7121
a(g654
g1940
g1941
tp7122
a(g3211
g3182
tp7123
a(g3211
g3182
g3183
tp7124
a(Vniggas
p7125
Vignorant
p7126
tp7127
a(g3315
g3317
tp7128
a(g5092
g6094
tp7129
a(g5092
g6094
g3480
tp7130
a(g2431
g4323
tp7131
a(g300
g4997
tp7132
a(g300
g4997
g6368
tp7133
a(g3931
g3933
tp7134
a(g3931
g3933
g5239
tp7135
a(g219
g1833
tp7136
a(g219
g1833
g5042
tp7137
a(g6044
g6046
tp7138
a(g6044
g6046
Vmuch
p7139
tp7140
a(Vnolan
p7141
Vwould
p7142
tp7143
a(g7141
g7142
g5147
tp7144
a(g3936
g3938
tp7145
a(g3936
g3938
g1761
tp7146
a(g4972
g4974
tp7147
a(g4972
g4974
Vbut
p7148
tp7149
a(Vnope
p7150
g6161
tp7151
a(g7150
g6161
g2292
tp7152
a(Vnormal
p7153
g1548
tp7154
a(g7153
g1548
g1504
tp7155
a(g3285
g6110
tp7156
a(g3285
g6110
g6111
tp7157
a(g655
g5689
tp7158
a(g2706
g673
tp7159
a(g2706
g673
g5485
tp7160
a(g4857
Vbetter
p7161
tp7162
a(g220
g3207
tp7163
a(g220
g3207
g1536
tp7164
a(g1869
g1871
tp7165
a(g1869
g1871
g4849
tp7166
a(g173
g2998
tp7167
a(g173
g2998
g2999
tp7168
a(Vnotice
p7169
g3018
tp7170
a(g7169
g3018
g3019
tp7171
a(g4837
g1077
tp7172
a(g4837
g1077
g189
tp7173
a(g1849
g1851
tp7174
a(g1849
g1851
g6726
tp7175
a(Vnotice
p7176
Vthanks
p7177
tp7178
a(g6918
Vdislike
p7179
tp7180
a(g5997
Vswear
p7181
tp7182
a(g5997
g7181
g7125
tp7183
a(g4929
g4931
tp7184
a(g4929
g4931
g2229
tp7185
a(Vnwilling
p7186
Vlove
p7187
tp7188
a(g7186
g7187
Vhoney
p7189
tp7190
a(g2558
g392
tp7191
a(g2558
g392
g1521
tp7192
a(g7013
g1669
tp7193
a(g7013
g1669
g1670
tp7194
a(g5923
g5925
tp7195
a(g5923
g5925
g3835
tp7196
a(g1502
Vsir
p7197
tp7198
a(g1502
g7197
Vtake
p7199
tp7200
a(g3481
g3483
tp7201
a(g5552
g5554
tp7202
a(g5552
g5554
Vsorry
p7203
tp7204
a(g1240
g6855
tp7205
a(g1240
g6855
g6856
tp7206
a(g6858
Vstatuses
p7207
tp7208
a(g6858
g7207
Vtweets
p7209
tp7210
a(g2099
g2094
tp7211
a(g2099
g2094
g2095
tp7212
a(g1200
g1201
g6353
tp7213
a(Vomg
p7214
g6464
g6465
tp7215
a(Vomg
p7216
g1513
tp7217
a(g7216
g1513
g4783
tp7218
a(g7041
g2201
tp7219
a(g7041
g2201
g2202
tp7220
a(Vone
p7221
g2544
tp7222
a(g7221
g2544
g2545
tp7223
a(g4431
g2598
g2599
tp7224
a(Vone
p7225
g3002
tp7226
a(g7225
g3002
g3003
tp7227
a(g5371
g3043
tp7228
a(g5371
g3043
g3044
tp7229
a(g1204
g1205
g3443
tp7230
a(g3990
g3447
g3448
tp7231
a(Vone
p7232
g3579
g3164
tp7233
a(g17
g880
g3582
tp7234
a(g1208
g622
g3584
tp7235
a(g3941
g3942
tp7236
a(g7099
g4947
tp7237
a(g7099
g4947
g4948
tp7238
a(Vone
p7239
g5648
tp7240
a(g7239
g5648
g5649
tp7241
a(g3098
g3100
tp7242
a(g3098
g3100
Vlove
p7243
tp7244
a(g560
g561
g6334
tp7245
a(g5809
g5811
Vyou
p7246
tp7247
a(g4371
g6818
tp7248
a(g4371
g6818
g6819
tp7249
a(Vone
p7250
Vpicses
p7251
tp7252
a(g7250
g7251
g3925
tp7253
a(Vone
p7254
Vreasons
p7255
tp7256
a(g7254
g7255
Vlove
p7257
tp7258
a(g1210
g1211
g6236
tp7259
a(Vone
p7260
Vthing
p7261
g6903
tp7262
a(Vone
p7263
g1359
tp7264
a(g7263
g1359
g1360
tp7265
a(g4216
g4218
tp7266
a(g4216
g4218
g6651
tp7267
a(g4142
g1730
tp7268
a(g4142
g1730
g1731
tp7269
a(Vopen
p7270
g6893
tp7271
a(g7270
g6893
g208
tp7272
a(g2153
Vteamdroid
p7273
tp7274
a(Vopinion
p7275
g1959
tp7276
a(g7275
g1959
g1960
tp7277
a(Vorder
p7278
g1505
tp7279
a(g7278
g1505
Vyouget
p7280
tp7281
a(g3889
g6924
tp7282
a(g3889
g6924
g5894
tp7283
a(g1627
g4676
tp7284
a(g1627
g4676
g6716
tp7285
a(g4978
g6415
tp7286
a(g4978
g6415
g6416
tp7287
a(g3503
g6388
tp7288
a(g3503
g6388
Vbaby
p7289
tp7290
a(g6391
g4501
tp7291
a(g6391
g4501
g4502
tp7292
a(g2800
g2802
tp7293
a(g2800
g2802
g4364
tp7294
a(g4467
g5375
tp7295
a(g5159
g3612
tp7296
a(g5159
g3612
g3613
tp7297
a(g4355
g4357
tp7298
a(Vpagipagi
p7299
g1426
tp7300
a(g7299
g1426
g2173
tp7301
a(g4870
g4420
tp7302
a(g4870
g4420
g4421
tp7303
a(g4753
g2603
tp7304
a(g4753
g2603
g2604
tp7305
a(g6400
g1964
tp7306
a(g6400
g1964
g1965
tp7307
a(Vpanties
p7308
Vteeth
p7309
tp7310
a(g7308
g7309
g1992
tp7311
a(g1504
Vreally
p7312
tp7313
a(g1504
g7312
g4144
tp7314
a(g5643
g3461
tp7315
a(g5643
g3461
g1819
tp7316
a(Vparents
p7317
g5382
tp7318
a(g7317
g5382
g5383
tp7319
a(Vpark
p7320
g4025
tp7321
a(g7320
g4025
g4026
tp7322
a(Vparking
p7323
g6120
tp7324
a(g7323
g6120
g1863
tp7325
a(Vpart
p7326
Vsum
p7327
tp7328
a(g7326
g7327
g6319
tp7329
a(g1623
g2267
tp7330
a(g1623
g2267
g2313
tp7331
a(g5498
g440
tp7332
a(g5498
g440
g441
tp7333
a(g6395
g1868
tp7334
a(g6395
g1868
g1869
tp7335
a(g1505
g7280
tp7336
a(g1505
g7280
g2209
tp7337
a(g3947
g3949
tp7338
a(g3947
g3949
g2839
tp7339
a(g6398
g6400
tp7340
a(g6398
g6400
g1964
tp7341
a(g6403
g6405
tp7342
a(g6403
g6405
g5284
tp7343
a(g3733
g1711
tp7344
a(g3733
g1711
g1712
tp7345
a(g6054
g2077
tp7346
a(g6054
g2077
g2078
tp7347
a(g4436
g2085
tp7348
a(g4436
g2085
g1101
tp7349
a(g5219
g2919
tp7350
a(g5219
g2919
g2920
tp7351
a(g5729
g2978
tp7352
a(g5729
g2978
g2979
tp7353
a(g1102
g3118
tp7354
a(g1102
g3118
g3119
tp7355
a(g885
g886
g1725
tp7356
a(Vpeople
p7357
g3775
g3776
tp7358
a(g5925
g3835
g3836
tp7359
a(g4239
g3840
g1491
tp7360
a(g4280
g3978
g3979
tp7361
a(g1649
g4094
g4095
tp7362
a(g3276
g4110
g1534
tp7363
a(g3903
g6981
tp7364
a(g5138
g4417
tp7365
a(g5138
g4417
g4418
tp7366
a(g3952
g3953
tp7367
a(g3952
g3953
g4929
tp7368
a(g1008
g5221
tp7369
a(g1008
g5221
g5236
tp7370
a(g3857
g1481
tp7371
a(g3956
g1483
tp7372
a(g3956
g1483
g4884
tp7373
a(g6844
g5891
g5137
tp7374
a(g4601
g6224
g3560
tp7375
a(g4997
g6368
g6369
tp7376
a(g5101
g5103
tp7377
a(g5101
g5103
Vpic
p7378
tp7379
a(g3959
g3960
tp7380
a(g3959
g3960
g6932
tp7381
a(g2512
g2514
tp7382
a(g2512
g2514
g4063
tp7383
a(g3963
g3964
tp7384
a(g3963
g3964
g5327
tp7385
a(g6936
g669
tp7386
a(g6936
g669
g5212
tp7387
a(g5328
g5330
tp7388
a(g5328
g5330
Vspanish
p7389
tp7390
a(g5930
g1528
tp7391
a(g5930
g1528
Vcorylcfbnhn8
p7392
tp7393
a(g29
g382
tp7394
a(g29
g382
g2393
tp7395
a(Vpeople
p7396
Vthink
p7397
g2549
tp7398
a(g282
g58
g1533
tp7399
a(g3968
g3969
tp7400
a(g3968
g3969
Vteach
p7401
tp7402
a(g3972
g3973
tp7403
a(g3972
g3973
g1492
tp7404
a(g3976
g1543
tp7405
a(g3976
g1543
g386
tp7406
a(g6421
g1479
tp7407
a(Vperfect
p7408
g5181
tp7409
a(g7408
g5181
g4683
tp7410
a(g3979
g3981
tp7411
a(g3979
g3981
g2022
tp7412
a(g658
g176
tp7413
a(g658
g176
g1827
tp7414
a(g898
g2864
tp7415
a(g898
g2864
g2865
tp7416
a(g6408
g4803
tp7417
a(g6408
g4803
g4804
tp7418
a(g2562
g2564
tp7419
a(g3984
g3985
tp7420
a(g159
g5498
tp7421
a(g159
g5498
g440
tp7422
a(g4092
g1510
tp7423
a(g4092
g1510
Vshit
p7424
tp7425
a(g4470
g4798
tp7426
a(g4470
g4798
g4799
tp7427
a(g4053
Vshit
p7428
tp7429
a(Vpewdie
p7430
g169
tp7431
a(g7430
g169
g195
tp7432
a(g4493
g43
tp7433
a(g4493
g43
g2009
tp7434
a(g6411
g6413
tp7435
a(g3090
Vtigers
p7436
tp7437
a(g3090
g7436
g2778
tp7438
a(Vphoto
p7439
g6694
tp7440
a(g7439
g6694
g6151
tp7441
a(g7378
Vtweet
p7442
tp7443
a(g7378
g7442
Vsomething
p7444
tp7445
a(g2406
g2034
tp7446
a(g2406
g2034
g2035
tp7447
a(g7251
g3925
tp7448
a(g7251
g3925
g3926
tp7449
a(g3988
g3990
tp7450
a(g3988
g3990
g3447
tp7451
a(g1506
Vpretty
p7452
tp7453
a(g1506
g7452
g6218
tp7454
a(g1507
g2391
tp7455
a(g1507
g2391
g3306
tp7456
a(g2465
g2467
tp7457
a(g2465
g2467
g5965
tp7458
a(g1777
g1038
tp7459
a(g1777
g1038
g1039
tp7460
a(g6579
g5315
tp7461
a(g6579
g5315
g153
tp7462
a(g2273
g2275
tp7463
a(g659
g3913
tp7464
a(g659
g3913
g3914
tp7465
a(g5247
g4723
tp7466
a(g5247
g4723
g4724
tp7467
a(g1859
g1861
tp7468
a(g1859
g1861
g3426
tp7469
a(g4158
g3015
tp7470
a(g4158
g3015
g3016
tp7471
a(g3864
g6763
tp7472
a(g3864
g6763
g5863
tp7473
a(g6419
g6421
tp7474
a(g6419
g6421
g1479
tp7475
a(g4660
g4661
tp7476
a(g6984
g3179
tp7477
a(g6984
g3179
g2794
tp7478
a(g14
g3345
tp7479
a(g14
g3345
g7
tp7480
a(g1130
g4631
g4632
tp7481
a(g340
g341
g1444
tp7482
a(g6998
g4650
g4651
tp7483
a(Vplease
p7484
g4655
g4656
tp7485
a(g1851
g6726
tp7486
a(g1851
g6726
g4311
tp7487
a(g2649
g39
tp7488
a(g2649
g39
g1270
tp7489
a(Vplease
p7490
Vselect
p7491
tp7492
a(g7490
g7491
g7096
tp7493
a(Vplease
p7494
Vsweetie
p7495
tp7496
a(g7494
g7495
g4645
tp7497
a(Vplease
p7498
Vtweet
p7499
tp7500
a(g7498
g7499
Vwish
p7501
tp7502
a(Vpleaseeee
p7503
Vpleeeaaase
p7504
tp7505
a(g7503
g7504
g7498
tp7506
a(g6887
g1460
tp7507
a(g6887
g1460
g4355
tp7508
a(g7504
g7498
tp7509
a(g7504
g7498
g7499
tp7510
a(g1706
g2755
tp7511
a(g1706
g2755
g2756
tp7512
a(g301
g1808
tp7513
a(Vpoetic
p7514
g5631
tp7515
a(g7514
g5631
g3728
tp7516
a(g2542
Vhead
p7517
tp7518
a(g3310
g3312
tp7519
a(g3310
g3312
g6183
tp7520
a(g5223
g5225
tp7521
a(g5223
g5225
g5537
tp7522
a(g4289
g4926
tp7523
a(g4289
g4926
g4927
tp7524
a(Vprbly
p7525
g165
tp7526
a(g7525
g165
g2558
tp7527
a(g3992
g3994
tp7528
a(g3992
g3994
g4933
tp7529
a(g7452
g6218
tp7530
a(g7452
g6218
g6219
tp7531
a(g1508
g14
tp7532
a(g1508
g14
g3345
tp7533
a(g1866
g6775
tp7534
a(g1866
g6775
g3714
tp7535
a(g2786
g3997
tp7536
a(g2786
g3997
Vtom
p7537
tp7538
a(g5385
g3905
tp7539
a(g5385
g3905
g3906
tp7540
a(g7061
g2118
tp7541
a(g7061
g2118
g2119
tp7542
a(Vprobz
p7543
g226
tp7544
a(g7543
g226
g1625
tp7545
a(g2151
g2153
tp7546
a(g2151
g2153
g7273
tp7547
a(g2013
g2015
tp7548
a(g2013
g2015
g2101
tp7549
a(g3526
g2186
tp7550
a(g3526
g2186
g2187
tp7551
a(g5431
g1438
tp7552
a(g5431
g1438
g1416
tp7553
a(g3226
g2232
tp7554
a(g3226
g2232
g2233
tp7555
a(g5229
g6772
tp7556
a(g5229
g6772
g4575
tp7557
a(g2491
g2493
tp7558
a(g2491
g2493
g3723
tp7559
a(g373
g1435
tp7560
a(g373
g1435
g2742
tp7561
a(Vput
p7562
g2848
tp7563
a(g7562
g2848
g2849
tp7564
a(g5103
g7378
tp7565
a(g5103
g7378
g7442
tp7566
a(g5909
g6051
tp7567
a(g5909
g6051
g190
tp7568
a(g6430
g5438
tp7569
a(g6430
g5438
g5439
tp7570
a(Vqueen
p7571
g2323
tp7572
a(g7571
g2323
g2324
tp7573
a(g660
g296
tp7574
a(g660
g296
g1796
tp7575
a(g3112
g1128
tp7576
a(g3112
g1128
g1129
tp7577
a(g4285
g2539
tp7578
a(g4285
g2539
g2540
tp7579
a(g3960
g6932
tp7580
a(g3960
g6932
g3133
tp7581
a(g4000
g4002
tp7582
a(g4000
g4002
g636
tp7583
a(g3794
g5414
tp7584
a(g3794
g5414
g4435
tp7585
a(g5993
g5563
tp7586
a(g5993
g5563
g4603
tp7587
a(Vrae
p7588
g6472
tp7589
a(g7588
g6472
g6473
tp7590
a(g4266
g4230
tp7591
a(g4266
g4230
g4039
tp7592
a(g2220
g2222
tp7593
a(g2220
g2222
g3457
tp7594
a(Vrajebonita
p7595
Vsware
p7596
tp7597
a(g7595
g7596
Vugly
p7598
tp7599
a(g5488
g4347
tp7600
a(g5488
g4347
g4348
tp7601
a(g2007
g5779
tp7602
a(g1704
g1706
tp7603
a(g1704
g1706
g2755
tp7604
a(g5037
g1651
tp7605
a(g5037
g1651
g1514
tp7606
a(g4933
g4935
tp7607
a(g2207
Vwood
p7608
tp7609
a(g2207
g7608
g2764
tp7610
a(g6437
g6439
tp7611
a(g6437
g6439
Vphotos
p7612
tp7613
a(g302
g2091
tp7614
a(g302
g2091
g1379
tp7615
a(g1239
g1240
g6855
tp7616
a(g6856
g6858
g7207
tp7617
a(g5733
g5735
tp7618
a(g5733
g5735
g5252
tp7619
a(g2043
g2045
tp7620
a(g2043
g2045
Vstory
p7621
tp7622
a(g6442
g6444
tp7623
a(g6442
g6444
g1901
tp7624
a(g1510
g7424
tp7625
a(g1510
g7424
g2017
tp7626
a(g3254
g4763
tp7627
a(g3254
g4763
g6631
tp7628
a(Vreallly
p7629
Vdislike
p7630
tp7631
a(g7629
g7630
Vpeople
p7632
tp7633
a(Vreally
p7634
g2683
tp7635
a(g7634
g2683
g2684
tp7636
a(g474
g3620
g56
tp7637
a(g5559
g3629
g2272
tp7638
a(Vreally
p7639
g3646
g2659
tp7640
a(Vreally
p7641
g3678
g3202
tp7642
a(g4
g9
g3686
tp7643
a(Vreally
p7644
g3688
g3407
tp7645
a(Vreally
p7646
g3718
g3719
tp7647
a(Vreally
p7648
g842
g843
tp7649
a(Vreally
p7650
g3735
g3736
tp7651
a(g5335
g5337
Vguy
p7652
tp7653
a(Vreally
p7654
g3780
g3781
tp7655
a(Vreally
p7656
g3812
g3813
tp7657
a(Vreally
p7658
g3817
g3818
tp7659
a(g3470
g449
g450
tp7660
a(Vreally
p7661
g452
g453
tp7662
a(Vreally
p7663
g3917
g3918
tp7664
a(g2514
g4063
g4064
tp7665
a(Vreally
p7666
g4116
g4117
tp7667
a(g2496
g2498
g4129
tp7668
a(g7312
g4144
g4145
tp7669
a(Vreally
p7670
g4155
g4156
tp7671
a(Vreally
p7672
g4170
g4171
tp7673
a(Vreally
p7674
g4254
tp7675
a(g7674
g4254
g4255
tp7676
a(Vreally
p7677
g5218
tp7678
a(g7677
g5218
g5219
tp7679
a(g2253
g2255
tp7680
a(Vreally
p7681
g5950
g5951
tp7682
a(Vreally
p7683
g7060
tp7684
a(g7683
g7060
g7061
tp7685
a(Vreally
p7686
Vsalt
p7687
tp7688
a(g7686
g7687
Vwhole
p7689
tp7690
a(g4004
g4006
tp7691
a(g4004
g4006
g5257
tp7692
a(Vreally
p7693
Vstrongly
p7694
tp7695
a(g7693
g7694
g3681
tp7696
a(g6866
Vunderstood
p7697
tp7698
a(g6866
g7697
g5874
tp7699
a(g6070
Vwierd
p7700
tp7701
a(g6111
g5198
tp7702
a(g6111
g5198
g3295
tp7703
a(g2797
Vsmile
p7704
tp7705
a(Vrecently
p7706
g4715
tp7707
a(g7706
g4715
g4716
tp7708
a(g3312
g6183
tp7709
a(g3312
g6183
g2700
tp7710
a(g3964
g5327
tp7711
a(g3964
g5327
g5328
tp7712
a(g1747
g1749
tp7713
a(Vrefuse
p7714
g352
tp7715
a(g7714
g352
g2512
tp7716
a(g5790
g5792
tp7717
a(g5790
g5792
Vsupport
p7718
tp7719
a(g5968
Vtime
p7720
tp7721
a(g5968
g7720
g6436
tp7722
a(g5307
g5309
tp7723
a(g5307
g5309
g7084
tp7724
a(Vremember
p7725
g1873
tp7726
a(g7725
g1873
g1874
tp7727
a(g304
g2049
tp7728
a(g304
g2049
g2804
tp7729
a(Vremember
p7730
g6448
tp7731
a(g7730
g6448
g6449
tp7732
a(g4269
g4271
tp7733
a(Vremember
p7734
Vtime
p7735
tp7736
a(g7734
g7735
g1553
tp7737
a(g5637
g1441
tp7738
a(g5637
g1441
g360
tp7739
a(g2434
g2436
tp7740
a(g2434
g2436
g2882
tp7741
a(g2967
g626
tp7742
a(g2967
g626
g4483
tp7743
a(Vrespect
p7744
g4898
tp7745
a(g7744
g4898
g4899
tp7746
a(g1511
g6989
tp7747
a(g1511
g6989
g6975
tp7748
a(Vretweet
p7749
Vthis
p7750
tp7751
a(g7749
g7750
g2012
tp7752
a(g4796
g1463
tp7753
a(g2075
g2207
tp7754
a(g2075
g2207
g7608
tp7755
a(g4009
g1455
tp7756
a(g4009
g1455
g3401
tp7757
a(g4845
g4847
tp7758
a(g2934
g2936
tp7759
a(g3907
g6992
tp7760
a(g3215
g3217
tp7761
a(g3215
g3217
g3422
tp7762
a(g6449
g4591
tp7763
a(g6449
g4591
g2973
tp7764
a(Vright
p7765
g5878
tp7766
a(g7765
g5878
g920
tp7767
a(g6917
g6918
tp7768
a(g6917
g6918
g7179
tp7769
a(g3362
g5997
tp7770
a(g3362
g5997
g7181
tp7771
a(g36
g7525
tp7772
a(g36
g7525
g165
tp7773
a(g5383
g5385
tp7774
a(g5383
g5385
g3905
tp7775
a(g4132
Vwingers
p7776
tp7777
a(g6453
g6455
tp7778
a(Vroh
p7779
g379
tp7780
a(g7779
g379
g6653
tp7781
a(Vroll
p7782
g4537
tp7783
a(g7782
g4537
g4538
tp7784
a(g5292
Vagreed
p7785
tp7786
a(g6001
g168
tp7787
a(g6001
g168
g3441
tp7788
a(g1933
g1935
tp7789
a(g3039
g3041
tp7790
a(g3039
g3041
g2738
tp7791
a(g4518
Vvzwbuzz
p7792
tp7793
a(g190
g619
tp7794
a(g190
g619
g674
tp7795
a(g2901
g7065
tp7796
a(g2631
g5808
tp7797
a(g2631
g5808
g5809
tp7798
a(g2517
g2519
tp7799
a(g5641
g5643
tp7800
a(g5641
g5643
g3461
tp7801
a(g5554
g7203
tp7802
a(g5554
g7203
Vstill
p7803
tp7804
a(g6358
g6885
tp7805
a(g6358
g6885
g2898
tp7806
a(g4369
g4371
tp7807
a(g4369
g4371
g6818
tp7808
a(g7687
g7689
tp7809
a(g7687
g7689
g7323
tp7810
a(g2711
g4368
tp7811
a(g2711
g4368
g4369
tp7812
a(g2278
g2280
tp7813
a(g2278
g2280
g4700
tp7814
a(g5914
g1708
tp7815
a(g5914
g1708
g1709
tp7816
a(g2202
g2204
tp7817
a(g2202
g2204
g2380
tp7818
a(g1267
g1268
g5208
tp7819
a(g5350
g5352
tp7820
a(g5350
g5352
g5659
tp7821
a(g39
g1270
g1488
tp7822
a(g2837
g6536
g6537
tp7823
a(Vsay
p7824
g6881
tp7825
a(g7824
g6881
g4824
tp7826
a(Vsay
p7827
Vscared
p7828
tp7829
a(g7827
g7828
g7824
tp7830
a(g4273
g4275
tp7831
a(g4273
g4275
g4942
tp7832
a(g1787
g1789
tp7833
a(g1787
g1789
Vlike
p7834
tp7835
a(g2018
g2020
tp7836
a(g2018
g2020
g1420
tp7837
a(Vsayang
p7838
g6341
tp7839
a(g7838
g6341
g6342
tp7840
a(g5312
g3061
tp7841
a(g5312
g3061
g3062
tp7842
a(g3104
g1469
tp7843
a(g3104
g1469
g3106
tp7844
a(g4999
g5001
tp7845
a(g4999
g5001
g375
tp7846
a(g374
g6778
tp7847
a(g374
g6778
g6779
tp7848
a(g6994
g6317
tp7849
a(g6994
g6317
g5680
tp7850
a(g7032
g7034
tp7851
a(g7032
g7034
g7041
tp7852
a(Vsayyy
p7853
g650
tp7854
a(g7853
g650
g7032
tp7855
a(g7828
g7824
tp7856
a(g7828
g7824
g6881
tp7857
a(g5360
g5362
tp7858
a(g5360
g5362
g6279
tp7859
a(g4691
g4693
tp7860
a(g4691
g4693
g2760
tp7861
a(g4976
g4978
tp7862
a(g4976
g4978
g6415
tp7863
a(g1864
g1866
tp7864
a(g1864
g1866
g6775
tp7865
a(g174
g5037
tp7866
a(g174
g5037
g1651
tp7867
a(g4874
g1443
tp7868
a(g4874
g1443
g3088
tp7869
a(g2590
g2592
tp7870
a(g2590
g2592
g3321
tp7871
a(g4097
Vtalking
p7872
tp7873
a(Vsee
p7874
g3433
tp7875
a(g7874
g3433
g3434
tp7876
a(Vsee
p7877
g3563
tp7878
a(g7877
g3563
g2709
tp7879
a(g3269
g3271
tp7880
a(g4278
g4280
tp7881
a(g4278
g4280
g3978
tp7882
a(g305
g146
tp7883
a(g305
g146
g1350
tp7884
a(g6460
g4496
tp7885
a(g6460
g4496
g4497
tp7886
a(g1139
g6462
tp7887
a(g1139
g6462
g3767
tp7888
a(g6763
g5863
tp7889
a(g6763
g5863
g2933
tp7890
a(g7491
g7096
tp7891
a(g7491
g7096
g7097
tp7892
a(g6465
g6466
tp7893
a(g6465
g6466
g6994
tp7894
a(g3224
g3226
tp7895
a(g3224
g3226
g2232
tp7896
a(g2906
Vvideo
p7897
tp7898
a(g2906
g7897
Vlaugh
p7899
tp7900
a(g6469
g1448
tp7901
a(g6469
g1448
g3147
tp7902
a(g4259
g5939
tp7903
a(g4259
g5939
g4051
tp7904
a(g4016
g4018
tp7905
a(g4016
g4018
g1502
tp7906
a(Vserzly
p7907
g6626
tp7908
a(g7907
g6626
g6627
tp7909
a(g3237
g3239
tp7910
a(g2355
g2807
tp7911
a(g2355
g2807
g2808
tp7912
a(Vshanikasade
p7913
g6394
tp7914
a(g7913
g6394
g6395
tp7915
a(Vshaquoy
p7916
Vdislike
p7917
tp7918
a(g7916
g7917
Vpeople
p7919
tp7920
a(g1512
g6480
tp7921
a(g1512
g6480
g6561
tp7922
a(g6629
g6833
tp7923
a(g6629
g6833
g6834
tp7924
a(g1513
g4783
tp7925
a(g1513
g4783
g4784
tp7926
a(g6924
g5894
tp7927
a(g6924
g5894
g5609
tp7928
a(Vshes
p7929
g2316
tp7930
a(g7929
g2316
g2317
tp7931
a(g7424
g2017
tp7932
a(g7424
g2017
g2018
tp7933
a(g4275
g4942
tp7934
a(g4275
g4942
g4943
tp7935
a(g5845
g5847
tp7936
a(g191
g3394
tp7937
a(g191
g3394
g5339
tp7938
a(g3859
g6130
tp7939
a(g4980
g3214
tp7940
a(g4980
g3214
g3215
tp7941
a(g1514
g1653
tp7942
a(g1514
g1653
g3375
tp7943
a(g2450
Vskirts
p7944
tp7945
a(g4855
g4857
tp7946
a(g4855
g4857
g7161
tp7947
a(g1515
g6805
tp7948
a(g1515
g6805
g3074
tp7949
a(Vshould
p7950
g5769
tp7951
a(g7950
g5769
g2908
tp7952
a(g7092
g7094
tp7953
a(g375
g6486
tp7954
a(g4698
g1537
tp7955
a(g4698
g1537
Vthroat
p7956
tp7957
a(g4021
g4023
tp7958
a(g4021
g4023
g2447
tp7959
a(Vsick
p7960
g6514
tp7961
a(g7960
g6514
g6515
tp7962
a(g4610
g2504
tp7963
a(g4610
g2504
g2505
tp7964
a(g4283
g4285
tp7965
a(g4283
g4285
g2539
tp7966
a(Vsimplyrae01
p7967
g2212
tp7968
a(g7967
g2212
g2213
tp7969
a(g1517
g1471
tp7970
a(g1517
g1471
g4744
tp7971
a(g2345
g5739
tp7972
a(g2345
g5739
g5785
tp7973
a(g4562
g1523
tp7974
a(g4562
g1523
g539
tp7975
a(g7084
g5433
tp7976
a(g7084
g5433
g5434
tp7977
a(g7197
g7199
tp7978
a(g7197
g7199
g7278
tp7979
a(g2326
g6488
tp7980
a(g2326
g6488
g6489
tp7981
a(g6489
g6491
tp7982
a(g4026
g4028
tp7983
a(g4026
g4028
g5094
tp7984
a(g1799
g2970
tp7985
a(g1799
g2970
g5387
tp7986
a(g667
g660
tp7987
a(g667
g660
g296
tp7988
a(Vsleep
p7989
g677
tp7990
a(g7989
g677
g7838
tp7991
a(g5227
g5229
tp7992
a(g5227
g5229
g6772
tp7993
a(Vsmarte3
p7994
Vballin
p7995
tp7996
a(g7994
g7995
Vhard
p7997
tp7998
a(Vsmiles
p7999
g5117
tp8000
a(g7999
g5117
g5118
tp8001
a(g2878
g570
tp8002
a(g2878
g570
g571
tp8003
a(g6493
g6495
tp8004
a(g2875
g5040
tp8005
a(g2875
g5040
g6493
tp8006
a(g4031
g3377
tp8007
a(g4031
g3377
g3378
tp8008
a(g4035
g4037
tp8009
a(g4035
g4037
g5223
tp8010
a(g2667
g2662
tp8011
a(g2667
g2662
g2663
tp8012
a(g377
g631
tp8013
a(g377
g631
g995
tp8014
a(g4040
g4042
tp8015
a(g4040
g4042
g5227
tp8016
a(g5232
g5234
tp8017
a(g5232
g5234
g1524
tp8018
a(g6502
g3115
tp8019
a(g6502
g3115
g2384
tp8020
a(g4045
g4047
tp8021
a(Vsome
p8022
g3469
tp8023
a(g8022
g3469
g3470
tp8024
a(g1518
g6054
tp8025
a(g1518
g6054
g2077
tp8026
a(g42
g2528
tp8027
a(g42
g2528
g2529
tp8028
a(g6462
g3767
g3768
tp8029
a(g3815
g5646
tp8030
a(g3815
g5646
g6083
tp8031
a(Vsomeone
p8032
g1163
tp8033
a(g8032
g1163
g1164
tp8034
a(g4052
g4053
tp8035
a(g4052
g4053
g7428
tp8036
a(g2540
g2542
tp8037
a(g2540
g2542
g7517
tp8038
a(g2904
g2906
tp8039
a(g2904
g2906
g7897
tp8040
a(g5792
g7718
tp8041
a(g5792
g7718
Vtrust
p8042
tp8043
a(g6839
g6841
tp8044
a(g6839
g6841
g1445
tp8045
a(g4056
g4057
tp8046
a(g4056
g4057
g6518
tp8047
a(g1401
Vwillingly
p8048
tp8049
a(g1401
g8048
g6097
tp8050
a(Vsomeone
p8051
Vyells
p8052
tp8053
a(g8051
g8052
g670
tp8054
a(g7444
g5866
g5867
tp8055
a(g378
g1292
g3604
tp8056
a(g3034
g3036
tp8057
a(g3034
g3036
g6879
tp8058
a(g1558
g383
tp8059
a(g1558
g383
g362
tp8060
a(Vsometimes
p8061
g6838
tp8062
a(g8061
g6838
g6839
tp8063
a(g1965
g1967
tp8064
a(g1965
g1967
g4528
tp8065
a(g6508
g6509
tp8066
a(g1192
g6024
tp8067
a(g1192
g6024
g6025
tp8068
a(g192
g2746
tp8069
a(g192
g2746
g2305
tp8070
a(g338
g6511
tp8071
a(g338
g6511
Vknow
p8072
tp8073
a(g3514
g1831
tp8074
a(g3514
g1831
g219
tp8075
a(g1562
g1564
tp8076
a(g1562
g1564
g682
tp8077
a(g221
g157
tp8078
a(g221
g157
g25
tp8079
a(g5991
g1239
tp8080
a(g5991
g1239
g1240
tp8081
a(g6515
g6516
tp8082
a(g6515
g6516
Vtears
p8083
tp8084
a(Vsongsthatwillnevergetold
p8085
g1954
tp8086
a(g8085
g1954
g1955
tp8087
a(g5581
g6946
tp8088
a(g5581
g6946
g6978
tp8089
a(g1520
g3076
tp8090
a(g1520
g3076
g4812
tp8091
a(g2481
g2483
tp8092
a(g2481
g2483
g6329
tp8093
a(g3712
g4399
tp8094
a(g668
g4390
tp8095
a(g668
g4390
g4731
tp8096
a(g6912
Vmuuuch
p8097
tp8098
a(Vsorry
p8099
g4055
tp8100
a(g8099
g4055
g4056
tp8101
a(g379
g6653
tp8102
a(g379
g6653
g6654
tp8103
a(g7203
g7803
tp8104
a(g7203
g7803
g6713
tp8105
a(g3997
g7537
tp8106
a(g3997
g7537
g7681
tp8107
a(g5065
g5067
tp8108
a(g5065
g5067
g5930
tp8109
a(g6116
g1532
tp8110
a(g6116
g1532
g1882
tp8111
a(g5742
g5744
tp8112
a(g5742
g5744
g7263
tp8113
a(g3750
g4627
tp8114
a(g7389
Vmexicans
p8115
tp8116
a(g4568
g2420
tp8117
a(g4568
g2420
g1887
tp8118
a(g4984
g6015
tp8119
a(g4984
g6015
g6016
tp8120
a(g6016
g1449
tp8121
a(g6016
g1449
g3211
tp8122
a(Vspoiler
p8123
Vugh
p8124
tp8125
a(g8123
g8124
g5141
tp8126
a(g4060
g1499
tp8127
a(g1521
Vdislike
p8128
tp8129
a(g5672
Vyoui
p8130
tp8131
a(g5672
g8130
g5624
tp8132
a(g3820
g5762
tp8133
a(g4064
g1436
tp8134
a(g1522
g4634
tp8135
a(g1522
g4634
g1442
tp8136
a(Vstarting
p8137
g4165
g4166
tp8138
a(g669
g5212
tp8139
a(g669
g5212
g5213
tp8140
a(g3880
g2938
tp8141
a(g3880
g2938
g2939
tp8142
a(g7207
g7209
tp8143
a(g7207
g7209
g1542
tp8144
a(Vstephhh
p8145
g6287
tp8146
a(g8145
g6287
g5249
tp8147
a(g4068
g1695
tp8148
a(g4068
g1695
g1696
tp8149
a(g1611
g2136
tp8150
a(g1611
g2136
g3501
tp8151
a(g2285
g4034
tp8152
a(g2285
g4034
g4035
tp8153
a(g2698
g5015
tp8154
a(g2698
g5015
g3747
tp8155
a(g4830
g5944
tp8156
a(Vstill
p8157
g6229
g4282
tp8158
a(g593
g594
g647
tp8159
a(g4203
g4205
g6555
tp8160
a(g7803
g6713
tp8161
a(g7803
g6713
g2054
tp8162
a(Vstill
p8163
g7225
tp8164
a(g8163
g7225
g3002
tp8165
a(g125
Vwant
p8166
tp8167
a(g125
g8166
g222
tp8168
a(Vstone
p8169
g5922
tp8170
a(g8169
g5922
g5923
tp8171
a(g2862
g6690
tp8172
a(g670
g4247
tp8173
a(g670
g4247
g4248
tp8174
a(g3453
g3455
tp8175
a(g3453
g3455
g7562
tp8176
a(g7097
g7099
tp8177
a(g7097
g7099
g4947
tp8178
a(g7621
Vplease
p8179
tp8180
a(g4414
g3155
tp8181
a(g4414
g3155
g3071
tp8182
a(g671
g4073
tp8183
a(g671
g4073
g4338
tp8184
a(g4338
g4340
tp8185
a(g4338
g4340
g4414
tp8186
a(g4006
g5257
tp8187
a(g4006
g5257
g5258
tp8188
a(g2081
g2083
g2722
tp8189
a(g7694
g3681
g3299
tp8190
a(Vstrongly
p8191
g3886
g3887
tp8192
a(Vstrongly
p8193
g3896
g3897
tp8194
a(Vstrongly
p8195
g3940
g3941
tp8196
a(Vstrongly
p8197
g4119
g4120
tp8198
a(g2984
g2986
tp8199
a(g2984
g2986
Vletshopefrancekeeplosing
p8200
tp8201
a(g1792
g1794
tp8202
a(g1792
g1794
g3873
tp8203
a(g2690
Vthough
p8204
tp8205
a(g1523
g539
tp8206
a(g1523
g539
g540
tp8207
a(g4583
g6522
tp8208
a(g4583
g6522
g6089
tp8209
a(g5837
g922
tp8210
a(g5837
g922
g290
tp8211
a(g7327
g6319
tp8212
a(g7327
g6319
g6320
tp8213
a(g4076
g4078
tp8214
a(g1524
g1480
tp8215
a(g1524
g1480
g186
tp8216
a(g5150
g5152
tp8217
a(g5150
g5152
g6768
tp8218
a(Vsunnysideeup
p8219
g280
tp8220
a(g8219
g280
g281
tp8221
a(g2583
g3144
tp8222
a(g6439
g7612
tp8223
a(g1525
g5275
tp8224
a(g7718
g8042
tp8225
a(g7718
g8042
g3196
tp8226
a(g4701
g4703
g6544
tp8227
a(g7596
g7598
tp8228
a(g7596
g7598
Vpeople
p8229
tp8230
a(g3093
g3095
tp8231
a(g7181
g7125
tp8232
a(g7181
g7125
g7126
tp8233
a(g2670
g2672
tp8234
a(g3599
g652
tp8235
a(g3599
g652
g7101
tp8236
a(g1526
g495
tp8237
a(g1526
g495
g196
tp8238
a(g2164
g5086
tp8239
a(g2164
g5086
g5087
tp8240
a(g7495
g4645
tp8241
a(g7495
g4645
g4646
tp8242
a(g4716
g2924
tp8243
a(g4716
g2924
g2235
tp8244
a(Vtabaka
p8245
g6254
tp8246
a(g8245
g6254
g627
tp8247
a(g4081
g2521
tp8248
a(g4081
g2521
g2522
tp8249
a(g6640
Vlisten
p8250
tp8251
a(g2728
g5470
tp8252
a(g2728
g5470
g1515
tp8253
a(g2828
g5622
tp8254
a(g2828
g5622
g2042
tp8255
a(g7199
g7278
tp8256
a(g7199
g7278
g1505
tp8257
a(g222
g7308
tp8258
a(g222
g7308
g7309
tp8259
a(g3274
g3276
tp8260
a(g3274
g3276
g4110
tp8261
a(Vtaken
p8262
Vdislike
p8263
tp8264
a(g8262
g8263
Veveryone
p8265
tp8266
a(g3787
g5247
tp8267
a(g3787
g5247
g4723
tp8268
a(g5814
g5816
tp8269
a(Vtalent
p8270
g1646
tp8271
a(g8270
g1646
g1647
tp8272
a(g6371
g6998
tp8273
a(g6371
g6998
g4650
tp8274
a(g2180
g2983
tp8275
a(g2180
g2983
g2984
tp8276
a(g3707
g1424
tp8277
a(g3707
g1424
g2109
tp8278
a(g4686
g1516
tp8279
a(g5330
g7389
tp8280
a(g5330
g7389
g8115
tp8281
a(g4974
g7148
tp8282
a(g1528
g7392
tp8283
a(g3391
g6530
tp8284
a(g2547
g3186
tp8285
a(g2547
g3186
g4124
tp8286
a(g6060
g4567
tp8287
a(g6060
g4567
g4568
tp8288
a(g6615
g5987
tp8289
a(g6615
g5987
g184
tp8290
a(g4326
g3601
tp8291
a(g4326
g3601
g3602
tp8292
a(Vtaurus
p8293
Vwomen
p8294
tp8295
a(g8293
g8294
g632
tp8296
a(g4085
g4087
tp8297
a(g4085
g4087
g6186
tp8298
a(g7401
Vlesson
p8299
tp8300
a(g1529
g183
tp8301
a(g2735
g5292
tp8302
a(g2735
g5292
g7785
tp8303
a(g1530
g2038
tp8304
a(g1530
g2038
g2039
tp8305
a(g2035
g227
tp8306
a(g2035
g227
g5855
tp8307
a(g4362
g6533
tp8308
a(g4362
g6533
g4643
tp8309
a(g7309
g1992
tp8310
a(g7309
g1992
g1993
tp8311
a(g4804
g214
tp8312
a(g4804
g214
g4972
tp8313
a(g2015
g2101
tp8314
a(g2015
g2101
g378
tp8315
a(g2974
g2976
tp8316
a(g2974
g2976
g4269
tp8317
a(g3536
g1489
tp8318
a(g3536
g1489
g5701
tp8319
a(g5077
g5079
tp8320
a(g5077
g5079
Vdislike
p8321
tp8322
a(g4090
g4092
tp8323
a(g4090
g4092
g1510
tp8324
a(Vtell
p8325
Vtruth
p8326
tp8327
a(g8325
g8326
g4223
tp8328
a(g4095
g4097
tp8329
a(g4095
g4097
g7872
tp8330
a(g5429
g5431
tp8331
a(g5429
g5431
g1438
tp8332
a(g2051
g308
tp8333
a(g2051
g308
Vwould
p8334
tp8335
a(g1531
g2720
tp8336
a(g382
g2393
tp8337
a(g382
g2393
g2394
tp8338
a(g5735
g5252
tp8339
a(g5735
g5252
g2088
tp8340
a(g4173
g5900
tp8341
a(g4173
g5900
g5901
tp8342
a(g383
g362
tp8343
a(g383
g362
g4426
tp8344
a(g5118
g5120
tp8345
a(g5118
g5120
g6685
tp8346
a(Vthank
p8347
g1497
tp8348
a(g8347
g1497
g6873
tp8349
a(Vthank
p8350
g1409
tp8351
a(g8350
g1409
g1410
tp8352
a(g6537
g1906
tp8353
a(g6537
g1906
g1907
tp8354
a(g2258
g2062
tp8355
a(g2258
g2062
g2063
tp8356
a(g223
g3242
tp8357
a(g223
g3242
g5493
tp8358
a(Vthanks
p8359
g6708
tp8360
a(g8359
g6708
g6709
tp8361
a(g2324
g2326
tp8362
a(g2324
g2326
g6488
tp8363
a(Vthankssss
p8364
g8145
tp8365
a(g8364
g8145
g6287
tp8366
a(g3349
g1972
tp8367
a(g3349
g1972
g1973
tp8368
a(g2620
g2622
tp8369
a(g2620
g2622
g3258
tp8370
a(g4835
g6897
tp8371
a(g4835
g6897
Vyou
p8372
tp8373
a(Vthatgirl
p8374
Vdislike
p8375
tp8376
a(g8374
g8375
Vpassion
p8377
tp8378
a(g4899
g4901
tp8379
a(g4899
g4901
g653
tp8380
a(g3434
g1457
tp8381
a(g3434
g1457
g3566
tp8382
a(Vthats
p8383
g3697
g3589
tp8384
a(g1317
g1318
g3757
tp8385
a(g3408
g3410
tp8386
a(g3408
g3410
g4273
tp8387
a(g2026
g2028
tp8388
a(g2026
g2028
g3331
tp8389
a(g2162
g2164
tp8390
a(g2162
g2164
g5086
tp8391
a(Vthe
p8392
Vthing
p8393
tp8394
a(g8392
g8393
g3762
tp8395
a(g5087
g5089
tp8396
a(g5087
g5089
g4209
tp8397
a(Vthemostannoyingthingsinlife
p8398
g1574
tp8399
a(g8398
g1574
g1575
tp8400
a(g3553
g5948
tp8401
a(g3553
g5948
g6864
tp8402
a(g6864
g6866
tp8403
a(g6864
g6866
g7697
tp8404
a(g672
g37
tp8405
a(g672
g37
g1307
tp8406
a(g1532
g1882
tp8407
a(g1532
g1882
g1883
tp8408
a(Vthere
p8409
Vtime
p8410
tp8411
a(g8409
g8410
g3550
tp8412
a(g6544
g6546
tp8413
a(Vtheres
p8414
g7250
tp8415
a(g8414
g7250
g7251
tp8416
a(g6841
g1445
tp8417
a(g6841
g1445
g3152
tp8418
a(g3592
g1932
tp8419
a(g3592
g1932
g1933
tp8420
a(g1327
g1328
g1476
tp8421
a(g2832
g2161
g2162
tp8422
a(g384
g4514
tp8423
a(g384
g4514
g6001
tp8424
a(g1533
g2552
tp8425
a(g1533
g2552
g292
tp8426
a(g6007
g1527
tp8427
a(g3331
g1655
tp8428
a(g3331
g1655
g1656
tp8429
a(g4108
g1440
tp8430
a(g4108
g1440
g2927
tp8431
a(g145
g600
g2580
tp8432
a(g8393
g3762
g3763
tp8433
a(g5649
g3870
g3871
tp8434
a(g6522
g6089
tp8435
a(g6522
g6089
g1667
tp8436
a(g1211
g6236
tp8437
a(g1211
g6236
g4395
tp8438
a(g7261
g6903
tp8439
a(g7261
g6903
g3861
tp8440
a(Vthing
p8441
g7725
tp8442
a(g8441
g7725
g1873
tp8443
a(g1637
g2773
tp8444
a(g1637
g2773
g2774
tp8445
a(g6885
g2898
tp8446
a(g6885
g2898
g2899
tp8447
a(g308
g8334
tp8448
a(g308
g8334
Vinflicted
p8449
tp8450
a(g1871
g4849
tp8451
a(g1871
g4849
g4850
tp8452
a(g3188
g175
tp8453
a(g3188
g175
g1735
tp8454
a(g7397
g2549
tp8455
a(g7397
g2549
g2550
tp8456
a(g6064
g3066
tp8457
a(g6064
g3066
g3067
tp8458
a(Vthink
p8459
g1450
tp8460
a(g8459
g1450
g3233
tp8461
a(g5822
g5612
tp8462
a(g5822
g5612
g5613
tp8463
a(g1789
g7834
tp8464
a(g4018
g1502
tp8465
a(g4018
g1502
g7197
tp8466
a(g948
g4289
tp8467
a(g948
g4289
g4926
tp8468
a(Vthink
p8469
g8270
tp8470
a(g8469
g8270
g1646
tp8471
a(g58
g1533
tp8472
a(g58
g1533
g2552
tp8473
a(g4292
g4293
tp8474
a(g4292
g4293
g2408
tp8475
a(g4102
g1369
tp8476
a(g4102
g1369
g1370
tp8477
a(g2851
Vwont
p8478
tp8479
a(g2851
g8478
g4921
tp8480
a(g6716
g4809
tp8481
a(g6716
g4809
g1557
tp8482
a(g7750
g2012
tp8483
a(g7750
g2012
g2013
tp8484
a(g6551
g6553
tp8485
a(Vthis
p8486
g5640
tp8487
a(g8486
g5640
g5641
tp8488
a(g1332
g1333
g6411
tp8489
a(Vthis
p8490
g6482
g6483
tp8491
a(Vthis
p8492
g6942
tp8493
a(g8492
g6942
g2191
tp8494
a(g2045
g7621
tp8495
a(g2045
g7621
g8179
tp8496
a(g4106
g4108
tp8497
a(g4106
g4108
g1440
tp8498
a(g160
g390
tp8499
a(g160
g390
Vwant
p8500
tp8501
a(Vthough
p8502
g3672
g3673
tp8503
a(g3337
g4067
g4068
tp8504
a(g5951
g5953
tp8505
a(g5625
g5627
tp8506
a(g5625
g5627
g7950
tp8507
a(g5166
g1472
tp8508
a(g5166
g1472
g3415
tp8509
a(g7956
g2416
tp8510
a(g7956
g2416
g2417
tp8511
a(g1534
g4112
tp8512
a(g1534
g4112
g5488
tp8513
a(g6770
g6402
tp8514
a(g6770
g6402
g6403
tp8515
a(g6114
g6116
tp8516
a(g6114
g6116
g1532
tp8517
a(g6558
g1766
tp8518
a(g6558
g1766
g1767
tp8519
a(g673
g5485
tp8520
a(g673
g5485
g359
tp8521
a(g7436
g2778
tp8522
a(g7436
g2778
g2779
tp8523
a(g4378
Vlove
p8524
tp8525
a(g4378
g8524
Vlt3
p8526
tp8527
a(Vtigue
p8528
g344
tp8529
a(g8528
g344
g345
tp8530
a(g1535
g2537
tp8531
a(g1535
g2537
Vsooverthis
p8532
tp8533
a(g5127
g3173
tp8534
a(g5127
g3173
g3174
tp8535
a(g5042
g620
tp8536
a(g8410
g3550
tp8537
a(g8410
g3550
g3551
tp8538
a(g104
g1007
tp8539
a(g104
g1007
g1008
tp8540
a(g7720
g6436
tp8541
a(g7720
g6436
g6437
tp8542
a(g4613
g4615
tp8543
a(g4613
g4615
g1427
tp8544
a(g3380
g5092
tp8545
a(g3380
g5092
g6094
tp8546
a(g4516
g4518
tp8547
a(g4516
g4518
g7792
tp8548
a(g5842
g7090
tp8549
a(g5842
g7090
Vhelp
p8550
tp8551
a(g7735
g1553
tp8552
a(g7735
g1553
g1119
tp8553
a(g6083
g4556
tp8554
a(g6083
g4556
g4557
tp8555
a(g674
g3304
tp8556
a(g674
g3304
g5905
tp8557
a(g6562
g6564
tp8558
a(g6562
g6564
g6787
tp8559
a(g1404
Vyoure
p8560
tp8561
a(g1404
g8560
g8163
tp8562
a(g6516
g8083
tp8563
a(g2243
g2245
tp8564
a(g2243
g2245
g353
tp8565
a(g5302
g2628
tp8566
a(g5302
g2628
g2629
tp8567
a(g224
g3123
tp8568
a(g224
g3123
g3124
tp8569
a(g1775
g1777
tp8570
a(g1775
g1777
g1038
tp8571
a(g4822
g5408
tp8572
a(g4822
g5408
Vwalk
p8573
tp8574
a(g6569
g6571
tp8575
a(g6569
g6571
g220
tp8576
a(g1874
g1876
tp8577
a(g1874
g1876
Vyou
p8578
tp8579
a(g4950
g5281
tp8580
a(g4950
g5281
g5578
tp8581
a(g7537
g7681
tp8582
a(g7537
g7681
g5950
tp8583
a(Vtomlinson
p8584
g224
tp8585
a(g8584
g224
g3123
tp8586
a(g3279
g3281
tp8587
a(g3279
g3281
Vyou
p8588
tp8589
a(g1536
g3209
tp8590
a(g1536
g3209
g6697
tp8591
a(g4708
g4953
tp8592
a(g1537
g7956
tp8593
a(g1537
g7956
g2416
tp8594
a(g1538
g633
tp8595
a(g1538
g633
g2297
tp8596
a(g4350
g5006
tp8597
a(g3137
g1454
tp8598
a(g3137
g1454
g3385
tp8599
a(Vtorres
p8600
g6507
tp8601
a(g8600
g6507
g6508
tp8602
a(g1897
g1899
tp8603
a(g1897
g1899
g6502
tp8604
a(Vtraffic
p8605
g645
tp8606
a(g8605
g645
g145
tp8607
a(g6574
g6576
tp8608
a(g6574
g6576
g7044
tp8609
a(g7044
g5801
tp8610
a(g7044
g5801
g5802
tp8611
a(g5225
g5537
tp8612
a(g5225
g5537
g3510
tp8613
a(g4120
g4122
tp8614
a(g4120
g4122
g7010
tp8615
a(g2991
g6766
tp8616
a(g2991
g6766
Venjoyable
p8617
tp8618
a(g1619
g6579
tp8619
a(g1619
g6579
g5315
tp8620
a(g6582
g6584
tp8621
a(g6582
g6584
Vloose
p8622
tp8623
a(g3192
g3194
tp8624
a(g3192
g3194
Vmuch
p8625
tp8626
a(Vtruly
p8627
Vdislike
p8628
tp8629
a(g8042
g3196
tp8630
a(g8042
g3196
g3197
tp8631
a(g8326
g4223
tp8632
a(g8326
g4223
g3007
tp8633
a(g1539
g5570
tp8634
a(g1539
g5570
g5571
tp8635
a(Vtry
p8636
g5242
tp8637
a(g8636
g5242
g5243
tp8638
a(g675
g7270
tp8639
a(g675
g7270
g6893
tp8640
a(g3969
g7401
tp8641
a(g3969
g7401
g8299
tp8642
a(Vtrying
p8643
g4594
tp8644
a(g8643
g4594
g4595
tp8645
a(g385
g1348
g4837
tp8646
a(g4125
g4127
g4840
tp8647
a(g7090
g8550
tp8648
a(g3457
g3459
tp8649
a(g3457
g3459
g7092
tp8650
a(g1540
g7782
tp8651
a(g1540
g7782
g4537
tp8652
a(g4585
g1522
tp8653
a(g4585
g1522
g4634
tp8654
a(g2746
g2305
tp8655
a(g2746
g2305
g2306
tp8656
a(g1601
g4984
tp8657
a(g1601
g4984
g6015
tp8658
a(g4057
g6518
g6519
tp8659
a(g146
g1350
g6643
tp8660
a(g5447
g5449
tp8661
a(g5447
g5449
g1155
tp8662
a(g3102
g3104
tp8663
a(g3102
g3104
g1469
tp8664
a(g7442
g7444
tp8665
a(g7442
g7444
g5866
tp8666
a(g5782
g1320
tp8667
a(g5782
g1320
g1321
tp8668
a(g7499
g7501
tp8669
a(g7499
g7501
g3278
tp8670
a(g5189
g2130
tp8671
a(g5189
g2130
g2131
tp8672
a(g6444
g1901
tp8673
a(g6444
g1901
g1902
tp8674
a(g7209
g1542
tp8675
a(g386
Vdislike
p8676
tp8677
a(g5670
g5672
tp8678
a(g5670
g5672
g8130
tp8679
a(g5387
g1246
tp8680
a(g5387
g1246
g865
tp8681
a(g1960
g1962
g3667
tp8682
a(g8124
g5141
tp8683
a(g8124
g5141
g2080
tp8684
a(g2883
g4132
tp8685
a(g2883
g4132
g7776
tp8686
a(g2611
g3048
tp8687
a(g2611
g3048
g3049
tp8688
a(g4293
g2408
tp8689
a(g4293
g2408
g2409
tp8690
a(g1541
g4299
tp8691
a(g1541
g4299
Vdislike
p8692
tp8693
a(g7697
g5874
tp8694
a(g7697
g5874
g4049
tp8695
a(g4672
g4991
tp8696
a(g4672
g4991
g6029
tp8697
a(g5744
g7263
tp8698
a(g5744
g7263
g1359
tp8699
a(g7047
g7049
tp8700
a(Vuniversal
p8701
g7012
tp8702
a(g8701
g7012
g7013
tp8703
a(g3973
g1492
tp8704
a(g3088
g3090
tp8705
a(g3088
g3090
g7436
tp8706
a(g3529
g3531
tp8707
a(g6745
g1544
tp8708
a(g6745
g1544
g4101
tp8709
a(Vuse
p8710
g5185
tp8711
a(g8710
g5185
g4453
tp8712
a(g1543
g386
tp8713
a(g1543
g386
g8676
tp8714
a(g5755
g5757
tp8715
a(g1544
g4101
tp8716
a(g1544
g4101
g4102
tp8717
a(g5069
g5071
tp8718
a(g5069
g5071
g5515
tp8719
a(g6592
g6594
tp8720
a(g6592
g6594
g7075
tp8721
a(g6989
g6975
tp8722
a(g6989
g6975
g6145
tp8723
a(g3938
g1761
tp8724
a(g3938
g1761
g1762
tp8725
a(Vvictoirew
p8726
g1791
tp8727
a(g8726
g1791
g1792
tp8728
a(g6597
g6599
tp8729
a(g5973
g5634
tp8730
a(g5973
g5634
g2570
tp8731
a(g7897
g7899
tp8732
a(g7897
g7899
Vlove
p8733
tp8734
a(g4376
g4378
tp8735
a(g4376
g4378
g8524
tp8736
a(g4135
g4137
tp8737
a(g4135
g4137
g7176
tp8738
a(Vvirtues
p8739
g3935
tp8740
a(g8739
g3935
g3936
tp8741
a(g6602
g364
tp8742
a(g6602
g364
g1484
tp8743
a(Vvom
p8744
g7666
tp8745
a(g8744
g7666
g4116
tp8746
a(g1367
g8744
g7666
tp8747
a(g676
g1367
g8744
tp8748
a(g226
g1625
tp8749
a(g226
g1625
g209
tp8750
a(g2979
g2981
tp8751
a(g2979
g2981
g4135
tp8752
a(g3765
g4328
tp8753
a(g3765
g4328
g4329
tp8754
a(g6740
g7119
tp8755
a(Vwait
p8756
Vyoure
p8757
tp8758
a(g8756
g8757
g1840
tp8759
a(g1545
g204
tp8760
a(g1545
g204
g2310
tp8761
a(g8573
g5390
tp8762
a(g8573
g5390
g5391
tp8763
a(Vwalsh
p8764
g7317
tp8765
a(g8764
g7317
g5382
tp8766
a(g1546
g177
tp8767
a(g1546
g177
g1589
tp8768
a(g2835
g2837
tp8769
a(g2835
g2837
g6536
tp8770
a(g5615
g2433
tp8771
a(g5615
g2433
g2434
tp8772
a(g6605
g3033
tp8773
a(g6605
g3033
g3034
tp8774
a(g6751
g4215
tp8775
a(g6751
g4215
g4216
tp8776
a(g4850
g4852
tp8777
a(Vwant
p8778
g5446
tp8779
a(g8778
g5446
g5447
tp8780
a(Vwant
p8781
g6019
tp8782
a(g8781
g6019
g6020
tp8783
a(Vwant
p8784
g6079
tp8785
a(g8784
g6079
g5789
tp8786
a(g6020
g6022
tp8787
a(g6020
g6022
g6605
tp8788
a(g8500
g36
tp8789
a(g8500
g36
g7525
tp8790
a(g8166
g222
tp8791
a(g8166
g222
g7308
tp8792
a(g3534
g3536
tp8793
a(g3534
g3536
g1489
tp8794
a(g6768
g6770
tp8795
a(g6768
g6770
g6402
tp8796
a(g4153
Vwhy
p8797
tp8798
a(g4153
g8797
g2867
tp8799
a(g2225
g2227
tp8800
a(g2225
g2227
g3334
tp8801
a(g1547
g1317
tp8802
a(g1547
g1317
g1318
tp8803
a(g2394
g2396
tp8804
a(g2394
g2396
g4571
tp8805
a(Vwasnt
p8806
g3476
tp8807
a(g8806
g3476
g1779
tp8808
a(g5473
g5149
tp8809
a(g5473
g5149
g5150
tp8810
a(g6609
g2444
tp8811
a(g6609
g2444
g2445
tp8812
a(g2170
g2104
tp8813
a(g2170
g2104
g2105
tp8814
a(g2417
g2138
tp8815
a(g2417
g2138
g2139
tp8816
a(g918
g2150
tp8817
a(g918
g2150
g2151
tp8818
a(g6766
g8617
tp8819
a(g5493
g5404
tp8820
a(g5493
g5404
g1462
tp8821
a(g7101
g5834
tp8822
a(g7101
g5834
g5835
tp8823
a(g6613
g5844
tp8824
a(g6613
g5844
g5845
tp8825
a(g1733
g1500
tp8826
a(g1733
g1500
g5346
tp8827
a(g4141
g4142
tp8828
a(g4141
g4142
g1730
tp8829
a(g6051
g190
tp8830
a(g6051
g190
g619
tp8831
a(g126
g6615
tp8832
a(g126
g6615
g5987
tp8833
a(g1731
g1733
tp8834
a(g1731
g1733
g1500
tp8835
a(g1548
g1504
tp8836
a(g1548
g1504
g7312
tp8837
a(g2448
g2450
tp8838
a(g2448
g2450
g7944
tp8839
a(g4145
g4147
tp8840
a(g3169
g3171
tp8841
a(g3169
g3171
g1746
tp8842
a(g4724
g4726
tp8843
a(g5236
g181
tp8844
a(g5236
g181
g2877
tp8845
a(g5785
g5787
tp8846
a(g6618
g634
tp8847
a(g6618
g634
g5371
tp8848
a(g1369
g1370
g621
tp8849
a(g4885
g4887
g5069
tp8850
a(g5557
g5559
tp8851
a(g5557
g5559
g3629
tp8852
a(g6405
g5284
tp8853
a(g6405
g5284
g5285
tp8854
a(g3261
g5720
tp8855
a(g3261
g5720
g5721
tp8856
a(g677
g7838
tp8857
a(g677
g7838
g6341
tp8858
a(g4696
g4698
tp8859
a(g4696
g4698
g1537
tp8860
a(Vwent
p8861
g7077
tp8862
a(g8861
g7077
g4705
tp8863
a(g1661
g1663
tp8864
a(g1661
g1663
g4200
tp8865
a(Vwhat
p8866
g8459
tp8867
a(g8866
g8459
g1450
tp8868
a(g390
g8500
tp8869
a(g390
g8500
g36
tp8870
a(Vwhat
p8871
Vwould
p8872
tp8873
a(g8871
g8872
g8032
tp8874
a(g2020
g1420
tp8875
a(g2020
g1420
g1890
tp8876
a(Vwhatever
p8877
g4333
tp8878
a(g8877
g4333
g4334
tp8879
a(g2537
g8532
tp8880
a(g309
g161
tp8881
a(g309
g161
g1545
tp8882
a(g6897
g8372
tp8883
a(g6897
g8372
g6748
tp8884
a(g3364
g3366
tp8885
a(g3364
g3366
g3368
tp8886
a(g310
g363
tp8887
a(g310
g363
g1496
tp8888
a(Vwhen
p8889
g1267
tp8890
a(g8889
g1267
g1268
tp8891
a(Vwhen
p8892
g8051
tp8893
a(g8892
g8051
g8052
tp8894
a(Vwhenever
p8895
g3849
tp8896
a(g8895
g3849
g3850
tp8897
a(Vwhere
p8898
g6303
tp8899
a(g8898
g6303
g6304
tp8900
a(g6622
g6624
tp8901
a(g6622
g6624
g7047
tp8902
a(g6664
g5394
tp8903
a(g6664
g5394
g1519
tp8904
a(Vwho
p8905
g4964
tp8906
a(g8905
g4964
g2625
tp8907
a(g1549
g5767
tp8908
a(g1549
g5767
g6557
tp8909
a(g4163
g3228
tp8910
a(g4163
g3228
g3229
tp8911
a(g4150
g4151
tp8912
a(g4150
g4151
g4980
tp8913
a(g679
g4153
tp8914
a(g679
g4153
g8797
tp8915
a(Vwhoever
p8916
g8861
tp8917
a(g8916
g8861
g7077
tp8918
a(g4402
g4404
tp8919
a(g4402
g4404
g4506
tp8920
a(g227
g5855
tp8921
a(g227
g5855
g5505
tp8922
a(g7689
g7323
tp8923
a(g7689
g7323
g6120
tp8924
a(g4156
g4158
tp8925
a(g4156
g4158
g3015
tp8926
a(g3008
g3010
tp8927
a(g3008
g3010
g5713
tp8928
a(g8797
g2867
tp8929
a(g8797
g2867
g2868
tp8930
a(g391
g171
tp8931
a(g391
g171
g3661
tp8932
a(g1379
g1380
g6012
tp8933
a(g5239
g1400
g1401
tp8934
a(g6627
g6629
tp8935
a(g6627
g6629
g6833
tp8936
a(g5958
g1923
tp8937
a(g5958
g1923
g1924
tp8938
a(g8048
g6097
tp8939
a(g8048
g6097
g6098
tp8940
a(g6584
g8622
tp8941
a(g1762
g1764
tp8942
a(g344
g345
g2725
tp8943
a(g6631
g3268
g3269
tp8944
a(Vwish
p8945
g3273
g3274
tp8946
a(g7501
g3278
g3279
tp8947
a(Vwish
p8948
g5687
tp8949
a(g8948
g5687
g655
tp8950
a(Vwish
p8951
g7153
tp8952
a(g8951
g7153
g1548
tp8953
a(g2629
g2631
tp8954
a(g2629
g2631
g5808
tp8955
a(g161
g1545
tp8956
a(g161
g1545
g204
tp8957
a(g5962
g5367
tp8958
a(g5962
g5367
g5368
tp8959
a(Vwith
p8960
g2269
tp8961
a(g8960
g2269
g2270
tp8962
a(g4931
g2229
tp8963
a(g4931
g2229
g2230
tp8964
a(g392
g1521
tp8965
a(g392
g1521
g8128
tp8966
a(g1856
g2690
tp8967
a(g1856
g2690
g8204
tp8968
a(g2178
g2180
tp8969
a(g2178
g2180
g2983
tp8970
a(g6533
g4643
tp8971
a(g6533
g4643
g103
tp8972
a(g6779
g123
tp8973
a(g6779
g123
g187
tp8974
a(g8294
g632
tp8975
a(g8294
g632
g4999
tp8976
a(g311
g658
tp8977
a(g311
g658
g176
tp8978
a(g4161
g4163
tp8979
a(g4161
g4163
g3228
tp8980
a(Vwonder
p8981
g8905
tp8982
a(g8981
g8905
g4964
tp8983
a(g5966
g5968
tp8984
a(g5966
g5968
g7720
tp8985
a(g8478
g4921
tp8986
a(g8478
g4921
g4922
tp8987
a(g393
g641
tp8988
a(g393
g641
g4488
tp8989
a(g3455
g7562
tp8990
a(g3455
g7562
g2848
tp8991
a(g2849
g2851
tp8992
a(g2849
g2851
g8478
tp8993
a(g7608
g2764
tp8994
a(g7608
g2764
g1584
tp8995
a(g2986
g8200
tp8996
a(g5178
g3287
tp8997
a(g5178
g3287
g3288
tp8998
a(g1671
g6637
tp8999
a(g4166
g4168
tp9000
a(g5089
g4209
tp9001
a(g5089
g4209
g1439
tp9002
a(g4904
g4905
tp9003
a(g4904
g4905
g5584
tp9004
a(g997
Vlove
p9005
Vmuch
p9006
tp9007
a(g2601
g5263
tp9008
a(g1941
g1660
tp9009
a(g1941
g1660
g1661
tp9010
a(Vwould
p9011
g2516
tp9012
a(g9011
g2516
g2517
tp9013
a(g7003
g3223
tp9014
a(g7003
g3223
g3224
tp9015
a(g1794
g3873
tp9016
a(g1794
g3873
g3874
tp9017
a(g5094
g4819
tp9018
a(g5094
g4819
g4820
tp9019
a(g8334
g8449
tp9020
a(g1380
g6012
tp9021
a(g1380
g6012
g659
tp9022
a(g48
g1396
g5510
tp9023
a(g1630
g1632
g6398
tp9024
a(g8872
g8032
g1163
tp9025
a(g1400
g1401
g8048
tp9026
a(g5436
g6640
tp9027
a(g5436
g6640
g8250
tp9028
a(g5408
g8573
tp9029
a(g5408
g8573
g5390
tp9030
a(g7070
g1486
tp9031
a(g7070
g1486
g1552
tp9032
a(g1550
g2748
tp9033
a(g1550
g2748
g1447
tp9034
a(Vwrong
p9035
g5662
tp9036
a(g9035
g5662
g2495
tp9037
a(g395
g3285
tp9038
a(g395
g3285
g6110
tp9039
a(g1403
g1404
g8560
tp9040
a(g1551
g9035
tp9041
a(g1551
g9035
g5662
tp9042
a(g4171
g4173
tp9043
a(g4171
g4173
g5900
tp9044
a(Vx33
p9045
g6033
tp9046
a(g9045
g6033
g6034
tp9047
a(g4587
g6646
tp9048
a(g1552
g3244
tp9049
a(g1552
g3244
g3245
tp9050
a(g6511
g8072
tp9051
a(g6649
g1498
tp9052
a(g6649
g1498
g6930
tp9053
a(g4175
g4177
tp9054
a(Vyay
p9055
g6499
tp9056
a(g9055
g6499
g6500
tp9057
a(g2714
g2716
tp9058
a(g2714
g2716
g311
tp9059
a(g682
g3513
tp9060
a(g682
g3513
g3514
tp9061
a(g4137
g7176
tp9062
a(g4137
g7176
g7177
tp9063
a(g3847
g6070
tp9064
a(g3847
g6070
g7700
tp9065
a(g4744
g4746
tp9066
a(g4744
g4746
Vperson
p9067
tp9068
a(g1407
g613
g1810
tp9069
a(g3306
g1814
g1815
tp9070
a(g8052
g670
tp9071
a(g8052
g670
g4247
tp9072
a(g5112
g5114
tp9073
a(g5112
g5114
g4542
tp9074
a(g6571
g220
tp9075
a(g6571
g220
g3207
tp9076
a(g2131
g2133
tp9077
a(g2131
g2133
g6887
tp9078
a(g683
g125
tp9079
a(g683
g125
g8166
tp9080
a(g4553
g1928
tp9081
a(g4553
g1928
g1929
tp9082
a(g6651
g2030
tp9083
a(g6651
g2030
g2031
tp9084
a(g6654
g2369
tp9085
a(g6654
g2369
g2370
tp9086
a(g2373
g2375
tp9087
a(g3368
g2556
tp9088
a(g3368
g2556
g1467
tp9089
a(g5243
g2888
tp9090
a(g5243
g2888
g2889
tp9091
a(Vyou
p9092
g5717
tp9093
a(g9092
g5717
g5718
tp9094
a(g2573
g6087
g2589
tp9095
a(g8372
g6748
tp9096
a(g8372
g6748
g6749
tp9097
a(g1152
g1153
g6939
tp9098
a(g1156
g1157
g7003
tp9099
a(g6657
g6658
tp9100
a(g806
g6660
tp9101
a(Vyou
p9102
g7408
tp9103
a(g9102
g7408
g5181
tp9104
a(g2795
g2797
tp9105
a(g2795
g2797
g7704
tp9106
a(Vyou
p9107
g7877
tp9108
a(g9107
g7877
g3563
tp9109
a(g5627
g7950
tp9110
a(g5627
g7950
g5769
tp9111
a(Vyou
p9112
g8157
tp9113
a(g9112
g8157
g6229
tp9114
a(g11
g6662
tp9115
a(g6749
g6751
tp9116
a(g6749
g6751
g4215
tp9117
a(g1926
g6664
tp9118
a(g1926
g6664
g5394
tp9119
a(g7280
g2209
tp9120
a(g7280
g2209
g2210
tp9121
a(g8130
g5624
tp9122
a(g8130
g5624
g5625
tp9123
a(g1553
g1119
tp9124
a(g1553
g1119
g1120
tp9125
a(g5323
g5669
tp9126
a(g5323
g5669
g5670
tp9127
a(g3109
g6812
tp9128
a(g4880
g6360
tp9129
a(g4880
g6360
g6361
tp9130
a(g3949
g2839
tp9131
a(g3949
g2839
g2840
tp9132
a(g6939
g1678
tp9133
a(g6939
g1678
g1679
tp9134
a(Vyour
p9135
g617
tp9136
a(g9135
g617
g2667
tp9137
a(g2031
g1474
tp9138
a(g396
g221
tp9139
a(g396
g221
g157
tp9140
a(g6073
g347
tp9141
a(g6073
g347
g1787
tp9142
a(g8757
g1840
tp9143
a(g8757
g1840
g1841
tp9144
a(g3005
g1944
tp9145
a(g3005
g1944
g1945
tp9146
a(Vyoure
p9147
g1433
tp9148
a(g9147
g1433
g2613
tp9149
a(Vyoure
p9150
g6703
tp9151
a(g9150
g6703
g6221
tp9152
a(g4746
g9067
tp9153
a(g4746
g9067
Vdislike
p9154
tp9155
a(g127
g374
tp9156
a(g127
g374
g6778
tp9157
a(g8560
g8163
tp9158
a(g8560
g8163
g7225
tp9159
a(g6805
g3074
tp9160
a(g6805
g3074
g1520
tp9161
a(g1554
g672
tp9162
a(g1554
g672
g37
tp9163
a(g684
g6912
tp9164
a(g684
g6912
g8097
tp9165
a(g4181
g3576
tp9166
a(g4181
g3576
g3577
tp9167
a(g5304
g2242
tp9168
a(g5304
g2242
g2243
tp9169
a(Vyow
p9170
g4581
tp9171
a(g9170
g4581
g4582
tp9172
a(g4789
g6683
tp9173
a(Vzacarias
p9174
g340
tp9175
a(g9174
g340
g341
tp9176
a(g3558
g5961
tp9177
a(g3558
g5961
g5962
tp9178
ag1561
ag1566
ag1569
ag1574
ag1579
ag1584
ag1589
ag1593
ag1598
ag1603
ag1608
ag1613
ag1616
ag1621
ag1625
ag1629
ag4632
ag1634
ag6737
ag1639
ag1651
ag1667
ag1683
ag1686
ag1690
ag1695
ag1696
ag1708
ag1720
ag1725
ag3613
ag1730
ag1751
ag1754
ag1766
ag1771
ag2139
ag1774
ag1796
ag1590
ag1822
ag7785
ag1835
ag1840
ag3574
ag1848
ag1853
ag1858
ag1863
ag1868
ag1873
ag1878
ag1882
ag1887
ag1949
ag1749
ag1959
ag1964
ag1969
ag4661
ag1972
ag2034
ag2054
ag2059
ag2062
ag2066
ag2069
ag6149
ag2072
ag2077
ag2085
ag2091
ag2101
ag1609
ag2138
ag2141
ag2145
ag2150
ag3197
ag2155
ag2182
ag4483
ag2186
ag2073
ag2209
ag6879
ag2212
ag2224
ag2229
ag2232
ag2235
ag2242
ag1836
ag4177
ag2248
ag2257
ag2269
ag2272
ag2277
ag2282
ag2287
ag2292
ag2316
ag2333
ag2338
ag2342
ag2372
ag2377
ag2204
ag6168
ag6171
ag2420
ag2423
ag2428
ag2433
ag2438
ag2442
ag3633
ag2444
ag2447
ag2452
ag2457
ag1978
ag2471
ag2474
ag2485
ag2495
ag2500
ag2521
ag2524
ag2375
ag2539
ag4571
ag2570
ag2603
ag2608
ag2619
ag5715
ag2674
ag2677
ag3511
ag2680
ag2683
ag2298
ag2695
ag2700
ag2705
ag6186
ag2713
ag2718
ag2722
ag2725
ag2730
ag2455
ag1983
ag2744
ag2748
ag2576
ag2566
ag2755
ag2760
ag2764
ag2767
ag2773
ag2778
ag2781
ag2794
ag2799
ag2804
ag2817
ag2820
ag2834
ag2839
ag2844
ag2848
ag2853
ag2864
ag2867
ag2872
ag2877
ag2903
ag2996
ag2911
ag2060
ag2938
ag1606
ag2927
ag2945
ag2948
ag5531
ag2189
ag2983
ag2988
ag7075
ag2385
ag3033
ag3038
ag3043
ag3074
ag1829
ag3080
ag3092
ag3106
ag3665
ag3111
ag3115
ag3118
ag3123
ag3128
ag3133
ag3136
ag3140
ag1764
ag2581
ag2148
ag3147
ag4047
ag3155
ag2912
ag3667
ag3158
ag3673
ag3161
ag2078
ag3144
ag5867
ag3164
ag5275
ag3173
ag2936
ag3196
ag3207
ag6201
ag2453
ag6646
ag1577
ag6992
ag3223
ag3228
ag3450
ag7392
ag3244
ag3582
ag3287
ag3309
ag3314
ag2317
ag2592
ag1769
ag3325
ag3327
ag2028
ag3342
ag3345
ag3348
ag3356
ag3359
ag6216
ag6219
ag3371
ag1653
ag3388
ag2782
ag3403
ag3686
ag3407
ag3412
ag3415
ag3418
ag3428
ag3433
ag2585
ag2222
ag5053
ag1780
ag4729
ag3476
ag2954
ag6553
ag3488
ag3491
ag3496
ag2136
ag3505
ag3510
ag3513
ag1698
ag3518
ag3522
ag2173
ag3528
ag3533
ag3560
ag3589
ag3594
ag1823
ag3601
ag1614
ag3328
ag1663
ag4202
ag2750
ag7010
ag3049
ag2845
ag2429
ag4188
ag3375
ag4328
ag1701
ag2808
ag4333
ag4073
ag4342
ag4347
ag4359
ag2488
ag4375
ag6683
ag4380
ag6981
ag3791
ag2554
ag2896
ag4385
ag4388
ag4392
ag4395
ag8617
ag6637
ag3710
ag4401
ag2336
ag4340
ag2550
ag3441
ag3942
ag1757
ag2300
ag3719
ag3431
ag3150
ag2175
ag3399
ag1785
ag4345
ag1988
ag4537
ag4542
ag4545
ag4567
ag3086
ag4591
ag4598
ag4603
ag4078
ag2187
ag4473
ag3726
ag4623
ag3748
ag1993
ag1594
ag6495
ag2856
ag2931
ag4700
ag2262
ag4390
ag3753
ag4421
ag3757
ag3252
ag2823
ag4798
ag3763
ag4803
ag4190
ag4854
ag2290
ag4877
ag3742
ag2295
ag4884
ag4947
ag4955
ag2842
ag3445
ag3031
ag4348
ag2142
ag1895
ag5046
ag5055
ag2240
ag5073
ag3799
ag5076
ag4336
ag2424
ag5100
ag2095
ag5105
ag3448
ag5117
ag5126
ag5130
ag5018
ag5137
ag5141
ag4968
ag5847
ag5149
ag5185
ag5188
ag5242
ag3785
ag5249
ag5252
ag5257
ag2771
ag2599
ag5133
ag2255
ag6509
ag5267
ag3229
ag4357
ag4948
ag5295
ag5311
ag5315
ag5317
ag6291
ag5205
ag5327
ag2761
ag5334
ag3413
ag3394
ag5346
ag1805
ag5357
ag4366
ag5390
ag5394
ag2002
ag5404
ag4820
ag4852
ag5410
ag3131
ag3797
ag5417
ag5428
ag5433
ag5446
ag7126
ag3801
ag3806
ag4200
ag6697
ag4799
ag2959
ag3057
ag4329
ag1950
ag3730
ag4112
ag3494
ag8449
ag3242
ag5496
ag5500
ag3497
ag5505
ag2742
ag1575
ag5510
ag1564
ag3544
ag5525
ag5528
ag5418
ag5681
ag5802
ag5575
ag4779
ag5578
ag2909
ag3422
ag4905
ag5588
ag5339
ag5597
ag5517
ag5131
ag5593
ag5609
ag5612
ag4825
ag5631
ag3813
ag2634
ag5648
ag4618
ag5654
ag5352
ag5662
ag1740
ag6320
ag5687
ag5391
ag3876
ag4255
ag5769
ag4721
ag5774
ag4770
ag3577
ag2005
ag5789
ag5794
ag2308
ag5901
ag5801
ag5818
ag5821
ag4023
ag8299
ag6413
ag5022
ag8200
ag3823
ag5834
ag3826
ag6329
ag3901
ag3836
ag1718
ag5983
ag2701
ag5987
ag6024
ag4817
ag4991
ag2467
ag8622
ag2939
ag5110
ag5721
ag5120
ag2860
ag6480
ag6694
ag5145
ag6703
ag4939
ag6708
ag6713
ag2009
ag6772
ag6564
ag4945
ag5567
ag4509
ag6797
ag5341
ag3107
ag6818
ag4927
ag4651
ag6838
ag6353
ag4656
ag4599
ag5659
ag6852
ag6855
ag3231
ag8115
ag3874
ag3878
ag2854
ag2133
ag2965
ag4264
ag6893
ag4833
ag5622
ag6361
ag6903
ag3124
ag3842
ag3882
ag3887
ag3755
ag5767
ag6932
ag3892
ag6942
ag3897
ag5579
ag2445
ag6658
ag6660
ag4731
ag6374
ag3981
ag4364
ag8097
ag3918
ag7020
ag4733
ag7023
ag7036
ag2920
ag7034
ag6576
ag6624
ag2280
ag5515
ag7108
ag7111
ag3315
ag3931
ag7141
ag3936
ag4972
ag7150
ag7153
ag6918
ag5997
ag4929
ag7186
ag6379
ag2558
ag7013
ag5920
ag5923
ag5552
ag5358
ag3271
ag4216
ag7270
ag2153
ag7275
ag7278
ag3889
ag1627
ag4978
ag3503
ag6391
ag2800
ag4467
ag4840
ag5159
ag4355
ag7299
ag4870
ag2353
ag3239
ag4753
ag6400
ag7308
ag5643
ag7320
ag7323
ag7326
ag1623
ag5498
ag3947
ag6398
ag6403
ag6421
ag3979
ag4470
ag4053
ag7430
ag4493
ag6411
ag3090
ag7439
ag7612
ag7378
ag2406
ag7251
ag3721
ag1777
ag6579
ag2273
ag3531
ag1859
ag4158
ag3864
ag6419
ag7503
ag6887
ag7504
ag7514
ag5098
ag2542
ag3310
ag5223
ag4289
ag7525
ag3992
ag1866
ag6425
ag2786
ag3424
ag5385
ag7543
ag2151
ag2013
ag3526
ag5431
ag3226
ag5229
ag3044
ag2491
ag6430
ag4285
ag3960
ag4000
ag3794
ag7588
ag4266
ag2220
ag7595
ag6434
ag5488
ag2007
ag1704
ag5037
ag4933
ag2207
ag6437
ag3254
ag7629
ag5263
ag7706
ag3312
ag3964
ag1747
ag7714
ag5790
ag5968
ag5307
ag5637
ag2434
ag2967
ag3121
ag4796
ag2075
ag4009
ag4845
ag4491
ag6453
ag7779
ag7782
ag5292
ag6001
ag1933
ag3039
ag4518
ag4369
ag7687
ag2711
ag2278
ag5914
ag4168
ag7838
ag6994
ag7032
ag7853
ag7828
ag5360
ag4874
ag2590
ag2723
ag4097
ag6763
ag7491
ag3224
ag2906
ag6469
ag6473
ag4259
ag4016
ag7907
ag3237
ag7119
ag6476
ag7913
ag7916
ag2949
ag6924
ag7929
ag4980
ag1917
ag7950
ag4610
ag2720
ag7967
ag4562
ag7084
ag7197
ag2326
ag5526
ag4026
ag7944
ag5227
ag7994
ag4726
ag7704
ag2878
ag6493
ag2875
ag4031
ag4035
ag6500
ag6502
ag4576
ag4045
ag1965
ag2023
ag5581
ag8532
ag5065
ag6116
ag5742
ag3750
ag7389
ag4568
ag4984
ag6016
ag8123
ag4060
ag2779
ag5672
ag3820
ag2522
ag3880
ag7207
ag8145
ag4760
ag8169
ag7097
ag7621
ag2984
ag1792
ag2690
ag2218
ag5837
ag7327
ag6527
ag5150
ag8219
ag2583
ag6439
ag7596
ag2670
ag3599
ag7495
ag4716
ag8245
ag4081
ag8262
ag3787
ag5814
ag8270
ag2180
ag4974
ag6130
ag3391
ag2547
ag6060
ag6615
ag1759
ag4326
ag8293
ag4085
ag5375
ag7401
ag7273
ag2035
ag4362
ag7309
ag4804
ag4095
ag5429
ag2051
ag8364
ag8374
ag4899
ag8398
ag3383
ag6542
ag6544
ag8414
ag6841
ag1871
ag4099
ag6716
ag1684
ag6555
ag5625
ag5166
ag7956
ag6114
ag7436
ag4378
ag8528
ag6083
ag6516
ag2243
ag6569
ag1874
ag4950
ag7537
ag4117
ag8584
ag3137
ag8600
ag1897
ag8605
ag6574
ag7044
ag5225
ag4120
ag2991
ag6455
ag1619
ag6582
ag3192
ag6662
ag8627
ag8042
ag4448
ag4585
ag2746
ag1601
ag6589
ag5189
ag5387
ag2883
ag7697
ag4672
ag5744
ag7047
ag8701
ag3973
ag2210
ag5755
ag6592
ag6989
ag5006
ag3938
ag8726
ag6597
ag4135
ag8739
ag6602
ag7792
ag2378
ag3401
ag8764
ag2394
ag2414
ag8806
ag5473
ag6609
ag4386
ag2170
ag4145
ag3169
ag4724
ag5236
ag5785
ag6618
ag2156
ag3159
ag4696
ag3364
ag8895
ag8898
ag6622
ag6664
ag4163
ag3008
ag7700
ag6627
ag5958
ag8048
ag6584
ag7776
ag1762
ag5962
ag6533
ag6779
ag8981
ag5966
ag7608
ag2986
ag1941
ag1999
ag7070
ag1838
ag4171
ag9045
ag4406
ag4316
ag4320
ag2233
ag5028
ag6643
ag4175
ag9055
ag2714
ag4744
ag8052
ag5112
ag6571
ag2365
ag7280
ag5323
ag3109
ag2215
ag4880
ag3949
ag2367
ag4181
ag5304
ag9170
ag3343
ag1755
ag4789
ag9174
ag3558
a.