(lp0
Vlove
p1
aVdislike
p2
aVlike
p3
aVreally
p4
aVpeople
p5
aVmuch
p6
aVdont
p7
a(Vreally
p8
Vdislike
p9
tp10
aVyou
p11
aVknow
p12
aVfollow
p13
aVplease
p14
a(g3
Vdislike
p15
tp16
aVill
p17
aVone
p18
aVcould
p19
aVget
p20
aVtell
p21
aVlot
p22
a(g17
g21
tp23
a(g17
g21
Vlike
p24
tp25
a(g21
g24
tp26
a(g21
g24
Vdislike
p27
tp28
aVhate
p29
a(Vlove
p30
g11
tp31
aVlol
p32
aVstrongly
p33
a(g33
Vdislike
p34
tp35
aVacc
p36
aVsay
p37
aVsomeone
p38
a(Vdislike
p39
Vaccount
p40
tp41
a(Vlike
p42
g39
g40
tp43
ag40
aVits
p44
aVmake
p45
aVwould
p46
a(g40
Vget
p47
tp48
a(g40
g47
Vlot
p49
tp50
a(g39
g40
g47
tp51
a(g47
g49
tp52
a(g47
g49
Vrts
p53
tp54
a(g49
g53
tp55
aVamp
p56
aVbig
p57
ag53
aVright
p58
aVwant
p59
aVgot
p60
a(Vdislike
p61
Vpeople
p62
tp63
aVanyone
p64
aVlook
p65
aVthink
p66
aVgirl
p67
aVhappy
p68
aVmaking
p69
aVmusic
p70
aVomg
p71
aVperfect
p72
aVsure
p73
a(g57
Vlove
p74
tp75
a(g57
g74
Vtortex
p76
tp77
a(Vlook
p78
Vtour
p79
tp80
a(g78
g79
g57
tp81
a(g74
g76
tp82
a(g74
g76
g69
tp83
a(g5
Vdislike
p84
tp85
a(g76
g69
tp86
a(g79
g57
tp87
a(g79
g57
g74
tp88
aVbaby
p89
ag76
ag79
aVtweet
p90
a(Vlikedislike
p91
g36
tp92
a(Vlove
p93
Vmuch
p94
tp95
aValways
p96
aVcountry
p97
ag91
aVnew
p98
aVstill
p99
aVtweets
p100
a(Vlove
p101
Vknow
p102
tp103
aVbirthday
p104
aVbitch
p105
aVlt3
p106
aVretweet
p107
aVtime
p108
aVyoure
p109
a(g64
Vcould
p110
tp111
a(g64
g110
Vdislike
p112
tp113
a(g110
g112
tp114
a(g110
g112
Vcountry
p115
tp116
a(g19
g107
tp117
a(g19
g107
g100
tp118
a(g115
g70
tp119
a(g115
g70
Vits
p120
tp121
a(g112
g115
tp122
a(g112
g115
g70
tp123
a(g120
g72
tp124
a(g102
Vfollow
p125
tp126
a(g101
g102
g125
tp127
a(g70
g120
tp128
a(g70
g120
g72
tp129
a(g71
g19
tp130
a(g71
g19
g107
tp131
a(Vreally
p132
g73
tp133
a(g132
g73
g64
tp134
a(g107
g100
tp135
a(g107
g100
g101
tp136
a(g73
g64
tp137
a(g73
g64
g110
tp138
a(g100
g101
tp139
a(g100
g101
g102
tp140
aVaint
p141
aVback
p142
aVcome
p143
aVdays
p144
aVeveryone
p145
aVjust
p146
aVnobody
p147
aVschool
p148
aVtake
p149
aVthats
p150
aVthing
p151
aVthis
p152
a(g36
Vmbf
p153
tp154
a(Vfollow
p155
Vlov
p156
tp157
a(Viiampayce
p158
Vomg
p159
tp160
a(g158
g159
Vcould
p161
tp162
a(Vknow
p163
g155
g156
tp164
a(g91
g36
g153
tp165
a(Vmuch
p166
Vdislike
p167
tp168
aVday
p169
aVeven
p170
aVfamily
p171
aVgetting
p172
aVgoing
p173
ag158
aVliampayne
p174
ag156
aVmakes
p175
ag153
aVnever
p176
aVsorry
p177
aVtoday
p178
aVway
p179
aVwish
p180
aVworld
p181
a(Vdislike
p182
Vmuch
p183
tp184
a(Vdislike
p185
g38
tp186
aVbad
p187
aVbeforeidieiwanna
p188
aVfact
p189
aVfeel
p190
aVlife
p191
aVmany
p192
aVperson
p193
aVsometimes
p194
aVsong
p195
aVthe
p196
aVthough
p197
a(Vacknowledge
p198
Vexistence
p199
tp200
a(g198
g199
g13
tp201
a(Vbabe
p202
g104
tp203
a(g202
g104
g144
tp204
a(g104
g144
tp205
a(g104
g144
g14
tp206
a(g144
g14
tp207
a(g144
g14
g198
tp208
a(g199
g13
tp209
a(g199
g13
Vsay
p210
tp211
a(g13
g210
tp212
a(g13
g210
Vplease
p213
tp214
a(Vliam
p215
g30
tp216
a(g215
g30
g11
tp217
a(g174
g202
tp218
a(g174
g202
g104
tp219
a(Vmuch
p220
Vlove
p221
tp222
a(g14
g198
tp223
a(g14
g198
g199
tp224
a(Vplease
p225
Vfollow
p226
tp227
a(g213
g215
tp228
a(g213
g215
g30
tp229
a(g210
g213
tp230
a(g210
g213
g215
tp231
ag198
aVactually
p232
aVass
p233
aVaway
p234
ag202
aVbetter
p235
aVcant
p236
aVdamn
p237
aVeverything
p238
ag199
aVfucking
p239
aVgirls
p240
aVgive
p241
aVhes
p242
ag215
aVlive
p243
aVlong
p244
aVlooking
p245
aVmean
p246
aVmiss
p247
aVmom
p248
aVnotice
p249
aVpls
p250
aVsaid
p251
aVsaying
p252
aVsee
p253
aVstrong
p254
aVtext
p255
aVthat
p256
aVugh
p257
aVwait
p258
aVwhole
p259
aVwomen
p260
a(Vbeforeidieiwanna
p261
Vmake
p262
tp263
a(g27
Vacc
p264
tp265
a(Vdont
p266
Vhate
p267
tp268
a(g24
g27
g264
tp269
a(Vwish
p270
Vcould
p271
tp272
aVand
p273
aVbit
p274
aVbitches
p275
aVbody
p276
aVbring
p277
aVcare
p278
aVcause
p279
aVdone
p280
aVevery
p281
aVfollowers
p282
aVfound
p283
aVfriends
p284
aVguess
p285
aVhard
p286
aVhome
p287
aVicon
p288
aVkiss
p289
aVlast
p290
aVlaugh
p291
aVnothing
p292
aVreading
p293
aVsomething
p294
aVsongs
p295
aVthanks
p296
aVthings
p297
aVwithout
p298
aVyour
p299
a(Vbaby
p300
Vlove
p301
tp302
a(Vdislike
p303
Vschool
p304
tp305
a(Vdont
p306
Vknow
p307
tp308
a(g170
g197
tp309
a(g170
g197
Vdislike
p310
tp311
a(Vfeel
p312
Vlike
p313
tp314
a(Vfell
p315
Vlove
p316
tp317
a(Vfollow
p318
Vplease
p319
tp320
a(g67
Vdislike
p321
tp322
a(Vlove
p323
Vbig
p324
tp325
a(Vone
p326
Vlove
p327
tp328
a(Vreally
p329
Vdislike
p330
Vpeople
p331
tp332
a(g197
g310
tp333
aVanswer
p334
aVarent
p335
aVaround
p336
aVattention
p337
aVaunt
p338
aVbeautiful
p339
aVbelieve
p340
aVbest
p341
aVblack
p342
aVbut
p343
aVcarlyfollowme
p344
aVdidnt
p345
aVface
p346
aVfan
p347
ag315
aVfind
p348
aVfirst
p349
aVfood
p350
aVfuck
p351
aVfunny
p352
aVgirlfriend
p353
aVgood
p354
aVhey
p355
aVhope
p356
aVimportant
p357
aVion
p358
aVive
p359
aVmade
p360
aVman
p361
aVmarry
p362
aVname
p363
aVnothin
p364
aVput
p365
aVreason
p366
aVreasons
p367
aVshame
p368
aVshit
p369
aVshow
p370
aVsister
p371
aVsmiles
p372
aVsnow
p373
aVspicy
p374
aVsupport
p375
aVswear
p376
aVtalk
p377
aVthank
p378
aVthey
p379
aVweird
p380
aVwhen
p381
aVwhy
p382
aVwith
p383
aVwork
p384
aVwrong
p385
aVyall
p386
a(Vacc
p387
g347
tp388
a(g387
g347
Vacc
p389
tp390
a(g389
g250
tp391
a(Vactually
p392
Vlove
p393
tp394
a(g141
Vbeefing
p395
tp396
a(g141
g395
g383
tp397
a(Vaint
p398
Vgot
p399
tp400
a(g398
g399
g364
tp401
a(Valil
p402
Vbit
p403
tp404
a(Vall
p405
Vwant
p406
tp407
a(g405
g406
g337
tp408
a(g334
Vwould
p409
tp410
a(g334
g409
Vshame
p411
tp412
a(Vanyone
p413
Vdislike
p414
tp415
a(Vass
p416
Vocean
p417
tp418
a(g416
g417
g398
tp419
a(Vbeef
p420
Vhoes
p421
tp422
a(g420
g421
Vdislike
p423
tp424
a(g395
g383
tp425
a(g395
g383
g147
tp426
a(Vbeforeidieiwanna
p427
Vmake
p428
Vparents
p429
tp430
a(Vbellavitaaa
p431
Vdont
p432
tp433
a(g431
g432
g420
tp434
a(g324
g416
tp435
a(g324
g416
g417
tp436
a(Vcome
p437
g300
tp438
a(g437
g300
g301
tp439
a(Vdabiebahcrew
p440
Vlikedislike
p441
tp442
a(g440
g441
g387
tp443
a(Vdislike
p444
Vdont
p445
tp446
a(Vdislike
p447
g145
tp448
a(Vdislike
p449
Vfamily
p450
tp451
a(Vdislike
p452
g192
tp453
a(Vdislike
p454
Vmuch
p455
g405
tp456
a(g2
Vnobody
p457
tp458
a(g2
g457
g146
tp459
a(Vdislike
p460
Vnothing
p461
tp462
a(Vdislike
p463
Vreally
p464
tp465
a(g423
Vshrugs
p466
tp467
a(Vdislike
p468
g374
tp469
a(g432
g420
tp470
a(g432
g420
g421
tp471
a(g266
g267
Vstrongly
p472
tp473
a(Vdont
p474
Vlike
p475
tp476
a(Vdont
p477
g66
tp478
a(g347
g389
tp479
a(g347
g389
g250
tp480
a(g348
Vlove
p481
tp482
a(g348
g481
Vfaster
p483
tp484
a(g239
Vlove
p485
tp486
a(Vgirl
p487
g181
tp488
a(g399
g364
tp489
a(Vhappiest
p490
Vgirl
p491
tp492
a(Vhappy
p493
Vproud
p494
tp495
a(g493
g494
Vtravel
p496
tp497
a(g267
g472
tp498
a(g267
g472
Vdislike
p499
tp500
a(g421
g423
tp501
a(g421
g423
g466
tp502
a(g358
g2
tp503
a(g358
g2
g457
tp504
a(g146
Vcooolling
p505
tp506
a(Vknow
p507
g463
tp508
a(Vknow
p509
Vlove
p510
tp511
a(g441
g387
g347
tp512
a(Vlove
p513
g89
tp514
a(g323
g324
g416
tp515
a(g481
g483
tp516
a(Vlove
p517
Vgetting
p518
tp519
a(Vlove
p520
Vlol
p521
tp522
a(Vlove
p523
Vsong
p524
tp525
a(g428
g429
tp526
a(g428
g429
g493
tp527
a(Vmarry
p528
g326
tp529
a(g528
g326
g327
tp530
a(g455
g405
tp531
a(g455
g405
g406
tp532
a(g147
g358
tp533
a(g147
g358
g2
tp534
a(g457
g146
tp535
a(g457
g146
g505
tp536
a(g417
g398
tp537
a(g417
g398
g399
tp538
a(g429
g493
tp539
a(g429
g493
g494
tp540
a(Vpeople
p541
g348
tp542
a(g541
g348
g481
tp543
a(Vpeople
p544
Vlove
p545
tp546
a(g193
Vdislike
p547
tp548
a(g494
g496
tp549
a(g494
g496
Vworld
p550
tp551
a(Vreading
p552
Vtweet
p553
tp554
a(g552
g553
Vright
p555
tp556
a(Vreally
p557
Vlove
p558
tp559
a(Vreally
p560
g329
tp561
a(g560
g329
g330
tp562
a(g367
Vlove
p563
tp564
a(g555
g334
tp565
a(g555
g334
g409
tp566
a(Vright
p567
g437
tp568
a(g567
g437
g300
tp569
a(Vseriously
p570
g454
tp571
a(g570
g454
g455
tp572
a(g411
g567
tp573
a(g411
g567
g437
tp574
a(g374
Vfood
p575
tp576
a(Vstill
p577
Vlove
p578
tp579
a(Vthing
p580
Vdislike
p581
tp582
a(g496
g550
tp583
a(g496
g550
g528
tp584
a(g90
Vlove
p585
tp586
a(g553
g555
tp587
a(g553
g555
g334
tp588
a(g257
Vdislike
p589
tp590
a(Vugly
p591
g541
tp592
a(g591
g541
g348
tp593
a(g406
g337
tp594
a(g383
g147
tp595
a(g383
g147
g358
tp596
a(g550
g528
tp597
a(g550
g528
g326
tp598
a(Vwould
p599
Vlove
p600
tp601
a(g409
g411
tp602
a(g409
g411
g567
tp603
aVact
p604
ag402
ag405
aVannoying
p605
aVanything
p606
aVask
p607
ag420
ag395
ag431
aVbeyond
p608
aVbiggest
p609
aVbio
p610
aVbitching
p611
aVboyfriend
p612
aVbrothers
p613
aVcheck
p614
ag505
aVcute
p615
ag440
aVdifferent
p616
aVdirection
p617
aVexcited
p618
ag483
aVforever
p619
aVfree
p620
aVglad
p621
aVgrandmother
p622
aVgreat
p623
aVguys
p624
ag490
aVhead
p625
aVhelp
p626
aVher
p627
aVhii
p628
ag421
aVhonestly
p629
aVhot
p630
aVidk
p631
aVleast
p632
aVlet
p633
aVlittle
p634
aVlmfao
p635
aVmen
p636
aVmichael
p637
aVmight
p638
aVneed
p639
aVnigga
p640
aVnight
p641
aVnot
p642
ag417
ag429
aVpassion
p643
aVperiod
p644
aVplace
p645
aVpretty
p646
ag494
aVradio
p647
aVread
p648
aVrelationship
p649
aVrespect
p650
aVroll
p651
ag570
aVshowing
p652
ag466
aVsince
p653
aVsome
p654
aVsrsly
p655
aVstarting
p656
aVstuff
p657
aVsubtweets
p658
aVtheres
p659
aVtheyre
p660
aVtht
p661
aVtigoy
p662
aVtimes
p663
aVtomorrow
p664
aVtonight
p665
ag496
aVtry
p666
aVtrying
p667
aVtwitter
p668
ag591
aVupset
p669
aVvideo
p670
aVvom
p671
aVwell
p672
aVwhat
p673
aVwhatever
p674
aVwhoever
p675
aVwont
p676
aVword
p677
aVyeah
p678
aVyet
p679
aVyouuuu
p680
a(V4th
p681
g644
tp682
a(g681
g644
Vhilarious
p683
tp684
a(Vactual
p685
Vfuck
p686
tp687
a(g685
g686
Vsupposed
p688
tp689
a(g402
g403
Valil
p690
tp691
a(Vamp
p692
Vlaptop
p693
tp694
a(g692
g693
Vratchet
p695
tp696
a(Vamp
p697
Vsons
p698
tp699
a(Vamp
p700
Vyoure
p701
tp702
a(g700
g701
Vfunny
p703
tp704
a(Vapologise
p705
Vadvance
p706
tp707
a(g338
g622
tp708
a(Vbaby
p709
Vbaby
p710
tp711
a(g89
Vbring
p712
tp713
a(g187
Vway
p714
tp715
a(g187
g714
g705
tp716
a(Vbash
p717
Vblack
p718
tp719
a(g717
g718
g260
tp720
a(g261
g262
Vsure
p721
tp722
a(g188
Vpunch
p723
tp724
a(g188
g723
Veveryone
p725
tp726
a(g608
Vbored
p727
tp728
a(g608
g727
g692
tp729
a(g403
g690
tp730
a(g403
g690
Vbit
p731
tp732
a(Vbitch
p733
Vlike
p734
tp735
a(g733
g734
Vhoe
p736
tp737
a(g342
g636
tp738
a(g342
g636
g717
tp739
a(g718
g260
tp740
a(g718
g260
g290
tp741
a(Vbody
p742
Vsore
p743
tp744
a(Vbody
p745
Vworkouts
p746
tp747
a(g745
g746
Vlike
p748
tp749
a(g727
g692
tp750
a(g727
g692
g693
tp751
a(Vburney
p752
g570
tp753
a(g752
g570
g454
tp754
a(Vcarly
p755
g318
tp756
a(g755
g318
g319
tp757
a(g344
g755
tp758
a(g344
g755
g318
tp759
a(Vcarlyfollowme
p760
Vlove
p761
tp762
a(g760
g761
Vyou
p763
tp764
a(Vcheck
p765
Vtweet
p766
tp767
a(g765
g766
Vsaying
p768
tp769
a(Vchecked
p770
g248
tp771
a(g770
g248
g371
tp772
a(Vcheer
p773
Vplease
p774
tp775
a(g773
g774
Vnotice
p776
tp777
a(Vchelsstw
p778
Vmattsukulele
p779
tp780
a(g778
g779
Vyoull
p781
tp782
a(Vclass
p783
g681
tp784
a(g783
g681
g644
tp785
a(Vcomes
p786
Vnaturally
p787
tp788
a(g786
g787
g700
tp789
a(Vcomfort
p790
Vappreciate
p791
tp792
a(Vcringe
p793
Vyuck
p794
tp795
a(Vday
p796
Vwhole
p797
tp798
a(g796
g797
g742
tp799
a(Vdislike
p800
g342
tp801
a(g800
g342
g636
tp802
a(g310
g783
tp803
a(g310
g783
g681
tp804
a(Vdislike
p805
g346
tp806
a(Vdislike
p807
Vfact
p808
tp809
a(Vdislike
p810
Vfriends
p811
tp812
a(Vdislike
p813
Vfull
p814
tp815
a(g813
g814
g745
tp816
a(Vdislike
p817
Vguy
p818
tp819
a(Vdislike
p820
Vhate
p821
tp822
a(Vdislike
p823
g287
tp824
a(g823
g287
g194
tp825
a(Vdislike
p826
Vjusttalking
p827
tp828
a(g826
g827
Vsomeone
p829
tp830
a(Vdislike
p831
g191
tp832
a(g9
g22
tp833
a(g452
g192
g240
tp834
a(g34
Vmother
p835
tp836
a(Vdislike
p837
Vnew
p838
tp839
a(Vdislike
p840
Vone
p841
tp842
a(Vdislike
p843
g643
tp844
a(Vdislike
p845
Vpaul
p846
tp847
a(Vdislike
p848
Vpeople
p849
Vdislike
p850
tp851
a(Vdislike
p852
Vpeople
p853
Vsay
p854
tp855
a(Vdislike
p856
Vperfection
p857
tp858
a(g856
g857
Vmumford
p859
tp860
a(Vdislike
p861
Vppl
p862
tp863
a(g589
g647
tp864
a(g589
g647
Vmusic
p865
tp866
a(g463
g464
Vstrong
p867
tp868
a(Vdislike
p869
Vschool
p870
Vshowing
p871
tp872
a(g321
Vslut
p873
tp874
a(g321
g873
g44
tp875
a(Vdislike
p876
Vsmiles
p877
tp878
a(g876
g877
Vltltltltltlt
p879
tp880
a(Vdislike
p881
Vsomeone
p882
Vtries
p883
tp884
a(Vdislike
p885
Vsomeone
p886
g90
tp887
a(g468
g374
g575
tp888
a(Vdislike
p889
Vtrey
p890
tp891
a(g889
g890
Vnew
p892
tp893
a(Vdislike
p894
Vuname
p895
tp896
a(Vdislike
p897
g675
tp898
a(g445
Vget
p899
tp900
a(Vdont
p901
Vhate
p902
g413
tp903
a(Vdont
p904
Vreally
p905
tp906
a(Vdont
p907
g253
tp908
a(g907
g253
Vpeople
p909
tp910
a(Vevery
p911
Vone
p912
tp913
a(g725
g805
tp914
a(g725
g805
g346
tp915
a(Veverything
p916
Vperfect
p917
tp918
a(g916
g917
g460
tp919
a(Vfact
p920
g608
tp921
a(g920
g608
g727
tp922
a(g312
g313
Vneeds
p923
tp924
a(Vfirst
p925
Vtime
p926
tp927
a(Vfirstlady
p928
g881
tp929
a(g928
g881
g882
tp930
a(Vfollow
p931
g765
tp932
a(g931
g765
g766
tp933
a(g226
Vlove
p934
tp935
a(Vfollow
p936
g106
tp937
a(g318
g319
Vlove
p938
tp939
a(Vfollowed
p940
g778
tp941
a(g940
g778
g779
tp942
a(Vfollowers
p943
Vtwitter
p944
tp945
a(g943
g944
Vcojxzlw8pzw2
p946
tp947
a(g575
g474
tp948
a(g575
g474
g475
tp949
a(Vforward
p950
Vwembley
p951
tp952
a(g950
g951
g370
tp953
a(g283
g67
tp954
a(g283
g67
g321
tp955
a(g686
g688
tp956
a(g686
g688
Vtrain
p957
tp958
a(g814
g745
tp959
a(g814
g745
g746
tp960
a(g703
Vhell
p961
tp962
a(g352
Vlike
p963
tp964
a(g352
g963
g786
tp965
a(Vgirl
p966
g869
g870
tp967
a(g67
g321
g873
tp968
a(g487
g181
Vlove
p969
tp970
a(g240
Vcraaazzzy
p971
tp972
a(g621
Vgot
p973
tp974
a(Vhahaha
p975
Vlove
p976
tp977
a(g490
g491
Vworld
p978
tp979
a(Vhappy
p980
Vbirthday
p981
tp982
a(Vhard
p983
g352
tp984
a(g983
g352
g963
tp985
a(g902
g413
tp986
a(Vhate
p987
Vpeople
p988
tp989
a(Vhates
p990
g254
tp991
a(g990
g254
g677
tp992
a(Vheader
p993
g288
tp994
a(Vhearing
p995
g363
tp996
a(g995
g363
Vmakes
p997
tp998
a(Vhey
p999
Vlove
p1000
tp1001
a(g628
g773
tp1002
a(g628
g773
g774
tp1003
a(g683
Vthomas
p1004
tp1005
a(g683
g1004
Vbeats
p1006
tp1007
a(g736
Vyaaaass
p1008
tp1009
a(g736
g1008
Vbitch
p1010
tp1011
a(g287
g194
tp1012
a(g287
g194
g256
tp1013
a(g629
Vreally
p1014
tp1015
a(g629
g1014
g303
tp1016
a(Vice
p1017
Vcream
p1018
tp1019
a(Videntities
p1020
Vlove
p1021
tp1022
a(g1020
g1021
Vwould
p1023
tp1024
a(Vill
p1025
Vforever
p1026
tp1027
a(g357
Vpeople
p1028
tp1029
a(g357
g1028
Vlife
p1030
tp1031
a(g44
g189
tp1032
a(Vjonas
p1033
Vbrothers
p1034
tp1035
a(g827
g829
tp1036
a(g827
g829
g244
tp1037
a(Vkaikai
p1038
Vlol
p1039
tp1040
a(g1038
g1039
Vreally
p1041
tp1042
a(Vkiss
p1043
Vspain
p1044
tp1045
a(g507
g463
g464
tp1046
a(Vknow
p1047
Vmuch
p1048
tp1049
a(g1047
g1048
Vmean
p1050
tp1051
a(Vknow
p1052
g176
tp1053
a(g693
g695
tp1054
a(g693
g695
Vdislike
p1055
tp1056
a(g290
g108
tp1057
a(g290
g108
g770
tp1058
a(Vlasting
p1059
Vrelationship
p1060
tp1061
a(g1059
g1060
Vsomeone
p1062
tp1063
a(Vleads
p1064
Vunhappy
p1065
tp1066
a(g1030
g1047
tp1067
a(g1030
g1047
g1048
tp1068
a(g748
g685
tp1069
a(g748
g685
g686
tp1070
a(g963
g786
tp1071
a(g963
g786
g787
tp1072
a(Vlike
p1073
g468
g374
tp1074
a(g734
g736
tp1075
a(g734
g736
g1008
tp1076
a(g313
g923
tp1077
a(g313
g923
Vofficial
p1078
tp1079
a(Vlike
p1080
Vpeople
p1081
tp1082
a(g1039
g1041
tp1083
a(g1039
g1041
Vdislike
p1084
tp1085
a(Vlong
p1086
g1059
tp1087
a(g1086
g1059
g1060
tp1088
a(g244
Vtimei
p1089
tp1090
a(g244
g1089
g312
tp1091
a(g245
g950
tp1092
a(g245
g950
g951
tp1093
a(g578
Vdont
p1094
tp1095
a(Vlove
p1096
g1043
tp1097
a(g1096
g1043
g1044
tp1098
a(Vlove
p1099
Vlt3
p1100
tp1101
a(Vlove
p1102
Vmiss
p1103
tp1104
a(Vlove
p1105
Vmuch
p1106
Vplease
p1107
tp1108
a(g563
Vniall
p1109
tp1110
a(Vlove
p1111
Vone
p1112
tp1113
a(Vlove
p1114
g293
tp1115
a(Vlove
p1116
Vrock
p1117
tp1118
a(g1116
g1117
g651
tp1119
a(Vlove
p1120
Vseeing
p1121
tp1122
a(Vlove
p1123
g295
tp1124
a(g585
g655
tp1125
a(Vlove
p1126
Vtext
p1127
tp1128
a(Vlove
p1129
Vthe
p1130
tp1131
a(g1129
g1130
g1033
tp1132
a(Vlove
p1133
Vvisiting
p1134
tp1135
a(Vlove
p1136
g179
tp1137
a(g1021
g1023
tp1138
a(g1021
g1023
Vtake
p1139
tp1140
a(Vlove
p1141
Vyall
p1142
tp1143
a(Vlove
p1144
Vyou
p1145
Vmuch
p1146
tp1147
a(g938
g680
tp1148
a(Vmake
p1149
g182
tp1150
a(Vmake
p1151
Vlove
p1152
tp1153
a(g262
g721
tp1154
a(g262
g721
g357
tp1155
a(g997
g793
tp1156
a(g997
g793
g794
tp1157
a(g192
g240
tp1158
a(g192
g240
g971
tp1159
a(g779
g781
tp1160
a(g779
g781
Vlove
p1161
tp1162
a(g1050
Vmuch
p1163
tp1164
a(g1050
g1163
Vlove
p1165
tp1166
a(Vmeant
p1167
Vstrongly
p1168
tp1169
a(g1167
g1168
Vdislike
p1170
tp1171
a(g636
g717
tp1172
a(g636
g717
g718
tp1173
a(g248
g371
tp1174
a(g248
g371
g338
tp1175
a(g1048
g1050
tp1176
a(g1048
g1050
g1163
tp1177
a(g1106
g1107
tp1178
a(g859
g697
tp1179
a(g859
g697
g698
tp1180
a(g363
g997
tp1181
a(g363
g997
g793
tp1182
a(g787
g700
tp1183
a(g787
g700
g701
tp1184
a(g639
Vlove
p1185
tp1186
a(g923
g1078
tp1187
a(Vnew
p1188
Vsingle
p1189
tp1190
a(g1188
g1189
g1020
tp1191
a(g892
Vsong
p1192
tp1193
a(Vnext
p1194
g796
tp1195
a(g1194
g796
g797
tp1196
a(g776
g1096
tp1197
a(g776
g1096
g1043
tp1198
a(Vomg
p1199
Vlove
p1200
tp1201
a(Vone
p1202
g609
tp1203
a(Vone
p1204
Vday
p1205
tp1206
a(g1112
Vdirection
p1207
tp1208
a(g18
g151
tp1209
a(g909
g856
g857
tp1210
a(g1028
g1030
tp1211
a(g1028
g1030
g1047
tp1212
a(Vpeople
p1213
Vlike
p1214
tp1215
a(Vpeople
p1216
Vput
p1217
tp1218
a(g853
g854
tp1219
a(g853
g854
Vyuuuuss
p1220
tp1221
a(g917
g460
tp1222
a(g917
g460
g461
tp1223
a(g857
g859
tp1224
a(g857
g859
g697
tp1225
a(g644
g683
tp1226
a(g644
g683
g1004
tp1227
a(Vperson
p1228
g876
g877
tp1229
a(Vplease
p1230
g931
g765
tp1231
a(g319
g938
tp1232
a(g319
g938
g680
tp1233
a(g774
g776
tp1234
a(g774
g776
g1096
tp1235
a(Vpretty
p1236
Vlove
p1237
tp1238
a(g723
g725
tp1239
a(g723
g725
g805
tp1240
a(g647
g865
tp1241
a(g695
g1055
tp1242
a(Vreally
p1243
g826
g827
tp1244
a(g1014
g303
g304
tp1245
a(Vreally
p1246
Vlike
p1247
tp1248
a(g464
g867
tp1249
a(g464
g867
g995
tp1250
a(g367
g563
g1109
tp1251
a(g1060
g1062
tp1252
a(g1060
g1062
Vsupport
p1253
tp1254
a(Vreleased
p1255
g1188
tp1256
a(g1255
g1188
g1189
tp1257
a(g1117
g651
tp1258
a(Vsay
p1259
Vdislike
p1260
tp1261
a(g37
g29
tp1262
a(g854
g1220
tp1263
a(g854
g1220
g733
tp1264
a(g768
g940
tp1265
a(g768
g940
g778
tp1266
a(g870
g871
tp1267
a(g870
g871
g943
tp1268
a(g253
g909
tp1269
a(g253
g909
g856
tp1270
a(g370
g665
tp1271
a(g370
g665
Vthroat
p1272
tp1273
a(g871
g943
tp1274
a(g871
g943
g944
tp1275
a(g1189
g1020
tp1276
a(g1189
g1020
g1021
tp1277
a(g371
g338
tp1278
a(g371
g338
g622
tp1279
a(g873
g44
tp1280
a(g873
g44
g189
tp1281
a(g877
g879
tp1282
a(Vsnappin
p1283
g845
tp1284
a(g1283
g845
g846
tp1285
a(g654
g1216
tp1286
a(Vsomeone
p1287
Vdislike
p1288
tp1289
a(g829
g244
tp1290
a(g829
g244
g1089
tp1291
a(g1062
g1253
tp1292
a(g1062
g1253
Vtrust
p1293
tp1294
a(g882
g883
tp1295
a(g882
g883
g983
tp1296
a(g886
g90
tp1297
a(g886
g90
g585
tp1298
a(Vsomething
p1299
Vlike
p1300
tp1301
a(Vsometimes
p1302
g242
tp1303
a(g194
g256
tp1304
a(g194
g256
g1064
tp1305
a(g177
g885
tp1306
a(g177
g885
g886
tp1307
a(Vsorry
p1308
Vtom
p1309
tp1310
a(g374
g575
g474
tp1311
a(g656
Vdislike
p1312
tp1313
a(Vstrong
p1314
g889
tp1315
a(g1314
g889
g890
tp1316
a(g867
g995
tp1317
a(g867
g995
g363
tp1318
a(g254
g677
tp1319
a(g254
g677
g1167
tp1320
a(g33
g34
g835
tp1321
a(g657
Vlove
p1322
tp1323
a(g658
Vsubtweets
p1324
tp1325
a(g1253
g1293
tp1326
a(g1253
g1293
g790
tp1327
a(g688
g957
tp1328
a(g688
g957
g1194
tp1329
a(g721
g357
tp1330
a(g721
g357
g1028
tp1331
a(Vswear
p1332
Vugly
p1333
tp1334
a(g1332
g1333
Vpeople
p1335
tp1336
a(g1139
Vlisten
p1337
tp1338
a(g255
Vback
p1339
tp1340
a(g256
g1064
tp1341
a(g256
g1064
g1065
tp1342
a(Vthats
p1343
Vdislike
p1344
tp1345
a(g1130
g1033
tp1346
a(g1130
g1033
g1034
tp1347
a(Vthey
p1348
Vare
p1349
tp1350
a(Vthis
p1351
Vlove
p1352
tp1353
a(g1004
g1006
tp1354
a(g197
g310
g783
tp1355
a(g1272
g187
tp1356
a(g1272
g187
g714
tp1357
a(g108
g770
tp1358
a(g108
g770
g248
tp1359
a(g1089
g312
tp1360
a(g1089
g312
g313
tp1361
a(Vtoday
p1362
g966
tp1363
a(g1362
g966
g869
tp1364
a(g665
g1272
tp1365
a(g665
g1272
g187
tp1366
a(g957
g1194
tp1367
a(g957
g1194
g796
tp1368
a(g890
g892
tp1369
a(g890
g892
g1192
tp1370
a(g883
g983
tp1371
a(g883
g983
g352
tp1372
a(g1293
g790
tp1373
a(g1293
g790
g791
tp1374
a(Vtrying
p1375
Vget
p1376
tp1377
a(g90
g585
g655
tp1378
a(g766
g768
tp1379
a(g766
g768
g940
tp1380
a(g944
g946
tp1381
a(g257
g589
g647
tp1382
a(Vunderstands
p1383
Vmuch
p1384
tp1385
a(g1383
g1384
Vdislike
p1386
tp1387
a(g671
Vvom
p1388
tp1389
a(Vwant
p1390
g1086
tp1391
a(g1390
g1086
g1059
tp1392
a(Vwashington
p1393
Vlove
p1394
tp1395
a(g714
g705
tp1396
a(g714
g705
g706
tp1397
a(Vweird
p1398
Vguess
p1399
tp1400
a(g951
g370
tp1401
a(g951
g370
g665
tp1402
a(Vwhen
p1403
g1228
tp1404
a(g1403
g1228
g876
tp1405
a(g797
g742
tp1406
a(g797
g742
g743
tp1407
a(Vwhy
p1408
g46
tp1409
a(g260
g290
tp1410
a(g260
g290
g108
tp1411
a(g677
g1167
tp1412
a(g677
g1167
g1168
tp1413
a(g746
g748
tp1414
a(g746
g748
g685
tp1415
a(g181
g969
tp1416
a(Vwould
p1417
g490
tp1418
a(g1417
g490
g491
tp1419
a(g46
Vsomeone
p1420
tp1421
a(g1023
g1139
tp1422
a(g1023
g1139
g1337
tp1423
a(Vwrong
p1424
Vtiming
p1425
tp1426
a(g1008
g1010
tp1427
a(Vyou
p1428
Vlove
p1429
tp1430
a(g1145
g1146
tp1431
a(g781
g1161
tp1432
a(g701
g703
tp1433
a(g701
g703
g961
tp1434
a(g1220
g733
tp1435
a(g1220
g733
g734
tp1436
aV100
p1437
ag681
aVabout
p1438
ag685
aVadmire
p1439
ag706
aVafraid
p1440
aVago
p1441
aValready
p1442
aValso
p1443
aVannoys
p1444
aVanother
p1445
aVanymore
p1446
ag705
ag791
ag1349
aVaww
p1447
aVawwh
p1448
aVbae
p1449
ag717
ag1006
aVbed
p1450
aVbestfriend
p1451
aVbird
p1452
aVblind
p1453
aVboo
p1454
ag727
aVbottom
p1455
aVboys
p1456
aVbrother
p1457
ag752
aVbye
p1458
aVcall
p1459
aVcalled
p1460
aVcareer
p1461
ag755
aVchange
p1462
ag770
ag773
ag778
ag783
aVclick
p1463
ag946
aVcold
p1464
ag786
ag790
aVconcert
p1465
aVconverse
p1466
ag971
ag1018
ag793
aVcry
p1467
aVcucu
p1468
aVcutest
p1469
aVcuz
p1470
aVdat
p1471
aVdoesnt
p1472
aVdoor
p1473
aVdream
p1474
aVdying
p1475
aVeat
p1476
aVeyes
p1477
aVfans
p1478
aVfar
p1479
aVfat
p1480
aVfeeling
p1481
aVfeet
p1482
aVfigure
p1483
ag928
aVfish
p1484
ag940
ag950
aVfour
p1485
aVfreshman
p1486
aVfriend
p1487
ag814
aVfun
p1488
aVglory
p1489
aVgonna
p1490
ag818
ag975
aVhair
p1491
aVharry
p1492
ag990
aVhave
p1493
ag993
ag995
ag961
ag683
ag736
aVhouse
p1494
ag1017
ag1020
aVintroduce
p1495
ag1033
aVjustin
p1496
ag827
ag1038
aVkid
p1497
aVkids
p1498
aVkinda
p1499
aVkissed
p1500
aVkobe
p1501
ag693
ag1059
ag1064
aVliking
p1502
ag1337
aVlistening
p1503
aVliterally
p1504
aVloud
p1505
ag879
aVlunch
p1506
aVmales
p1507
ag779
aVmay
p1508
aVmeans
p1509
ag1167
aVmet
p1510
aVmiddle
p1511
aVminute
p1512
aVmoon
p1513
aVmore
p1514
ag835
aVmouth
p1515
aVmovies
p1516
ag859
ag787
ag923
ag1194
ag1109
aVoffice
p1517
ag1078
aVover
p1518
aVpants
p1519
ag846
ag857
aVpicture
p1520
ag862
aVproblems
p1521
ag723
aVqueen
p1522
aVrant
p1523
ag695
aVray
p1524
ag1255
aVremember
p1525
aVreturn
p1526
ag1117
ag1121
aVself
p1527
aVshe
p1528
aVsheeran
p1529
aVshes
p1530
aVshorts
p1531
aVshots
p1532
aVsick
p1533
aVsimple
p1534
ag1189
ag873
aVsmh
p1535
ag1283
aVsongsthatwillnevergetold
p1536
ag698
aVsoon
p1537
aVsoooo
p1538
ag743
ag1044
aVstarted
p1539
aVstory
p1540
aVstupid
p1541
aVsummer
p1542
ag688
aVsweetest
p1543
aVtalking
p1544
aVtears
p1545
aVthen
p1546
aVthere
p1547
ag1004
aVthought
p1548
ag1272
aVthrow
p1549
aVtim
p1550
ag1089
ag1425
ag1309
aVtook
p1551
ag957
ag890
ag883
ag1293
aVtrynna
p1552
ag895
aVunderstand
p1553
ag1383
aVunfollow
p1554
ag1065
aVusually
p1555
ag1134
aVwalk
p1556
aVwanted
p1557
ag1393
aVwatch
p1558
aVwear
p1559
aVweather
p1560
ag951
aVwent
p1561
aVwin
p1562
aVwoman
p1563
aVwonder
p1564
ag746
aVworst
p1565
aVwow
p1566
aVxox
p1567
ag1008
aVyah
p1568
ag781
ag794
ag1220
aVzayn
p1569
a(g1437
Vdislike
p1570
tp1571
a(V100
p1572
Vsomething
p1573
tp1574
a(g1572
g1573
Vthank
p1575
tp1576
a(V1000
p1577
Vsongs
p1578
tp1579
a(g1577
g1578
Viphone
p1580
tp1581
a(V123
p1582
Vpeople
p1583
tp1584
a(g1582
g1583
Vdislike
p1585
tp1586
a(V15k
p1587
g282
tp1588
a(g1587
g282
g1490
tp1589
a(V1slow
p1590
Vinternet
p1591
tp1592
a(g1590
g1591
Vconnection
p1593
tp1594
a(V20factsaboutme20factsaboutme
p1595
Vlove
p1596
tp1597
a(g1595
g1596
Vtext
p1598
tp1599
a(V21213
p1600
Vbeyond
p1601
tp1602
a(g1600
g1601
Vlove
p1603
tp1604
a(V23k
p1605
Vagen
p1606
tp1607
a(g1605
g1606
Vpls
p1608
tp1609
a(V2plans
p1610
Vgetting
p1611
tp1612
a(g1610
g1611
Vcanceled
p1613
tp1614
a(V2years
p1615
Vapart
p1616
tp1617
a(g1615
g1616
Vstill
p1618
tp1619
a(V3people
p1620
Vdislike4homework
p1621
tp1622
a(V4ammy
p1623
Vaunt
p1624
tp1625
a(g1623
g1624
Vpassed
p1626
tp1627
a(V50000
p1628
Vfollowers
p1629
tp1630
a(g1628
g1629
Voriginally
p1631
tp1632
a(V64zoolane
p1633
Vwould
p1634
tp1635
a(g1633
g1634
Vlove
p1636
tp1637
a(Vabc
p1638
Vwould
p1639
tp1640
a(g1638
g1639
Vlove
p1641
tp1642
a(Vability
p1643
Vmake
p1644
tp1645
a(g1643
g1644
Vpeople
p1646
tp1647
a(Vable
p1648
Vshorts
p1649
tp1650
a(g1648
g1649
Vcut
p1651
tp1652
a(Vabout
p1653
Vion
p1654
tp1655
a(g1653
g1654
Vhate
p1656
tp1657
a(g1438
Vyou
p1658
tp1659
a(Vabsolutelly
p1660
Vamazing
p1661
tp1662
a(Vabsolutely
p1663
Vlove
p1664
tp1665
a(g1663
g1664
Vwork
p1666
tp1667
a(Vacc
p1668
Vperfect
p1669
tp1670
a(Vaccepted
p1671
Vaccidentally
p1672
tp1673
a(g1671
g1672
Vdeliberately
p1674
tp1675
a(g1672
g1674
tp1676
a(g1672
g1674
Vdropped
p1677
tp1678
a(Vaccount
p1679
Vrates
p1680
tp1681
a(g1679
g1680
Vpls
p1682
tp1683
a(Vaccounts
p1684
Vjust
p1685
tp1686
a(Vact
p1687
Vdifferent
p1688
tp1689
a(g1687
g1688
Varound
p1690
tp1691
a(g604
Vlike
p1692
tp1693
a(g604
g1692
Vlil
p1694
tp1695
a(Vact
p1696
Vroom
p1697
tp1698
a(g1696
g1697
Vsomeone
p1699
tp1700
a(Vactin
p1701
Vlike
p1702
tp1703
a(g1701
g1702
Vdont
p1704
tp1705
a(Vactions
p1706
Vlove
p1707
tp1708
a(g1706
g1707
Veveryone
p1709
tp1710
a(Vactually
p1711
g901
tp1712
a(g1711
g901
g902
tp1713
a(Vactually
p1714
Vkidding
p1715
tp1716
a(g1714
g1715
g560
tp1717
a(g392
g393
g238
tp1718
a(Vactually
p1719
Vlove
p1720
g1482
tp1721
a(g232
Vrefreshing
p1722
tp1723
a(g232
g1722
Vamaz
p1724
tp1725
a(Vaddicted
p1726
Vmuch
p1727
tp1728
a(g1726
g1727
g236
tp1729
a(Vadios
p1730
Vyuckkyy
p1731
tp1732
a(g1439
Vexpensive
p1733
tp1734
a(g1439
g1733
Vtastee
p1735
tp1736
a(Vadmire
p1737
Vwinston
p1738
tp1739
a(g1737
g1738
Vchurchill
p1740
tp1741
a(Vadnd
p1742
Vlove
p1743
tp1744
a(g1742
g1743
Vcoz
p1745
tp1746
a(Vadore
p1747
Vlt3
p1748
tp1749
a(Vaffair
p1750
Vtoday
p1751
tp1752
a(g1750
g1751
Vpint
p1753
tp1754
a(Vaffection
p1755
Vloyalty
p1756
tp1757
a(g1755
g1756
Vgood
p1758
tp1759
a(g1440
Vdead
p1760
tp1761
a(g1440
g1760
g1475
tp1762
a(Vafraid
p1763
Vsay
p1764
tp1765
a(g1763
g1764
Vthink
p1766
tp1767
a(Vagainst
p1768
g627
tp1769
a(g1768
g627
Vco9pwploip28
p1770
tp1771
a(g1606
g1608
tp1772
a(g1606
g1608
Vlove
p1773
tp1774
a(Vago
p1775
Vdidnt
p1776
tp1777
a(g1775
g1776
Veven
p1778
tp1779
a(g1441
Vlove
p1780
tp1781
a(Vaint
p1782
Vbad
p1783
tp1784
a(g1782
g1783
Vcha
p1785
tp1786
a(Vaint
p1787
Vlove
p1788
tp1789
a(g1787
g1788
g1442
tp1790
a(Vaint
p1791
Vnobody
p1792
tp1793
a(g1791
g1792
Vgot
p1794
tp1795
a(Vaka
p1796
Vassburger
p1797
tp1798
a(g1796
g1797
Vwth
p1799
tp1800
a(Valibi
p1801
g612
tp1802
a(g1801
g612
Vdislike
p1803
tp1804
a(Valil
p1805
Vbit
p1806
g1102
tp1807
a(Valive
p1808
Vnotice
p1809
tp1810
a(g1808
g1809
Vplease
p1811
tp1812
a(Vallegiance
p1813
Vblind
p1814
tp1815
a(g1813
g1814
Vwithout
p1816
tp1817
a(Vallen
p1818
Vplay
p1819
tp1820
a(g1818
g1819
Vdamn
p1821
tp1822
a(Vallmens
p1823
Vschool
p1824
tp1825
a(g1823
g1824
Vpriests
p1826
tp1827
a(Valong
p1828
Vlove
p1829
tp1830
a(g1828
g1829
Vface
p1831
tp1832
a(Valot
p1833
Vhappy
p1834
tp1835
a(g1833
g1834
Vpeople
p1836
tp1837
a(g1442
g280
tp1838
a(g1442
g280
Vinnit
p1839
tp1840
a(Valready
p1841
Vknow
p1842
tp1843
a(g1841
g1842
Vlove
p1844
tp1845
a(Valso
p1846
Vgotten
p1847
tp1848
a(g1443
Vtotally
p1849
tp1850
a(g1443
g1849
Vlove
p1851
tp1852
a(Valways
p1853
g607
tp1854
a(g1853
g607
g617
tp1855
a(Valways
p1856
Vdislike
p1857
tp1858
a(Valways
p1859
Vgets
p1860
tp1861
a(g1859
g1860
Vput
p1862
tp1863
a(Valways
p1864
Vlike
p1865
tp1866
a(g1864
g1865
g1199
tp1867
a(Valways
p1868
Vlove
p1869
tp1870
a(g1868
g1869
Vyou
p1871
tp1872
a(g96
Vmakes
p1873
tp1874
a(g96
g1873
g291
tp1875
a(Valways
p1876
Vruining
p1877
tp1878
a(g1876
g1877
Vthings
p1879
tp1880
a(Valways
p1881
Vsays
p1882
tp1883
a(g1881
g1882
Vmingle
p1884
tp1885
a(Valways
p1886
Vupset
p1887
tp1888
a(g1886
g1887
Vthats
p1889
tp1890
a(Valways
p1891
g180
tp1892
a(Valways
p1893
Vwrong
p1894
tp1895
a(g1893
g1894
Vtiming
p1896
tp1897
a(Valwayss
p1898
Vimpaul
p1899
tp1900
a(g1898
g1899
Vsnappin
p1901
tp1902
a(Vamber
p1903
Vugh
p1904
tp1905
a(g1903
g1904
Vdislike
p1906
tp1907
a(Vamerica
p1908
Vsomewhere
p1909
tp1910
a(g1908
g1909
Vfar
p1911
tp1912
a(Vamong
p1913
Vmany
p1914
tp1915
a(g1913
g1914
Vreasons
p1916
tp1917
a(Vamount
p1918
Vdislike
p1919
tp1920
a(g1918
g1919
Vtowards
p1921
tp1922
a(Vamp
p1923
Vaffectionnnn
p1924
tp1925
a(g56
Vbasically
p1926
tp1927
a(g56
g1926
g3
tp1928
a(Vamp
p1929
Vbooji
p1930
tp1931
a(g1929
g1930
Vpeople
p1932
tp1933
a(Vamp
p1934
Vfantabulous
p1935
tp1936
a(g1934
g1935
Vlove
p1937
tp1938
a(Vamp
p1939
Vflop
p1940
tp1941
a(g1939
g1940
g336
tp1942
a(Vamp
p1943
Vhes
p1944
tp1945
a(g1943
g1944
Vworst
p1946
tp1947
a(Vamp
p1948
Vhug
p1949
tp1950
a(Vamp
p1951
Vmainmain
p1952
tp1953
a(g1951
g1952
Vlove
p1954
tp1955
a(Vamp
p1956
Vpromise
p1957
tp1958
a(g1956
g1957
Vtell
p1959
tp1960
a(Vamp
p1961
Vscary
p1962
tp1963
a(g1961
g1962
Vcommercials
p1964
tp1965
a(Vamp
p1966
Vthe
p1967
tp1968
a(g1966
g1967
Vcrazy
p1969
tp1970
a(Vamp
p1971
g299
tp1972
a(g1971
g299
Vglory
p1973
tp1974
a(Vampamp
p1975
Vteased
p1976
tp1977
a(g1975
g1976
Vwhole
p1978
tp1979
a(Vand
p1980
Vawwh
p1981
tp1982
a(g1980
g1981
Vlove
p1983
tp1984
a(Vand
p1985
Vlike
p1986
tp1987
a(g1985
g1986
g1524
tp1988
a(Vand
p1989
Vread
p1990
tp1991
a(g1989
g1990
Vthis
p1992
tp1993
a(Vand
p1994
Vterrible
p1995
tp1996
a(g1994
g1995
Vthings
p1997
tp1998
a(Vanddislike
p1999
g634
tp2000
a(g1999
g634
Vbit
p2001
tp2002
a(Vandroid
p2003
Vcalm
p2004
tp2005
a(Vang
p2006
Vlove
p2007
tp2008
a(g2006
g2007
g1891
tp2009
a(Vangel
p2010
Vlove
p2011
tp2012
a(Vanimals
p2013
g477
tp2014
a(g2013
g477
g66
tp2015
a(Vannounce
p2016
Varrival
p2017
tp2018
a(g2016
g2017
Vrex
p2019
tp2020
a(Vannoy
p2021
Vcodxpmickfxd
p2022
tp2023
a(g605
Vsometimes
p2024
tp2025
a(g605
g2024
Vhes
p2026
tp2027
a(Vannoying
p2028
Vstrongly
p2029
tp2030
a(g2028
g2029
Vdislike
p2031
tp2032
a(g1444
Vdislike
p2033
tp2034
a(g1444
g2033
g252
tp2035
a(Vannoys
p2036
Vlike
p2037
tp2038
a(g2036
g2037
Vpeople
p2039
tp2040
a(Vanother
p2041
g1465
tp2042
a(g2041
g1465
g599
tp2043
a(g1445
Vlove
p2044
tp2045
a(g1445
g2044
Vshort
p2046
tp2047
a(Vanswer
p2048
Vyet
p2049
tp2050
a(Vantiamerican
p2051
Vwhy
p2052
tp2053
a(g2051
g2052
Vwould
p2054
tp2055
a(Vanybody
p2056
g1299
tp2057
a(g2056
g1299
g1300
tp2058
a(Vanymore
p2059
Vdoesnt
p2060
tp2061
a(g2059
g2060
Vmean
p2062
tp2063
a(g1446
Vill
p2064
tp2065
a(g1446
g2064
Vforever
p2066
tp2067
a(Vanyone
p2068
g1918
tp2069
a(g2068
g1918
g1919
tp2070
a(Vanyone
p2071
Vdislike
p2072
g613
tp2073
a(g413
g414
Vmuch
p2074
tp2075
a(Vanyone
p2076
Vdislike
p2077
Vthe
p2078
tp2079
a(Vanyone
p2080
Vdont
p2081
tp2082
a(g2080
g2081
Vlike
p2083
tp2084
a(Vanyone
p2085
Vlol
p2086
tp2087
a(g2085
g2086
Vsome
p2088
tp2089
a(Vanything
p2090
Vlike
p2091
tp2092
a(g2090
g2091
Vdislike
p2093
tp2094
a(g606
Vyet
p2095
tp2096
a(g606
g2095
Vmike
p2097
tp2098
a(g1616
g1618
tp2099
a(g1616
g1618
Vdeeply
p2100
tp2101
a(Vapp
p2102
Vgotta
p2103
tp2104
a(g2102
g2103
Vtalk
p2105
tp2106
a(Vapparently
p2107
g335
tp2108
a(g2107
g335
Vcivilized
p2109
tp2110
a(Vapple
p2111
Vproducts
p2112
tp2113
a(g2111
g2112
Voperate
p2114
tp2115
a(Vaquarium
p2116
Vweirdphobia
p2117
tp2118
a(Vare
p2119
Vgonna
p2120
tp2121
a(g2119
g2120
Vhappy
p2122
tp2123
a(g1349
Vthe
p2124
tp2125
a(g1349
g2124
Vsweetest
p2126
tp2127
a(g335
g2109
tp2128
a(g335
g2109
Varent
p2129
tp2130
a(Varent
p2131
Vsexy
p2132
tp2133
a(g2131
g2132
Vcorvettes
p2134
tp2135
a(Varent
p2136
Vwavelength
p2137
tp2138
a(g2136
g2137
g2059
tp2139
a(Vargue
p2140
g298
tp2141
a(g2140
g298
Vtalismanic
p2142
tp2143
a(Varguing
p2144
Vhate
p2145
tp2146
a(g2144
g2145
g1701
tp2147
a(Varound
p2148
g1623
tp2149
a(g2148
g1623
g1624
tp2150
a(g1690
Vcertain
p2151
tp2152
a(g1690
g2151
Vpeople
p2153
tp2154
a(g336
Vlike
p2155
tp2156
a(g336
g2155
g1484
tp2157
a(Varound
p2158
Vsay
p2159
tp2160
a(g2158
g2159
Vbabyy
p2161
tp2162
a(g2017
g2019
tp2163
a(g2017
g2019
Vrayne
p2164
tp2165
a(Varse
p2166
Vupnn
p2167
tp2168
a(Vashley
p2169
Vdislike
p2170
tp2171
a(g2169
g2170
Vyoulol
p2172
tp2173
a(g607
g617
tp2174
a(g607
g617
Vsubmissive
p2175
tp2176
a(Vask
p2177
Vrainy
p2178
tp2179
a(g2177
g2178
Vdayim
p2180
tp2181
a(Vask
p2182
g1259
tp2183
a(g2182
g1259
g1260
tp2184
a(Vasked
p2185
g1557
tp2186
a(g2185
g1557
g1017
tp2187
a(Vasking
p2188
Vfirst
p2189
tp2190
a(Vaskolly
p2191
Vxxxxx
p2192
tp2193
a(Vasperger
p2194
g1796
tp2195
a(g2194
g1796
g1797
tp2196
a(Vass
p2197
Vgirl
p2198
tp2199
a(g2197
g2198
Vgrow
p2200
tp2201
a(Vassand
p2202
Vtits
p2203
tp2204
a(g2202
g2203
g1516
tp2205
a(g1797
g1799
tp2206
a(Vatm
p2207
Vdislike
p2208
tp2209
a(g2207
g2208
g2003
tp2210
a(Vattention
p2211
Vreally
p2212
tp2213
a(g2211
g2212
Vhehehe
p2214
tp2215
a(Vatvespa
p2216
Vthanks
p2217
tp2218
a(g2216
g2217
g2006
tp2219
a(Vaunt
p2220
Vfran
p2221
tp2222
a(g2220
g2221
Vmiss
p2223
tp2224
a(g1624
g1626
tp2225
a(g1624
g1626
Vaway
p2226
tp2227
a(Vauntie
p2228
Vlove
p2229
tp2230
a(Vaunts
p2231
Vpiss
p2232
tp2233
a(g2231
g2232
Vreason
p2234
tp2235
a(Vaustin
p2236
Vsanti
p2237
tp2238
a(g2236
g2237
Vnick
p2239
tp2240
a(Vauth
p2241
Vmom
p2242
tp2243
a(g2241
g2242
Vstill
p2244
tp2245
a(Vautomatically
p2246
Vdislike
p2247
tp2248
a(g2246
g2247
Vgetyourshittogether
p2249
tp2250
a(Vaverage
p2251
Vlooking
p2252
tp2253
a(g2251
g2252
Vgingers
p2254
tp2255
a(Vaway
p2256
Vblink
p2257
tp2258
a(g2256
g2257
Veye
p2259
tp2260
a(Vaway
p2261
Vbring
p2262
tp2263
a(g2261
g2262
Vgood
p2264
tp2265
a(Vaway
p2266
Vdislike
p2267
tp2268
a(g234
g625
tp2269
a(g234
g625
Vlawd
p2270
tp2271
a(g2226
Vlove
p2272
tp2273
a(g2226
g2272
g2220
tp2274
a(Vawesome
p2275
Vcousin
p2276
tp2277
a(g2275
g2276
Vlove
p2278
tp2279
a(g1447
Vlove
p2280
tp2281
a(Vaww
p2282
Vthanks
p2283
tp2284
a(g2282
g2283
Vsis
p2285
tp2286
a(g1448
Vdont
p2287
tp2288
a(g1448
g2287
g1467
tp2289
a(g1981
g1983
tp2290
a(g1981
g1983
Vyou
p2291
tp2292
a(Vawww
p2293
Vlove
p2294
tp2295
a(g2293
g2294
Vespecially
p2296
tp2297
a(Vaya
p2298
Vknow
p2299
tp2300
a(g2298
g2299
Vsince
p2301
tp2302
a(g709
g710
Vbaby
p2303
tp2304
a(g710
g2303
Vgot
p2305
tp2306
a(Vbaby
p2307
Vbring
p2308
Vpain
p2309
tp2310
a(g89
g712
g368
tp2311
a(Vbaby
p2312
Vfollow
p2313
tp2314
a(g2312
g2313
Vboyfriend
p2315
tp2316
a(g2303
g2305
tp2317
a(g2303
g2305
Vmuch
p2318
tp2319
a(Vbaby
p2320
g1126
g1127
tp2321
a(g300
g301
Vyouc
p2322
tp2323
a(Vbaby
p2324
Vlove
p2325
Vyoue
p2326
tp2327
a(Vbaby
p2328
Vlove
p2329
Vyoux11x
p2330
tp2331
a(Vbaby
p2332
Vlt3
p2333
tp2334
a(Vbabygirl
p2335
Vyou
p2336
tp2337
a(g2335
g2336
Vbestest
p2338
tp2339
a(Vbabyhood
p2340
Vwaaaah
p2341
tp2342
a(g2161
Vlove
p2343
tp2344
a(Vback
p2345
g1605
tp2346
a(g2345
g1605
g1606
tp2347
a(Vback
p2348
Vcarry
p2349
tp2350
a(g2348
g2349
Vkiss
p2351
tp2352
a(g142
Vhate
p2353
tp2354
a(g142
g2353
g150
tp2355
a(Vback
p2356
Vliking
p2357
tp2358
a(g2356
g2357
Vsong
p2359
tp2360
a(Vback
p2361
g178
tp2362
a(g2361
g178
Vstrongly
p2363
tp2364
a(g1339
Vwantgtfoh
p2365
tp2366
a(g1339
g2365
g1481
tp2367
a(g1783
g1785
tp2368
a(g1783
g1785
Vbig
p2369
tp2370
a(Vbad
p2371
Vlife
p2372
tp2373
a(g2371
g2372
Vpicked
p2374
tp2375
a(Vbad
p2376
Vstrongly
p2377
tp2378
a(g2376
g2377
Vdislike
p2379
tp2380
a(Vbad
p2381
Vthemthen
p2382
tp2383
a(g2381
g2382
g1564
tp2384
a(Vbae
p2385
g1841
tp2386
a(g2385
g1841
g1842
tp2387
a(Vbaee
p2388
Vhacking
p2389
tp2390
a(g2388
g2389
Vlove
p2391
tp2392
a(Vbag
p2393
Vdreamsgood
p2394
tp2395
a(g2393
g2394
Vnight
p2396
tp2397
a(Vbalanced
p2398
Vreporting
p2399
tp2400
a(g2398
g2399
Vbut
p2401
tp2402
a(Vball
p2403
Vlike
p2404
tp2405
a(g2403
g2404
Vwanted
p2406
tp2407
a(Vballin
p2408
g286
tp2409
a(g2408
g286
Vswea
p2410
tp2411
a(Vballs
p2412
Vbitch
p2413
tp2414
a(Vbarbie
p2415
Vmovies60e9
p2416
tp2417
a(Vbarely
p2418
Vwear
p2419
tp2420
a(g2418
g2419
g1531
tp2421
a(Vbartlett
p2422
Vlove
p2423
tp2424
a(g2422
g2423
Vsnow
p2425
tp2426
a(Vbased
p2427
g1696
tp2428
a(g2427
g1696
g1697
tp2429
a(g1926
g3
tp2430
a(g1926
g3
g15
tp2431
a(Vbby
p2432
Vgotchu
p2433
tp2434
a(g2432
g2433
Vgirl
p2435
tp2436
a(Vbeautiful
p2437
Vbest
p2438
tp2439
a(g2437
g2438
Vfrienddddd
p2440
tp2441
a(Vbeautiful
p2442
Vpictures
p2443
tp2444
a(g2442
g2443
Vlooks
p2445
tp2446
a(g339
g1543
tp2447
a(g339
g1543
g487
tp2448
a(Vbecause
p2449
Vlove
p2450
tp2451
a(Vbed
p2452
g1934
tp2453
a(g2452
g1934
g1935
tp2454
a(g1450
Vsince
p2455
tp2456
a(g1450
g2455
Vone
p2457
tp2458
a(Vbeeep
p2459
Vlove
p2460
tp2461
a(g2459
g2460
Veastside
p2462
tp2463
a(Vbeginning
p2464
Vreally
p2465
tp2466
a(g2464
g2465
Vdislike
p2467
tp2468
a(Vbehind
p2469
g1563
tp2470
a(g2469
g1563
Vwhose
p2471
tp2472
a(Vbeliebers
p2473
Vlong
p2474
tp2475
a(g2473
g2474
Vlove
p2476
tp2477
a(Vbelieve
p2478
Vclick
p2479
tp2480
a(Vbelieve
p2481
Vlove
p2482
tp2483
a(g2481
g2482
g349
tp2484
a(Vbelieve
p2485
Vpeople
p2486
tp2487
a(g2485
g2486
Vreally
p2488
tp2489
a(g340
g251
tp2490
a(g340
g251
Vlove
p2491
tp2492
a(Vbesides
p2493
g1478
tp2494
a(g2493
g1478
g1479
tp2495
a(g2438
g2440
tp2496
a(g2438
g2440
Vlove
p2497
tp2498
a(g341
Vgive
p2499
tp2500
a(g341
g2499
Vbest
p2501
tp2502
a(g2501
g297
tp2503
a(Vbestfriend
p2504
g1550
tp2505
a(g2504
g1550
Vwhatever
p2506
tp2507
a(Vbet
p2508
Vsomeone
p2509
tp2510
a(g2508
g2509
Vpopped
p2511
tp2512
a(Vbetter
p2513
Vcome
p2514
tp2515
a(g2513
g2514
Vtan
p2516
tp2517
a(Vbetter
p2518
Veveryone
p2519
tp2520
a(g2518
g2519
Velse
p2521
tp2522
a(Vbetter
p2523
Vfigure
p2524
tp2525
a(Vbetter
p2526
Voff
p2527
tp2528
a(g2526
g2527
Vwithout
p2529
tp2530
a(Vbetter
p2531
Vperson
p2532
tp2533
a(g2531
g2532
Vlove
p2534
tp2535
a(g1601
g1603
tp2536
a(Vbeyondaverage1
p2537
Vdislike
p2538
tp2539
a(g2537
g2538
Vmiddle
p2540
tp2541
a(Vbieber
p2542
Vway
p2543
tp2544
a(g2542
g2543
g1985
tp2545
a(Vbig
p2546
Vbooty
p2547
tp2548
a(g2546
g2547
Vbitches
p2549
tp2550
a(Vbig
p2551
Vcities
p2552
tp2553
a(g2551
g2552
Vsunsettoowowlook
p2554
tp2555
a(g2369
Vdawg
p2556
tp2557
a(g2369
g2556
Vlol
p2558
tp2559
a(Vbiggest
p2560
g1474
tp2561
a(g2560
g1474
Vfollow
p2562
tp2563
a(g609
Vdreams
p2564
tp2565
a(g609
g2564
Vlt3
p2566
tp2567
a(Vbiggest
p2568
Vhearts
p2569
tp2570
a(g2568
g2569
Vworld
p2571
tp2572
a(Vbikini
p2573
Vbirthday
p2574
tp2575
a(g2573
g2574
Vlove
p2576
tp2577
a(Vbilly
p2578
Vduffy
p2579
tp2580
a(g2578
g2579
Vdefy
p2581
tp2582
a(Vbio
p2583
Vfuck
p2584
tp2585
a(g2583
g2584
Vbitches
p2586
tp2587
a(g610
Vicon
p2588
tp2589
a(g610
g2588
Vdislike
p2590
tp2591
a(Vbio
p2592
Vlove
p2593
tp2594
a(g2592
g2593
g2312
tp2595
a(Vbion
p2596
g894
tp2597
a(g2596
g894
g895
tp2598
a(g1452
Vbird
p2599
tp2600
a(g1452
g2599
g615
tp2601
a(g2599
g615
tp2602
a(g2599
g615
Vlove
p2603
tp2604
a(Vbirds
p2605
Vthat
p2606
tp2607
a(g2605
g2606
g640
tp2608
a(Vbirthday
p2609
g2437
tp2610
a(g2609
g2437
g2438
tp2611
a(g981
Vgeorge
p2612
tp2613
a(g981
g2612
Vwashington
p2614
tp2615
a(g2574
g2576
tp2616
a(Vbirthday
p2617
Vwish
p2618
tp2619
a(g2617
g2618
Vsaid
p2620
tp2621
a(g274
Vkarma
p2622
tp2623
a(g1806
g1102
tp2624
a(g1806
g1102
g1103
tp2625
a(g2001
Vright
p2626
tp2627
a(Vbitch
p2628
Vdislike
p2629
tp2630
a(Vbitch
p2631
Veven
p2632
tp2633
a(g2631
g2632
Vlol
p2634
tp2635
a(Vbitch
p2636
Vplease
p2637
tp2638
a(g2636
g2637
Vsay
p2639
tp2640
a(Vbitches
p2641
Vcall
p2642
tp2643
a(g2641
g2642
Vlong
p2644
tp2645
a(g2586
Vget
p2646
tp2647
a(g2586
g2646
Vmoney
p2648
tp2649
a(Vbitches
p2650
Vlove
p2651
tp2652
a(g275
g361
tp2653
a(Vbitching
p2654
Vcold
p2655
tp2656
a(g2654
g2655
Vbitching
p2657
tp2658
a(g611
Vsnow
p2659
tp2660
a(g611
g2659
g2654
tp2661
a(g2657
Vsweating
p2662
tp2663
a(g2657
g2662
Vlove
p2664
tp2665
a(Vbitty
p2666
g2197
tp2667
a(g2666
g2197
g2198
tp2668
a(Vblah
p2669
Vdislike
p2670
tp2671
a(g1453
g1813
tp2672
a(g1453
g1813
g1814
tp2673
a(g1814
g1816
tp2674
a(g1814
g1816
Vstudying
p2675
tp2676
a(g2257
g2259
tp2677
a(g2257
g2259
g626
tp2678
a(Vblocked
p2679
Vlol
p2680
tp2681
a(g2679
g2680
Vstill
p2682
tp2683
a(Vblog
p2684
Vlink
p2685
tp2686
a(g2684
g2685
Vone
p2687
tp2688
a(Vblown
p2689
Vnot
p2690
tp2691
a(g2689
g2690
Vtht
p2692
tp2693
a(Vblueeyeslt333
p2694
Vomg
p2695
tp2696
a(g2694
g2695
Vlove
p2697
tp2698
a(g276
g1476
tp2699
a(g276
g1476
Vsandwich
p2700
tp2701
a(Vboiag
p2702
Vyea
p2703
tp2704
a(g2702
g2703
Vlove
p2705
tp2706
a(Vbones
p2707
Vseason6
p2708
tp2709
a(Vboo
p2710
Vill
p2711
tp2712
a(g2710
g2711
Vtake
p2713
tp2714
a(g1454
Vthang
p2715
tp2716
a(g1454
g2715
Vlove
p2717
tp2718
a(Vbooboo
p2719
g1943
tp2720
a(g2719
g1943
g1944
tp2721
a(g1930
g1932
tp2722
a(Vbook
p2723
g7
tp2724
a(g2723
g7
g1553
tp2725
a(Vbookers
p2726
g195
tp2727
a(g2726
g195
Vturned
p2728
tp2729
a(Vbooks
p2730
Vcoming
p2731
tp2732
a(g2730
g2731
Vdonations
p2733
tp2734
a(g2547
g2549
tp2735
a(Vboredddddddd
p2736
Vdont
p2737
tp2738
a(g2736
g2737
Vfollow
p2739
tp2740
a(Vborn
p2741
g1600
tp2742
a(g2741
g1600
g1601
tp2743
a(Vbother
p2744
g1375
tp2745
a(g2744
g1375
g1376
tp2746
a(Vbottom
p2747
Vheart
p2748
tp2749
a(Vbout
p2750
Vrant
p2751
tp2752
a(Vbouttime
p2753
Vspringtraining
p2754
tp2755
a(g2315
g2583
tp2756
a(g2315
g2583
g2584
tp2757
a(g612
g1803
tp2758
a(g612
g1803
Vprinciples
p2759
tp2760
a(Vboyfriend
p2761
Vlt3
p2762
tp2763
a(Vboys
p2764
g2236
tp2765
a(g2764
g2236
g2237
tp2766
a(g1456
g2694
tp2767
a(g1456
g2694
g2695
tp2768
a(Vbrazil
p2769
Vyou
p2770
tp2771
a(g2769
g2770
Vreason
p2772
tp2773
a(Vbreakfast
p2774
Vlunch
p2775
tp2776
a(g2774
g2775
Vdinner
p2777
tp2778
a(Vbring
p2779
Vdrugs
p2780
tp2781
a(g2779
g2780
g2307
tp2782
a(g2262
g2264
tp2783
a(g2262
g2264
g657
tp2784
a(g277
g513
tp2785
a(g277
g513
g89
tp2786
a(g2308
g2309
tp2787
a(g712
g368
tp2788
a(g712
g368
g2779
tp2789
a(Vbrooks
p2790
g18
tp2791
a(g2790
g18
g151
tp2792
a(g1457
g1302
tp2793
a(g1457
g1302
g242
tp2794
a(Vbrotherinlaw
p2795
Vhes
p2796
tp2797
a(g2795
g2796
Vfucken
p2798
tp2799
a(g613
g353
tp2800
a(Vbrothers
p2801
Vjust
p2802
tp2803
a(g2801
g2802
Vtake
p2804
tp2805
a(g1034
Vmuch
p2806
tp2807
a(g1034
g2806
g1348
tp2808
a(Vbubby
p2809
Veyes
p2810
tp2811
a(g2809
g2810
Vglued
p2812
tp2813
a(Vbubu
p2814
Vdrake
p2815
tp2816
a(g2814
g2815
g2719
tp2817
a(Vbullshit
p2818
Vwont
p2819
tp2820
a(g2818
g2819
Vthink
p2821
tp2822
a(Vbump
p2823
g1511
tp2824
a(g2823
g1511
Vforehead
p2825
tp2826
a(Vbunny
p2827
g1437
tp2828
a(g2827
g1437
g1570
tp2829
a(Vburning
p2830
Vpassion
p2831
tp2832
a(Vbusiness
p2833
Vits
p2834
tp2835
a(g2833
g2834
g620
tp2836
a(Vbussup
p2837
Vgot
p2838
tp2839
a(g2837
g2838
Vsnacks
p2840
tp2841
a(Vbusy
p2842
Vsmoking
p2843
tp2844
a(g2842
g2843
Vpeople
p2845
tp2846
a(g2401
Vdislike
p2847
tp2848
a(g2401
g2847
Vultra
p2849
tp2850
a(Vbut
p2851
Vlove
p2852
tp2853
a(g2851
g2852
Veminem
p2854
tp2855
a(Vbut
p2856
Vnever
p2857
tp2858
a(g2856
g2857
Vsaid
p2859
tp2860
a(Vbutterfingers
p2861
g1535
tp2862
a(g1458
Vjason
p2863
tp2864
a(g2642
g2644
tp2865
a(g2642
g2644
g2650
tp2866
a(g1459
Vnames
p2867
tp2868
a(g1459
g2867
Vdislike
p2869
tp2870
a(Vcallback
p2871
Vthanks
p2872
tp2873
a(g2871
g2872
Vtweets
p2874
tp2875
a(Vcalled
p2876
g2194
tp2877
a(g2876
g2194
g1796
tp2878
a(g1460
Vcancer
p2879
tp2880
a(g1460
g2879
g1551
tp2881
a(Vcame
p2882
Vright
p2883
tp2884
a(g2882
g2883
Vcollege
p2885
tp2886
a(Vcamera
p2887
Vangles
p2888
tp2889
a(Vcampus
p2890
Vlost
p2891
tp2892
a(g1613
g1620
tp2893
a(g1613
g1620
g1621
tp2894
a(g2879
g1551
tp2895
a(g2879
g1551
Vgrandmother
p2896
tp2897
a(Vcant
p2898
Vdecide
p2899
tp2900
a(g2898
g2899
Vlike
p2901
tp2902
a(Vcant
p2903
Vimagine
p2904
tp2905
a(g2903
g2904
Vgoing
p2906
tp2907
a(Vcant
p2908
g45
tp2909
a(g2908
g45
Vmilton
p2910
tp2911
a(g236
Vresist
p2912
tp2913
a(g236
g2912
Vfalling
p2914
tp2915
a(Vcant
p2916
Vtell
p2917
tp2918
a(g2916
g2917
Vdont
p2919
tp2920
a(Vcant
p2921
g258
tp2922
a(g2921
g258
Vdislike
p2923
tp2924
a(Vcapitals
p2925
Vdislike
p2926
tp2927
a(Vcaptain
p2928
Vstruggle
p2929
tp2930
a(g2928
g2929
Vwoodenspoon
p2931
tp2932
a(Vcar
p2933
Vmakes
p2934
tp2935
a(g2933
g2934
Vtrip
p2936
tp2937
a(Vcare
p2938
Valright
p2939
tp2940
a(Vcare
p2941
Venough
p2942
tp2943
a(g2941
g2942
Veffort
p2944
tp2945
a(Vcare
p2946
Vgot
p2947
tp2948
a(g2946
g2947
g2473
tp2949
a(g278
Vgreetings
p2950
tp2951
a(Vcare
p2952
Vlove
p2953
tp2954
a(g2952
g2953
Vyoure
p2955
tp2956
a(Vcareer
p2957
Vhes
p2958
tp2959
a(g2957
g2958
Vgot
p2960
tp2961
a(g1461
Vthing
p2962
tp2963
a(Vcarlangas
p2964
Vwonder
p2965
tp2966
a(g2964
g2965
g1526
tp2967
a(g2349
g2351
tp2968
a(g2349
g2351
Vgoodbye
p2969
tp2970
a(Vcatch
p2971
Vsomething
p2972
tp2973
a(g2971
g2972
Vmight
p2974
tp2975
a(Vcatcher
p2976
Vrye
p2977
tp2978
a(g2976
g2977
g623
tp2979
a(Vcaught
p2980
Vpun
p2981
tp2982
a(Vcause
p2983
g2842
tp2984
a(g2983
g2842
g2843
tp2985
a(g279
Vdouble
p2986
tp2987
a(Vcause
p2988
Vimma
p2989
tp2990
a(g2988
g2989
Vcry
p2991
tp2992
a(Vcause
p2993
Vknow
p2994
tp2995
a(g2993
g2994
Vnever
p2996
tp2997
a(Vcause
p2998
Vlove
p2999
tp3000
a(g2998
g2999
Vhair
p3001
tp3002
a(Vcauses
p3003
Vconfusing
p3004
tp3005
a(g3003
g3004
g2887
tp3006
a(Vcelebrate
p3007
Vsoon
p3008
tp3009
a(g3007
g3008
Vget
p3010
tp3011
a(g2151
g2153
tp3012
a(g1785
g2369
tp3013
a(g1785
g2369
g2556
tp3014
a(Vchance
p3015
Vyears
p3016
tp3017
a(g3015
g3016
g1775
tp3018
a(g1462
Vicon
p3019
tp3020
a(g1462
g3019
Vfelling
p3021
tp3022
a(Vchange
p3023
Vupdates
p3024
tp3025
a(g3023
g3024
Vphone
p3026
tp3027
a(Vchantel
p3028
Vhappy
p3029
tp3030
a(g3028
g3029
g2609
tp3031
a(Vcharacter
p3032
g376
tp3033
a(g3032
g376
Vlove
p3034
tp3035
a(g614
Vone
p3036
tp3037
a(g614
g3036
g509
tp3038
a(Vcher
p3039
g1522
tp3040
a(g3039
g1522
Vlove
p3041
tp3042
a(Vchest
p3043
g2348
tp3044
a(g3043
g2348
g2349
tp3045
a(Vchew
p3046
Vlike
p3047
tp3048
a(g3046
g3047
Vreta
p3049
tp3050
a(Vchild
p3051
Vmisbehaved
p3052
tp3053
a(g3051
g3052
g975
tp3054
a(Vchips
p3055
Vcotflcvchk7r
p3056
tp3057
a(Vchord
p3058
Vlike
p3059
tp3060
a(g3058
g3059
g2578
tp3061
a(Vchose
p3062
Vdislike
p3063
tp3064
a(g3062
g3063
Vhuman
p3065
tp3066
a(Vchristian
p3067
g2107
tp3068
a(g3067
g2107
g335
tp3069
a(Vchristine13
p3070
Vtop
p3071
tp3072
a(g3070
g3071
g1469
tp3073
a(Vchuckii
p3074
g2726
tp3075
a(g3074
g2726
g195
tp3076
a(g2552
g2554
tp3077
a(g2552
g2554
Vcoijixghn9mm
p3078
tp3079
a(g2109
g2129
tp3080
a(Vclare
p3081
Vughhhhhhhhh
p3082
tp3083
a(g3081
g3082
Vdislike
p3084
tp3085
a(g1463
Vdont
p3086
tp3087
a(g1463
g3086
g2481
tp3088
a(Vcoach
p3089
Vwells
p3090
tp3091
a(Vcoaches
p3092
Vsometimes
p3093
tp3094
a(Vcocky
p3095
Vpeople
p3096
tp3097
a(Vcojxmfrviyrv
p3098
Vlol
p3099
tp3100
a(Vcolby
p3101
g1255
tp3102
a(g3101
g1255
g1188
tp3103
a(g2655
g2657
tp3104
a(g2655
g2657
g2662
tp3105
a(g1464
g1560
tp3106
a(g1464
g1560
Vits
p3107
tp3108
a(Vcome
p3109
g1828
tp3110
a(g3109
g1828
g1829
tp3111
a(g143
g2769
tp3112
a(g143
g2769
g2770
tp3113
a(Vcome
p3114
Vportugal
p3115
tp3116
a(g3114
g3115
Vlt3
p3117
tp3118
a(g2514
g2516
tp3119
a(g2514
g2516
Vill
p3120
tp3121
a(Vcome
p3122
Vthink
p3123
tp3124
a(g3122
g3123
g1711
tp3125
a(Vcome
p3126
Vtrue
p3127
tp3128
a(g3126
g3127
Vlove
p3129
tp3130
a(g2731
g2733
tp3131
a(g2731
g2733
Vlove
p3132
tp3133
a(Vcommented
p3134
Vheight
p3135
tp3136
a(g3134
g3135
Vone
p3137
tp3138
a(Vcompared
p3139
g664
tp3140
a(g3139
g664
Vlt3
p3141
tp3142
a(Vconcert
p3143
Vright
p3144
tp3145
a(g3143
g3144
Vdamn
p3146
tp3147
a(g1465
g599
tp3148
a(g1465
g599
g600
tp3149
a(g3004
g2887
tp3150
a(g3004
g2887
g2888
tp3151
a(g1593
g1610
tp3152
a(g1593
g1610
g1611
tp3153
a(Vconsider
p3154
Vself
p3155
tp3156
a(g3154
g3155
Vpucka
p3157
tp3158
a(Vcontent
p3159
Vcunt
p3160
tp3161
a(g3159
g3160
Vmust
p3162
tp3163
a(Vcontrol
p3164
Vher
p3165
tp3166
a(g3164
g3165
Vmessy
p3167
tp3168
a(g1466
Vlove
p3169
tp3170
a(g1466
g3169
Vconverse
p3171
tp3172
a(g3171
Vseveral
p3173
tp3174
a(g3171
g3173
Vpair
p3175
tp3176
a(Vcool
p3177
Vthanks
p3178
tp3179
a(g3177
g3178
Vinfo
p3180
tp3181
a(Vcooperative
p3182
Vlove
p3183
tp3184
a(g3182
g3183
Vvisiting
p3185
tp3186
a(Vcos
p3187
g315
tp3188
a(g3187
g315
g316
tp3189
a(Vcould
p3190
g2710
tp3191
a(g3190
g2710
g2711
tp3192
a(Vcould
p3193
Vfriendsi
p3194
tp3195
a(g3193
g3194
Vrealllllllyyyyy
p3196
tp3197
a(Vcould
p3198
Vhelp
p3199
tp3200
a(Vcould
p3201
Vlol
p3202
tp3203
a(g3201
g3202
g672
tp3204
a(Vcould
p3205
Vlove
p3206
tp3207
a(g3205
g3206
Vlet
p3208
tp3209
a(Vcould
p3210
Vmean
p3211
tp3212
a(g3210
g3211
Vreally
p3213
tp3214
a(Vcould
p3215
Vsee
p3216
tp3217
a(g3215
g3216
Voneday
p3218
tp3219
a(Vcould
p3220
Vtake
p3221
tp3222
a(g3220
g3221
Vpeople
p3223
tp3224
a(Vcould
p3225
Vtomorrow
p3226
tp3227
a(g3225
g3226
Vlove
p3228
tp3229
a(g271
Vunsee
p3230
tp3231
a(g271
g3230
g2356
tp3232
a(Vcould
p3233
Vwrong
p3234
tp3235
a(g3233
g3234
g642
tp3236
a(Vcouldnt
p3237
Vmake
p3238
tp3239
a(g3237
g3238
Vlot
p3240
tp3241
a(g97
g105
tp3242
a(Vcountry
p3243
Vdislike
p3244
tp3245
a(g3243
g3244
g1453
tp3246
a(Vcouple
p3247
Vfollowers
p3248
tp3249
a(g3247
g3248
g1994
tp3250
a(Vcourse
p3251
Vposted
p3252
tp3253
a(g3251
g3252
Vrecipe
p3254
tp3255
a(Vcourtesy
p3256
Vniggaz
p3257
tp3258
a(g3256
g3257
Vlol
p3259
tp3260
a(g2276
g2278
tp3261
a(g2276
g2278
g1747
tp3262
a(g1745
Vtht
p3263
tp3264
a(Vcrawl
p3265
Vdog
p3266
tp3267
a(g3265
g3266
g1473
tp3268
a(g1969
Vthing
p3269
tp3270
a(g1969
g3269
g1653
tp3271
a(g1018
Veven
p3272
tp3273
a(g1018
g3272
Vthough
p3274
tp3275
a(Vcream
p3276
g1508
tp3277
a(g3276
g1508
Vmay
p3278
tp3279
a(Vcredit
p3280
Vkeeps
p3281
tp3282
a(g3280
g3281
g172
tp3283
a(Vcritical
p3284
Vdont
p3285
tp3286
a(g3284
g3285
Vwanna
p3287
tp3288
a(Vcross
p3289
Vthat
p3290
tp3291
a(g3289
g3290
g1913
tp3292
a(g1467
g2988
tp3293
a(g1467
g2988
g2989
tp3294
a(g2991
Vthey
p3295
tp3296
a(g2991
g3295
g2119
tp3297
a(Vcrying
p3298
Vhard
p3299
tp3300
a(g3298
g3299
g1129
tp3301
a(Vcuban
p3302
Vlistening
p3303
tp3304
a(g3302
g3303
Vright
p3305
tp3306
a(g1468
Vwhats
p3307
tp3308
a(g1468
g3307
Vcucu
p3309
tp3310
a(g3309
Vyou
p3311
tp3312
a(g3309
g3311
g2523
tp3313
a(g3160
g3162
tp3314
a(g3160
g3162
g2941
tp3315
a(g1651
Vdrive
p3316
tp3317
a(g615
g2603
tp3318
a(g615
g2603
Vthenotebook
p3319
tp3320
a(g1469
Vfreshman
p3321
tp3322
a(g1469
g3321
g2764
tp3323
a(Vcutie
p3324
Vlove
p3325
tp3326
a(g3324
g3325
Vtalks
p3327
tp3328
a(Vcuz
p3329
Vdislike
p3330
tp3331
a(g3329
g3330
Vfakes
p3332
tp3333
a(g1470
Vwahhh
p3334
tp3335
a(Vdaddy
p3336
Vthats
p3337
tp3338
a(g3336
g3337
Vdont
p3339
tp3340
a(Vdagain
p3341
g2393
tp3342
a(g3341
g2393
g2394
tp3343
a(Vdamage
p3344
Vdone
p3345
tp3346
a(Vdamn
p3347
g3256
tp3348
a(g3347
g3256
g3257
tp3349
a(g3146
Vjealous
p3350
tp3351
a(g3146
g3350
Vpriorities
p3352
tp3353
a(Vdamn
p3354
Vlove
p3355
tp3356
a(g1821
Vmuch
p3357
tp3358
a(Vdariel
p3359
Vmuch
p3360
tp3361
a(g3359
g3360
Vfag
p3362
tp3363
a(g1471
g1501
tp3364
a(g1471
g1501
Vlove
p3365
tp3366
a(g2556
g2558
tp3367
a(Vday
p3368
g2903
tp3369
a(g3368
g2903
g2904
tp3370
a(Vday
p3371
Veveryday
p3372
tp3373
a(Vday
p3374
Vhahahaha
p3375
tp3376
a(g3374
g3375
Vcorokpy8f4k4
p3377
tp3378
a(g169
Vstop
p3379
tp3380
a(g169
g3379
g676
tp3381
a(g1205
Vwatch
p3382
tp3383
a(g1205
g3382
Vplease
p3384
tp3385
a(g2180
Vtrynna
p3386
tp3387
a(g2180
g3386
Vnice
p3388
tp3389
a(Vdays
p3390
g1441
tp3391
a(g3390
g1441
g1780
tp3392
a(Vdays
p3393
Vhappy
p3394
tp3395
a(g3393
g3394
Vlove
p3396
tp3397
a(Vdays
p3398
Vreally
p3399
tp3400
a(g3398
g3399
Vdislike
p3401
tp3402
a(g1760
g1475
tp3403
a(g1760
g1475
Vfish
p3404
tp3405
a(Vdeathly
p3406
g1440
tp3407
a(g3406
g1440
g1760
tp3408
a(Vdecent
p3409
Vmovies
p3410
tp3411
a(g2899
g2901
tp3412
a(g2899
g2901
Vdislike
p3413
tp3414
a(Vdeclined
p3415
g1518
tp3416
a(g3415
g1518
g273
tp3417
a(Vdeejay
p3418
g285
tp3419
a(g3418
g285
g402
tp3420
a(Vdeelena
p3421
Vevery
p3422
tp3423
a(g3421
g3422
Vinch
p3424
tp3425
a(Vdeep
p3426
Vinside
p3427
tp3428
a(g3426
g3427
Vgirls
p3429
tp3430
a(g2100
Vlove
p3431
tp3432
a(g2100
g3431
Votheri
p3433
tp3434
a(g2581
g2076
tp3435
a(g2581
g2076
g2077
tp3436
a(Vdegrees
p3437
Vblech
p3438
tp3439
a(Vdelete
p3440
Vsongs
p3441
tp3442
a(g3440
g3441
g1791
tp3443
a(g1674
g1677
tp3444
a(Vdentist
p3445
Vgoing
p3446
tp3447
a(g3445
g3446
Vtomorrow
p3448
tp3449
a(Vdenzel
p3450
g1393
tp3451
a(g3450
g1393
g1394
tp3452
a(Vdeshaye
p3453
g1818
tp3454
a(g3453
g1818
g1819
tp3455
a(Vdesire
p3456
Vspotify
p3457
tp3458
a(Vdevobaby
p3459
Vxox
p3460
tp3461
a(g3459
g3460
Vgave
p3462
tp3463
a(Vdiamond
p3464
g669
tp3465
a(g3464
g669
Vpissed
p3466
tp3467
a(Vdid
p3468
Vwant
p3469
tp3470
a(g3468
g3469
Vtell
p3471
tp3472
a(Vdidnt
p3473
g2403
tp3474
a(g3473
g2403
g2404
tp3475
a(g1776
g1778
tp3476
a(g1776
g1778
Vipod
p3477
tp3478
a(Vdidnt
p3479
Vlike
p3480
tp3481
a(g3479
g3480
g1546
tp3482
a(g345
g362
tp3483
a(g345
g362
Vzayn
p3484
tp3485
a(Vdied
p3486
Vmom
p3487
tp3488
a(Vdif
p3489
Vreasons
p3490
tp3491
a(g3489
g3490
Vunder
p3492
tp3493
a(Vdifference
p3494
g276
tp3495
a(g3494
g276
g1476
tp3496
a(g1688
g1690
tp3497
a(g1688
g1690
g2151
tp3498
a(g616
Vguess
p3499
tp3500
a(g616
g3499
Valien
p3501
tp3502
a(Vdifferent
p3503
Vlane
p3504
tp3505
a(Vdimple
p3506
g3098
tp3507
a(g3506
g3098
g3099
tp3508
a(g2777
Vdislike
p3509
tp3510
a(g2777
g3509
Vmicro
p3511
tp3512
a(Vdirection
p3513
Vdont
p3514
tp3515
a(g3513
g3514
Veven
p3516
tp3517
a(g617
g2175
tp3518
a(Vdirectioners
p3519
Vman
p3520
tp3521
a(g3519
g3520
g379
tp3522
a(Vdirty
p3523
Vlook
p3524
tp3525
a(g3523
g3524
Vmeans
p3526
tp3527
a(Vdislike
p3528
g1438
tp3529
a(g3528
g1438
g1658
tp3530
a(g2093
g1679
g1680
tp3531
a(Vdislike
p3532
g1706
tp3533
a(g3532
g1706
g1707
tp3534
a(Vdislike
p3535
Vactivity
p3536
tp3537
a(g2208
g2003
tp3538
a(g2208
g2003
g2004
tp3539
a(Vdislike
p3540
g2085
tp3541
a(g3540
g2085
g2086
tp3542
a(Vdislike
p3543
g2102
tp3544
a(g3543
g2102
g2103
tp3545
a(Vdislike
p3546
g2144
tp3547
a(g3546
g2144
g2145
tp3548
a(Vdislike
p3549
g2231
tp3550
a(g3549
g2231
g2232
tp3551
a(Vdislike
p3552
Vbangs
p3553
tp3554
a(Vdislike
p3555
g2504
tp3556
a(g3555
g2504
g1550
tp3557
a(Vdislike
p3558
g2551
tp3559
a(g3558
g2551
g2552
tp3560
a(Vdislike
p3561
g2631
tp3562
a(g3561
g2631
g2632
tp3563
a(Vdislike
p3564
g275
tp3565
a(g3564
g275
g361
tp3566
a(g3244
g1453
tp3567
a(g3244
g1453
g1813
tp3568
a(g2031
g2707
tp3569
a(g2031
g2707
g2708
tp3570
a(g2072
g613
tp3571
a(g2072
g613
g353
tp3572
a(Vdislike
p3573
g2823
tp3574
a(g3573
g2823
g1511
tp3575
a(g167
Vchemhahaha
p3576
tp3577
a(g1906
Vco7ufhvmlhgb
p3578
tp3579
a(Vdislike
p3580
g3089
tp3581
a(g3580
g3089
g3090
tp3582
a(Vdislike
p3583
g3092
tp3584
a(g3583
g3092
g3093
tp3585
a(Vdislike
p3586
Vcobalt
p3587
tp3588
a(Vdislike
p3589
g3095
tp3590
a(g3589
g3095
g3096
tp3591
a(Vdislike
p3592
g3247
tp3593
a(g3592
g3247
g3248
tp3594
a(Vdislike
p3595
g3336
tp3596
a(g3595
g3336
g3337
tp3597
a(Vdislike
p3598
g3359
tp3599
a(g3598
g3359
g3360
tp3600
a(Vdislike
p3601
g3464
tp3602
a(g3601
g3464
g669
tp3603
a(g1344
g3519
tp3604
a(g1344
g3519
g3520
tp3605
a(g444
g445
g899
tp3606
a(Vdislike
p3607
Vdont
p3608
Vreally
p3609
tp3610
a(Vdislike
p3611
Vdont
p3612
Vtalk
p3613
tp3614
a(Vdislike
p3615
Veachother
p3616
tp3617
a(g3615
g3616
g635
tp3618
a(Vdislike
p3619
Vepisode
p3620
tp3621
a(g3619
g3620
g1538
tp3622
a(Vdislike
p3623
Veven
p3624
tp3625
a(Vdislike
p3626
Veveryone
p3627
Vgoes
p3628
tp3629
a(Vdislike
p3630
Veveryone
p3631
Vsometimes
p3632
tp3633
a(Vdislike
p3634
Vfact
p3635
Vfit
p3636
tp3637
a(g807
g808
Vloner
p3638
tp3639
a(g3330
g3332
tp3640
a(g3330
g3332
Vpeople
p3641
tp3642
a(g449
g450
Vright
p3643
tp3644
a(Vdislike
p3645
Vfamily
p3646
Vthey
p3647
tp3648
a(Vdislike
p3649
Vfat
p3650
tp3651
a(g3649
g3650
Vghetto
p3652
tp3653
a(Vdislike
p3654
Vfeeling
p3655
tp3656
a(Vdislike
p3657
Vflag
p3658
tp3659
a(g3657
g3658
Vspam
p3660
tp3661
a(Vdislike
p3662
Vfrench
p3663
tp3664
a(g3662
g3663
Vmontana
p3665
tp3666
a(Vdislike
p3667
Vfridays
p3668
tp3669
a(Vdislike
p3670
Vfriends
p3671
Vknew
p3672
tp3673
a(Vdislike
p3674
Vgame
p3675
tp3676
a(g3674
g3675
Vwait
p3677
tp3678
a(g1288
Vgetting
p3679
tp3680
a(g1288
g3679
g274
tp3681
a(g2247
g2249
tp3682
a(Vdislike
p3683
Vgirlfriend
p3684
tp3685
a(g850
Vgirls
p3686
tp3687
a(g850
g3686
Vdislike
p3688
tp3689
a(g820
g821
Vgetting
p3690
tp3691
a(Vdislike
p3692
Vhating
p3693
tp3694
a(g3692
g3693
Vtakes
p3695
tp3696
a(Vdislike
p3697
g993
tp3698
a(g3697
g993
g288
tp3699
a(g3063
g3065
tp3700
a(g3063
g3065
Vrace
p3701
tp3702
a(Vdislike
p3703
Vignore
p3704
tp3705
a(g3703
g3704
Vguess
p3706
tp3707
a(Vdislike
p3708
Vignored
p3709
tp3710
a(g3708
g3709
g2689
tp3711
a(Vdislike
p3712
g1025
tp3713
a(g3712
g1025
g1026
tp3714
a(Vdislike
p3715
Vkids
p3716
tp3717
a(g3715
g3716
Vlot
p3718
tp3719
a(Vdislike
p3720
Vknowing
p3721
tp3722
a(g3720
g3721
Vstand
p3723
tp3724
a(Vdislike
p3725
Vkobe
p3726
tp3727
a(Vdislike
p3728
Vliars
p3729
tp3730
a(Vdislike
p3731
Vlike
p3732
tp3733
a(g3731
g3732
Vfour
p3734
tp3735
a(Vdislike
p3736
g1502
tp3737
a(g3736
g1502
Vgirl
p3738
tp3739
a(Vdislike
p3740
Vlittle
p3741
tp3742
a(g3740
g3741
Vmix
p3743
tp3744
a(Vdislike
p3745
g32
tp3746
a(g3745
g32
g678
tp3747
a(Vdislike
p3748
Vlot
p3749
Vfemales
p3750
tp3751
a(g9
g22
Vgirl
p3752
tp3753
a(g1585
g360
tp3754
a(g1585
g360
Vreason
p3755
tp3756
a(Vdislike
p3757
Vmakes
p3758
tp3759
a(g3757
g3758
Vplayers
p3760
tp3761
a(g3688
g1507
tp3762
a(g3688
g1507
g831
tp3763
a(g581
Vmany
p3764
g1521
tp3765
a(Vdislike
p3766
Vmen
p3767
tp3768
a(g3766
g3767
Vdont
p3769
tp3770
a(Vdislike
p3771
Vmichigan
p3772
tp3773
a(g3771
g3772
Vstates
p3774
tp3775
a(g3509
g3511
tp3776
a(g3509
g3511
Vmanaging
p3777
tp3778
a(g2538
g2540
tp3779
a(g2538
g2540
Vschoolers
p3780
tp3781
a(Vdislike
p3782
Vmom
p3783
tp3784
a(g3782
g3783
Vright
p3785
tp3786
a(Vdislike
p3787
Vmoment
p3788
tp3789
a(Vdislike
p3790
Vmonarchs
p3791
tp3792
a(g3790
g3791
Vorganization
p3793
tp3794
a(Vdislike
p3795
Vmoran
p3796
tp3797
a(g3795
g3796
Vright
p3798
tp3799
a(g182
g183
Vlikeee
p3800
tp3801
a(g414
g2074
Vpeople
p3802
tp3803
a(Vdislike
p3804
Vmuch
p3805
Vugh
p3806
tp3807
a(Vdislike
p3808
Vmuch
p3809
g1566
tp3810
a(Vdislike
p3811
Vmustangs
p3812
tp3813
a(g3811
g3812
g2131
tp3814
a(Vdislike
p3815
Vmyeisha
p3816
tp3817
a(g3815
g3816
g3453
tp3818
a(g837
g838
g2795
tp3819
a(Vdislike
p3820
Vnew
p3821
g670
tp3822
a(Vdislike
p3823
Vnigga
p3824
tp3825
a(g3823
g3824
Vkiss
p3826
tp3827
a(Vdislike
p3828
Vnoah
p3829
tp3830
a(g3828
g3829
Vhate
p3831
tp3832
a(Vdislike
p3833
Vnone
p3834
tp3835
a(g3833
g3834
Vvices
p3836
tp3837
a(Vdislike
p3838
Vnose
p3839
tp3840
a(Vdislike
p3841
Vone
p3842
g3506
tp3843
a(g840
g841
Vexbestfriends
p3844
tp3845
a(Vdislike
p3846
Vpeanut
p3847
tp3848
a(g3846
g3847
Vbutter
p3849
tp3850
a(Vdislike
p3851
Vpecola
p3852
tp3853
a(g3851
g3852
Vyoung
p3854
tp3855
a(Vdislike
p3856
Vpeople
p3857
Vdont
p3858
tp3859
a(Vdislike
p3860
Vpeople
p3861
Vgive
p3862
tp3863
a(Vdislike
p3864
Vpeople
p3865
g1495
tp3866
a(Vdislike
p3867
Vpeople
p3868
Vquestioning
p3869
tp3870
a(Vdislike
p3871
Vpeople
p3872
Vrefer
p3873
tp3874
a(g61
g62
g255
tp3875
a(Vdislike
p3876
Vpeople
p3877
Vthink
p3878
tp3879
a(Vdislike
p3880
Vpeople
p3881
Vunnecessarily
p3882
tp3883
a(Vdislike
p3884
Vperson
p3885
tp3886
a(g3884
g3885
g2830
tp3887
a(Vdislike
p3888
Vpicture
p3889
tp3890
a(g3888
g3889
Vone
p3891
tp3892
a(Vdislike
p3893
Vplatformers
p3894
tp3895
a(g3893
g3894
Vtry
p3896
tp3897
a(g861
g862
g1886
tp3898
a(Vdislike
p3899
Vppl
p3900
Vtake
p3901
tp3902
a(g2869
Vpretend
p3903
tp3904
a(g2869
g3903
Vgive
p3905
tp3906
a(g1803
g2759
tp3907
a(g1803
g2759
g1308
tp3908
a(Vdislike
p3909
Vquick
p3910
tp3911
a(g3909
g3910
Vlol
p3912
tp3913
a(Vdislike
p3914
Vreally
p3915
Vsorry
p3916
tp3917
a(Vdislike
p3918
Vreyes13
p3919
tp3920
a(g3918
g3919
g1470
tp3921
a(Vdislike
p3922
Vrockets
p3923
tp3924
a(g2033
g252
tp3925
a(g2033
g252
g294
tp3926
a(Vdislike
p3927
Vservers
p3928
tp3929
a(g3927
g3928
Vthink
p3930
tp3931
a(Vdislike
p3932
g652
tp3933
a(g3932
g652
Vlegs
p3934
tp3935
a(Vdislike
p3936
g1533
tp3937
a(Vdislike
p3938
Vsister
p3939
tp3940
a(g3938
g3939
Vbitch
p3941
tp3942
a(Vdislike
p3943
Vskinship
p3944
tp3945
a(g3943
g3944
Vguys
p3946
tp3947
a(Vdislike
p3948
Vsnot
p3949
tp3950
a(g3948
g3949
Vhate
p3951
tp3952
a(Vdislike
p3953
Vsnow
p3954
tp3955
a(g3953
g3954
Vhate
p3956
tp3957
a(Vdislike
p3958
Vsocial
p3959
tp3960
a(g3958
g3959
Vclimbers
p3961
tp3962
a(Vdislike
p3963
Vsomehow
p3964
tp3965
a(g3963
g3964
g1859
tp3966
a(Vdislike
p3967
Vsomeone
p3968
Vdislike
p3969
tp3970
a(g185
g38
Vforgive
p3971
tp3972
a(Vdislike
p3973
Vsomeone
p3974
Vpetty
p3975
tp3976
a(Vdislike
p3977
Vsorry
p3978
tp3979
a(g3977
g3978
g2750
tp3980
a(Vdislike
p3981
Vspicy
p3982
Vfoods
p3983
tp3984
a(Vdislike
p3985
Vspoken
p3986
tp3987
a(g3985
g3986
Vmouth
p3988
tp3989
a(Vdislike
p3990
g1539
tp3991
a(g3990
g1539
g1455
tp3992
a(Vdislike
p3993
Vstill
p3994
tp3995
a(g3993
g3994
g1671
tp3996
a(g1260
Vstrongly
p3997
tp3998
a(Vdislike
p3999
Vstuck
p4000
tp4001
a(g3999
g4000
g2469
tp4002
a(Vdislike
p4003
Vsummer
p4004
tp4005
a(g4003
g4004
Vfinn
p4006
tp4007
a(Vdislike
p4008
Vtawanna
p4009
tp4010
a(g4008
g4009
Vlove
p4011
tp4012
a(Vdislike
p4013
Vten
p4014
tp4015
a(g4013
g4014
Vseconds
p4016
tp4017
a(g2077
g2078
tp4018
a(g2077
g2078
Vcult
p4019
tp4020
a(g15
Vthingstwin
p4021
tp4022
a(Vdislike
p4023
Vthink
p4024
tp4025
a(g4023
g4024
g1398
tp4026
a(Vdislike
p4027
Vthis
p4028
tp4029
a(g4027
g4028
Vthing
p4030
tp4031
a(Vdislike
p4032
g1549
tp4033
a(g4032
g1549
Vina
p4034
tp4035
a(g3413
Vtim
p4036
tp4037
a(Vdislike
p4038
Vtomatoes
p4039
tp4040
a(g1919
g1921
tp4041
a(g1919
g1921
Vunreal
p4042
tp4043
a(Vdislike
p4044
Vtrap
p4045
tp4046
a(g4044
g4045
Vmusic
p4047
tp4048
a(Vdislike
p4049
Vtrying
p4050
tp4051
a(g4049
g4050
Vget
p4052
tp4053
a(g2467
Vugh
p4054
tp4055
a(g2847
g2849
tp4056
a(g2847
g2849
Vright
p4057
tp4058
a(g894
g895
g279
tp4059
a(Vdislike
p4060
Vvideo
p4061
tp4062
a(g4060
g4061
g3159
tp4063
a(g2923
Vvideos
p4064
tp4065
a(g2923
g4064
Vyeah
p4066
tp4067
a(Vdislike
p4068
Vwalmart
p4069
tp4070
a(Vdislike
p4071
Vway
p4072
tp4073
a(g4071
g4072
g2111
tp4074
a(Vdislike
p4075
Vweak
p4076
tp4077
a(g4075
g4076
Vpeople
p4078
tp4079
a(Vdislike
p4080
Vwearing
p4081
tp4082
a(g4080
g4081
Vpants
p4083
tp4084
a(Vdislike
p4085
Vwhoever
p4086
Vgoing
p4087
tp4088
a(g897
g675
Vwant
p4089
tp4090
a(Vdislike
p4091
Vwhole
p4092
tp4093
a(g4091
g4092
Vplayermy
p4094
tp4095
a(Vdislike
p4096
Vwomen
p4097
tp4098
a(g4096
g4097
Vwhocant
p4099
tp4100
a(Vdislike
p4101
Vword
p4102
tp4103
a(g4101
g4102
g1449
tp4104
a(g1312
g384
tp4105
a(g1312
g384
Vsaturdays
p4106
tp4107
a(Vdislike
p4108
Vwyd
p4109
tp4110
a(g4108
g4109
Vtext
p4111
tp4112
a(g2170
g2172
tp4113
a(Vdislike
p4114
Vyouwe
p4115
tp4116
a(g4114
g4115
g3503
tp4117
a(Vdisoveries
p4118
Vlike
p4119
tp4120
a(g4118
g4119
Vmuch
p4121
tp4122
a(g1472
g2938
tp4123
a(g1472
g2938
g2939
tp4124
a(g2060
g2062
tp4125
a(g2060
g2062
g4114
tp4126
a(g3266
g1473
tp4127
a(g3266
g1473
g20
tp4128
a(Vdominique
p4129
Vstill
p4130
tp4131
a(g4129
g4130
Vlove
p4132
tp4133
a(g2733
g3132
tp4134
a(g2733
g3132
Vlooking
p4135
tp4136
a(Vdone
p4137
Vbye
p4138
tp4139
a(g280
g1839
tp4140
a(Vdone
p4141
Vknow
p4142
tp4143
a(g4141
g4142
g3426
tp4144
a(Vdone
p4145
Vonly
p4146
tp4147
a(g4145
g4146
Vlove
p4148
tp4149
a(g3086
g2481
tp4150
a(g3086
g2481
g2482
tp4151
a(Vdont
p4152
g3062
tp4153
a(g4152
g3062
g3063
tp4154
a(g2287
g1467
tp4155
a(g2287
g1467
g2988
tp4156
a(Vdont
p4157
g3953
tp4158
a(g4157
g3953
g3954
tp4159
a(g3514
g3516
tp4160
a(g3514
g3516
Vfollow
p4161
tp4162
a(g3858
Vfeel
p4163
tp4164
a(g3858
g4163
Vneed
p4165
tp4166
a(g2737
g2739
tp4167
a(Vdont
p4168
Vfucking
p4169
tp4170
a(g4168
g4169
Vpeople
p4171
tp4172
a(g445
g899
Vlike
p4173
tp4174
a(Vdont
p4175
Vget
p4176
Vpeople
p4177
tp4178
a(g306
g307
g2744
tp4179
a(Vdont
p4180
Vknow
p4181
Vexcited
p4182
tp4183
a(Vdont
p4184
Vknow
p4185
Vfucking
p4186
tp4187
a(g1704
Vknow
p4188
g369
tp4189
a(Vdont
p4190
Vknowmooi
p4191
tp4192
a(g4190
g4191
Vwho
p4193
tp4194
a(Vdont
p4195
Vlet
p4196
tp4197
a(g4195
g4196
Vthings
p4198
tp4199
a(g2081
g2083
Vserious
p4200
tp4201
a(g474
g475
Vspicy
p4202
tp4203
a(Vdont
p4204
Vlike
p4205
Vspicyp
p4206
tp4207
a(Vdont
p4208
Vlove
p4209
tp4210
a(g4208
g4209
Vhow
p4211
tp4212
a(Vdont
p4213
Vmind
p4214
tp4215
a(g4213
g4214
Vrain
p4216
tp4217
a(g3608
g3609
g3540
tp4218
a(g904
g905
Vmatch
p4219
tp4220
a(g2919
Vremember
p4221
tp4222
a(g2919
g4221
Vnight
p4223
tp4224
a(g3769
Vrespect
p4225
tp4226
a(g3769
g4225
Vwomen
p4227
tp4228
a(g3339
Vsay
p4229
tp4230
a(g3339
g4229
Vshit
p4231
tp4232
a(g1094
g1534
tp4233
a(g1094
g1534
Vquestion
p4234
tp4235
a(g3612
g3613
tp4236
a(g3612
g3613
g1446
tp4237
a(g477
g66
Vpower
p4238
tp4239
a(Vdont
p4240
Vthink
p4241
Vtheres
p4242
tp4243
a(Vdont
p4244
Vthink
p4245
Vunderstand
p4246
tp4247
a(Vdont
p4248
Vtime
p4249
tp4250
a(g4248
g4249
Vhate
p4251
tp4252
a(g7
g1553
tp4253
a(g7
g1553
g5
tp4254
a(g3285
g3287
tp4255
a(g3285
g3287
g2345
tp4256
a(Vdoor
p4257
g1948
tp4258
a(g4257
g1948
g1949
tp4259
a(g1473
g20
tp4260
a(g1473
g20
g1494
tp4261
a(g2815
g2719
tp4262
a(g2815
g2719
g1943
tp4263
a(Vdream
p4264
g3126
tp4265
a(g4264
g3126
g3127
tp4266
a(g1474
g2562
tp4267
a(g1474
g2562
g1417
tp4268
a(g2564
g2566
tp4269
a(g2564
g2566
Vxx7
p4270
tp4271
a(g2394
g2396
tp4272
a(g2394
g2396
Vlove
p4273
tp4274
a(Vdrop
p4275
Vimpatient
p4276
tp4277
a(g2780
g2307
tp4278
a(g2780
g2307
g2308
tp4279
a(Vdude
p4280
g1500
tp4281
a(g4280
g1500
Vguylmao
p4282
tp4283
a(g2579
g2581
tp4284
a(g2579
g2581
g2076
tp4285
a(Vduke
p4286
Vfree
p4287
tp4288
a(g4286
g4287
Vfam
p4289
tp4290
a(Vdungeon
p4291
Vgorilla
p4292
tp4293
a(g4291
g4292
Vtook
p4294
tp4295
a(g1475
g3404
tp4296
a(g1475
g3404
Vlove
p4297
tp4298
a(Vdying
p4299
Vover
p4300
tp4301
a(g4299
g4300
Vhere
p4302
tp4303
a(Vdylan
p4304
Vlove
p4305
tp4306
a(g4304
g4305
Vteen
p4307
tp4308
a(g3616
g635
tp4309
a(g3616
g635
g1493
tp4310
a(Veasily
p4311
Vproperly
p4312
tp4313
a(g4311
g4312
Vhate
p4314
tp4315
a(Veat
p4316
Vsalad
p4317
tp4318
a(g4316
g4317
Vone
p4319
tp4320
a(g1476
g2700
tp4321
a(g1476
g2700
g4316
tp4322
a(Vedition
p4323
Vvideo
p4324
tp4325
a(g4323
g4324
Vtigoy
p4326
tp4327
a(g2944
g3977
tp4328
a(g2944
g3977
g3978
tp4329
a(Vegg
p4330
g3654
tp4331
a(g4330
g3654
g3655
tp4332
a(Vemma
p4333
Vwatson
p4334
tp4335
a(Vend
p4336
g3368
tp4337
a(g4336
g3368
g2903
tp4338
a(Vengland
p4339
g2493
tp4340
a(g4339
g2493
g1478
tp4341
a(g2942
g2944
tp4342
a(g2942
g2944
g3977
tp4343
a(g3620
g1538
tp4344
a(g3620
g1538
Vbad
p4345
tp4346
a(Vepisodes
p4347
g259
tp4348
a(g4347
g259
g171
tp4349
a(g2296
Vxoxo
p4350
tp4351
a(g3516
g4161
tp4352
a(g3516
g4161
Vdislike
p4353
tp4354
a(g1778
g3477
tp4355
a(g1778
g3477
g4071
tp4356
a(g2632
g2634
tp4357
a(Vever
p4358
Vlol
p4359
tp4360
a(g4358
g4359
Vfeel
p4361
tp4362
a(g281
Vday
p4363
tp4364
a(Vevery
p4365
Vfriday
p4366
tp4367
a(g3422
g3424
tp4368
a(g3422
g3424
Vhouse
p4369
tp4370
a(g911
g912
Vxoxoxoxo
p4371
tp4372
a(g2519
g2521
tp4373
a(g3627
g3628
tp4374
a(g3627
g3628
Vschool
p4375
tp4376
a(Veveryone
p4377
Vknow
p4378
tp4379
a(g4377
g4378
g3134
tp4380
a(g1709
Vone
p4381
tp4382
a(g1709
g4381
g2568
tp4383
a(g3631
g3632
tp4384
a(g238
g3697
tp4385
a(g238
g3697
g993
tp4386
a(Veverything
p4387
Veveryone
p4388
tp4389
a(Veverything
p4390
Vpeople
p4391
tp4392
a(g4390
g4391
g2036
tp4393
a(Veverything
p4394
g648
tp4395
a(g4394
g648
g2051
tp4396
a(g4182
Vlets
p4397
tp4398
a(g4182
g4397
Vsay
p4399
tp4400
a(Vexcited
p4401
Vlove
p4402
tp4403
a(g4401
g4402
Vplease
p4404
tp4405
a(g618
g662
tp4406
a(g618
g662
g225
tp4407
a(g1733
g1735
tp4408
a(g2259
g626
tp4409
a(g2259
g626
g375
tp4410
a(g2810
g2812
tp4411
a(g2810
g2812
Vtube
p4412
tp4413
a(g1477
Vship
p4414
tp4415
a(g1477
g4414
Vone
p4416
tp4417
a(g1831
Vill
p4418
tp4419
a(g1831
g4418
g1439
tp4420
a(Vfacebook
p4421
g2246
tp4422
a(g4421
g2246
g2247
tp4423
a(g189
Vcouhzebl3yrc
p4424
tp4425
a(g3635
g3636
tp4426
a(g3635
g3636
g1577
tp4427
a(Vfact
p4428
Vhot
p4429
tp4430
a(g4428
g4429
Voutside
p4431
tp4432
a(g808
g3638
tp4433
a(g808
g3638
Vtrackgtlt
p4434
tp4435
a(g3362
g604
tp4436
a(g3362
g604
g1692
tp4437
a(g3332
g3641
tp4438
a(g3332
g3641
g1687
tp4439
a(g2914
Varmsssss
p4440
tp4441
a(g4289
Vphat
p4442
tp4443
a(g4289
g4442
g1951
tp4444
a(Vfamily
p4445
Vhappy
p4446
tp4447
a(g4445
g4446
Vcute
p4448
tp4449
a(Vfamily
p4450
Vlike
p4451
tp4452
a(g4450
g4451
Vfamily
p4453
tp4454
a(g171
Vlove
p4455
tp4456
a(g450
g3643
tp4457
a(g3646
g3647
tp4458
a(g3646
g3647
Vliterally
p4459
tp4460
a(g4453
Vtime
p4461
tp4462
a(g4453
g4461
Vsacred
p4463
tp4464
a(Vfan
p4465
g1638
tp4466
a(g4465
g1638
g1639
tp4467
a(g1478
g1479
tp4468
a(g1478
g1479
g1464
tp4469
a(g1935
g1937
tp4470
a(g1935
g1937
g1750
tp4471
a(g1911
Vaway
p4472
tp4473
a(g1479
g1464
tp4474
a(g1479
g1464
g1560
tp4475
a(g1480
g4330
tp4476
a(g1480
g4330
g3654
tp4477
a(g3650
g3652
tp4478
a(g3650
g3652
g1929
tp4479
a(Vfatty
p4480
Vgirl
p4481
tp4482
a(g4480
g4481
g925
tp4483
a(Vfavourite
p4484
g3032
tp4485
a(g4484
g3032
g376
tp4486
a(g4361
g2381
tp4487
a(g4361
g2381
g2382
tp4488
a(g190
g68
tp4489
a(g190
g68
Vyou
p4490
tp4491
a(Vfeel
p4492
Vlike
p4493
g3820
tp4494
a(Vfeel
p4495
Vlike
p4496
Vsinging
p4497
tp4498
a(g4163
g4165
tp4499
a(g4163
g4165
Vtell
p4500
tp4501
a(Vfeelin
p4502
Vspecial
p4503
tp4504
a(g4502
g4503
g2385
tp4505
a(g1481
Vbiatchhhh
p4506
tp4507
a(Vfeet
p4508
Vsoaked
p4509
tp4510
a(Vfell
p4511
Vlove
p4512
g3302
tp4513
a(Vfell
p4514
Vlove
p4515
g1541
tp4516
a(Vfell
p4517
Vlove
p4518
Vtumnus
p4519
tp4520
a(g315
g316
Vyah
p4521
tp4522
a(g3021
g1480
tp4523
a(g3021
g1480
g4330
tp4524
a(g3750
Vwould
p4525
tp4526
a(g3750
g4525
Vanything
p4527
tp4528
a(Vfights
p4529
g2916
tp4530
a(g4529
g2916
g2917
tp4531
a(g1483
g1149
tp4532
a(g1483
g1149
g182
tp4533
a(Vfilled
p4534
Vmemories
p4535
tp4536
a(g4534
g4535
Vpeople
p4537
tp4538
a(Vfind
p4539
Vlot
p4540
tp4541
a(g4539
g4540
g2427
tp4542
a(Vfinish
p4543
Vstuff
p4544
tp4545
a(Vfinished
p4546
Vwork
p4547
tp4548
a(g349
Vsight
p4549
tp4550
a(g349
g4549
g2478
tp4551
a(g925
g926
Vmuch
p4552
tp4553
a(Vfirst
p4554
Vtime
p4555
Vthought
p4556
tp4557
a(g3404
g4297
tp4558
a(g3404
g4297
Vkeep
p4559
tp4560
a(g1484
g380
tp4561
a(Vfisher
p4562
Vreally
p4563
tp4564
a(g4562
g4563
g3999
tp4565
a(g3636
g1577
tp4566
a(g3636
g1577
g1578
tp4567
a(Vfitchez757
p4568
g1314
tp4569
a(g4568
g1314
g889
tp4570
a(g3658
g3660
tp4571
a(g3658
g3660
Vthough
p4572
tp4573
a(g1940
g336
tp4574
a(g1940
g336
g2155
tp4575
a(Vfollow
p4576
V7xx
p4577
tp4578
a(g2313
g2315
tp4579
a(g2313
g2315
g2583
tp4580
a(Vfollow
p4581
g2957
tp4582
a(g4581
g2957
g2958
tp4583
a(g4161
g4353
tp4584
a(Vfollow
p4585
Vmake
p4586
tp4587
a(g4585
g4586
Vhappiest
p4588
tp4589
a(Vfollow
p4590
Vmeis
p4591
tp4592
a(g4590
g4591
g2560
tp4593
a(Vfollow
p4594
g1202
tp4595
a(g4594
g1202
g609
tp4596
a(Vfollow
p4597
Vplease
p4598
Vamo
p4599
tp4600
a(g2562
g1417
tp4601
a(g2562
g1417
g490
tp4602
a(Vfollow
p4603
Vyou
p4604
tp4605
a(g4603
g4604
Vlove
p4606
tp4607
a(g3248
g1994
tp4608
a(g3248
g1994
g1995
tp4609
a(g282
g1490
tp4610
a(g282
g1490
g1554
tp4611
a(g1629
g1631
tp4612
a(g1629
g1631
Vmade
p4613
tp4614
a(Vfood
p4615
Vlove
p4616
tp4617
a(g4615
g4616
Vhot
p4618
tp4619
a(g3983
g1961
tp4620
a(g3983
g1961
g1962
tp4621
a(g2825
Vreal
p4622
tp4623
a(g1026
g3611
tp4624
a(g1026
g3611
g3612
tp4625
a(g619
g4333
tp4626
a(g619
g4333
g4334
tp4627
a(g2066
Vtalk
p4628
tp4629
a(g2066
g4628
Vsimple
p4630
tp4631
a(g3971
g4311
tp4632
a(g3971
g4311
g4312
tp4633
a(Vfoster
p4634
Vsure
p4635
tp4636
a(g4634
g4635
Vlove
p4637
tp4638
a(Vfound
p4639
g1489
tp4640
a(g4639
g1489
Vtonight
p4641
tp4642
a(Vfound
p4643
Vnew
p4644
tp4645
a(g4643
g4644
Vlove
p4646
tp4647
a(Vfound
p4648
Vsyndrome
p4649
tp4650
a(g4648
g4649
g2876
tp4651
a(g3734
Vgirls
p4652
tp4653
a(g3734
g4652
Vlacrosse
p4654
tp4655
a(g1485
Vweddings
p4656
tp4657
a(g1485
g4656
Vsmh
p4658
tp4659
a(g2221
g2223
tp4660
a(g2221
g2223
Vdearly
p4661
tp4662
a(g620
g97
tp4663
a(g620
g97
g105
tp4664
a(Vfree
p4665
g4286
tp4666
a(g4665
g4286
g4287
tp4667
a(g4287
g4289
tp4668
a(g4287
g4289
g4442
tp4669
a(g3663
g3665
tp4670
a(g3321
g2764
tp4671
a(g3321
g2764
g2236
tp4672
a(g1486
Vyear
p4673
tp4674
a(g1486
g4673
Vyoure
p4675
tp4676
a(g1487
g3341
tp4677
a(g1487
g3341
g2393
tp4678
a(Vfriend
p4679
Vgot
p4680
tp4681
a(g4679
g4680
Vpaisley
p4682
tp4683
a(g2440
g2497
tp4684
a(g2440
g2497
Vyou
p4685
tp4686
a(Vfriends
p4687
Vjob
p4688
tp4689
a(g3671
g3672
tp4690
a(g284
Vmuch
p4691
tp4692
a(Vfriends
p4693
Vsthudamn
p4694
tp4695
a(g3194
g3196
tp4696
a(g3194
g3196
Vlove
p4697
tp4698
a(g2584
g2586
tp4699
a(g2584
g2586
g2646
tp4700
a(g2798
Vlame
p4701
tp4702
a(Vfucking
p4703
Vdislike
p4704
tp4705
a(g4703
g4704
Vfamily
p4706
tp4707
a(Vfucking
p4708
Vlove
p4709
Vthe
p4710
tp4711
a(Vfucking
p4712
Vlove
p4713
Vyou
p4714
tp4715
a(g4169
g4171
tp4716
a(g4169
g4171
Vlike
p4717
tp4718
a(Vfun
p4719
Vlove
p4720
tp4721
a(g4719
g4720
Vretweets
p4722
tp4723
a(Vfunction
p4724
Vplane
p4725
tp4726
a(g4724
g4725
Vtoo
p4727
tp4728
a(g3675
g3677
tp4729
a(g3675
g3677
g4275
tp4730
a(Vganna
p4731
Vtel
p4732
tp4733
a(g4731
g4732
Vgoing
p4734
tp4735
a(g3462
Vlaugh
p4736
tp4737
a(g3462
g4736
Vtoday
p4738
tp4739
a(g2612
g2614
tp4740
a(g2612
g2614
Vlove
p4741
tp4742
a(Vget
p4743
g1572
tp4744
a(g4743
g1572
g1573
tp4745
a(g3010
Vhome
p4746
tp4747
a(g3010
g4746
Vlove
p4748
tp4749
a(g20
g1494
tp4750
a(g20
g1494
Vlmfao
p4751
tp4752
a(Vget
p4753
Vhugs
p4754
tp4755
a(g4753
g4754
Vtoday
p4756
tp4757
a(Vget
p4758
Vjudged
p4759
tp4760
a(g4758
g4759
Vlove
p4761
tp4762
a(g899
g4173
tp4763
a(g899
g4173
Vstill
p4764
tp4765
a(Vget
p4766
Vmindset
p4767
tp4768
a(g4766
g4767
Vthat
p4769
tp4770
a(g2646
g2648
tp4771
a(g2646
g2648
Vscratches
p4772
tp4773
a(g1376
Vnotice
p4774
tp4775
a(g1376
g4774
g1052
tp4776
a(g4052
Voutta
p4777
tp4778
a(g4176
g4177
tp4779
a(g4176
g4177
g3740
tp4780
a(Vget
p4781
Vrid
p4782
tp4783
a(g4781
g4782
Vcould
p4784
tp4785
a(g1860
g1862
tp4786
a(Vgettin
p4787
g1532
tp4788
a(g4787
g1532
Vnothin
p4789
tp4790
a(g3679
g274
tp4791
a(g3679
g274
g2622
tp4792
a(g1611
g1613
tp4793
a(g1611
g1613
g1620
tp4794
a(g172
g3415
tp4795
a(g172
g3415
g1518
tp4796
a(g3690
g4781
tp4797
a(g3690
g4781
g4782
tp4798
a(Vgetting
p4799
Vlast
p4800
tp4801
a(g4799
g4800
Vlaugh
p4802
tp4803
a(g518
Vpaid
p4804
tp4805
a(g518
g4804
g4365
tp4806
a(Vgetting
p4807
Vscoring
p4808
tp4809
a(g4807
g4808
g3023
tp4810
a(g3652
g1929
tp4811
a(g3652
g1929
g1930
tp4812
a(Vgiovanny
p4813
Vweird
p4814
tp4815
a(g4813
g4814
Vguess
p4816
tp4817
a(Vgirl
p4818
g1808
tp4819
a(g4818
g1808
g1809
tp4820
a(g3738
g1472
tp4821
a(g3738
g1472
g2938
tp4822
a(g4481
g925
tp4823
a(g4481
g925
g926
tp4824
a(g2198
g2200
tp4825
a(g2198
g2200
g2412
tp4826
a(g2435
g658
tp4827
a(g2435
g658
g1324
tp4828
a(Vgirl
p4829
Vthatll
p4830
tp4831
a(g4829
g4830
Vmake
p4832
tp4833
a(Vgirl
p4834
Vworld
p4835
Vjepsiearereadyfortigoynewvideo
p4836
tp4837
a(g3752
g679
tp4838
a(g3752
g679
g99
tp4839
a(Vgirlfriend
p4840
g2592
tp4841
a(g4840
g2592
g2593
tp4842
a(Vgirlfriend
p4843
Vdislike
p4844
tp4845
a(g4843
g4844
Vpassion
p4846
tp4847
a(Vgirls
p4848
g1864
tp4849
a(g4848
g1864
g1865
tp4850
a(g3686
g3688
tp4851
a(g3686
g3688
g1507
tp4852
a(g4652
g4654
tp4853
a(g4652
g4654
Vteam
p4854
tp4855
a(g3429
Vlove
p4856
tp4857
a(g3429
g4856
g2814
tp4858
a(g2499
g2501
tp4859
a(g2499
g2501
g297
tp4860
a(Vgive
p4861
g237
tp4862
a(Vgive
p4863
g3523
tp4864
a(g4863
g3523
g3524
tp4865
a(g241
Vmeat
p4866
tp4867
a(g3862
Vnumber
p4868
tp4869
a(g3862
g4868
Vwithout
p4870
tp4871
a(g3905
Vrats
p4872
tp4873
a(g3905
g4872
g233
tp4874
a(g621
g973
g1506
tp4875
a(Vglad
p4876
Vgot
p4877
Vschool
p4878
tp4879
a(Vglad
p4880
Vlive
p4881
tp4882
a(g4880
g4881
Vmamma
p4883
tp4884
a(Vglamgirl
p4885
g557
tp4886
a(g4885
g557
g558
tp4887
a(g1489
g4641
tp4888
a(g1489
g4641
Vdislike
p4889
tp4890
a(g2812
g4412
tp4891
a(Vgod
p4892
Vlove
p4893
tp4894
a(g4892
g4893
g2933
tp4895
a(g3628
g4375
tp4896
a(g173
g142
tp4897
a(g173
g142
g2353
tp4898
a(Vgoing
p4899
g3182
tp4900
a(g4899
g3182
g3183
tp4901
a(Vgoing
p4902
g3445
tp4903
a(g4902
g3445
g3446
tp4904
a(Vgoing
p4905
Vhappen
p4906
tp4907
a(g4905
g4906
Vlove
p4908
tp4909
a(g4734
Vnoo
p4910
tp4911
a(g4734
g4910
Vtalked
p4912
tp4913
a(g2906
Vschool
p4914
tp4915
a(g2906
g4914
Voru
p4916
tp4917
a(g4087
Vshm
p4918
tp4919
a(g4087
g4918
g3143
tp4920
a(g3446
g3448
tp4921
a(g2120
g2122
tp4922
a(g2120
g2122
Vtears
p4923
tp4924
a(g1490
g1554
tp4925
a(g1490
g1554
Vloads
p4926
tp4927
a(g354
g641
tp4928
a(g354
g641
g544
tp4929
a(Vgood
p4930
Vsaying
p4931
tp4932
a(g4930
g4931
Vlove
p4933
tp4934
a(g2264
g657
tp4935
a(g2264
g657
g1322
tp4936
a(g2969
g2340
tp4937
a(g2969
g2340
g2341
tp4938
a(g4292
g4294
tp4939
a(g4292
g4294
Vviagra
p4940
tp4941
a(g60
g1726
tp4942
a(g60
g1726
g1727
tp4943
a(g2947
g2473
tp4944
a(g2947
g2473
g2474
tp4945
a(Vgot
p4946
g2641
tp4947
a(g4946
g2641
g2642
tp4948
a(Vgot
p4949
g3657
tp4950
a(g4949
g3657
g3658
tp4951
a(g2960
Vhandful
p4952
tp4953
a(g2960
g4952
g3409
tp4954
a(Vgot
p4955
g633
tp4956
a(g4955
g633
g444
tp4957
a(Vgot
p4958
Vlove
p4959
tp4960
a(g4958
g4959
Vyaa
p4961
tp4962
a(g973
g1506
tp4963
a(g973
g1506
g3324
tp4964
a(g2305
g2318
tp4965
a(g2305
g2318
Vlove
p4966
tp4967
a(g4680
g4682
tp4968
a(g4680
g4682
g2573
tp4969
a(g4877
g4878
tp4970
a(g4877
g4878
Vrather
p4971
tp4972
a(g2838
g2840
tp4973
a(g2838
g2840
Vlove
p4974
tp4975
a(g1794
Vtime
p4976
tp4977
a(g1794
g4976
Vdat
p4978
tp4979
a(g2433
g2435
tp4980
a(g2433
g2435
g658
tp4981
a(g2103
g2105
tp4982
a(Vgrandma
p4983
g2185
tp4984
a(g4983
g2185
g1557
tp4985
a(g2896
g2256
tp4986
a(g2896
g2256
g2257
tp4987
a(Vgrawr
p4988
g3899
tp4989
a(g4988
g3899
g3900
tp4990
a(g623
g2723
tp4991
a(g623
g2723
g7
tp4992
a(Vgreat
p4993
g2871
tp4994
a(g4993
g2871
g2872
tp4995
a(Vgreat
p4996
Vdayyyyyy
p4997
tp4998
a(Vgreatly
p4999
g4096
tp5000
a(g4999
g4096
g4097
tp5001
a(g2200
g2412
tp5002
a(g2200
g2412
g2413
tp5003
a(g3499
g3501
tp5004
a(g285
g402
tp5005
a(g285
g402
g403
tp5006
a(g1399
g616
tp5007
a(g1399
g616
g3499
tp5008
a(g3706
Vsort
p5009
tp5010
a(g3706
g5009
g1080
tp5011
a(g4816
Vusually
p5012
tp5013
a(g4816
g5012
Vintroduce
p5014
tp5015
a(Vgunn
p5016
g2010
tp5017
a(g5016
g2010
g2011
tp5018
a(Vguts
p5019
Vtell
p5020
tp5021
a(g5019
g5020
Vmuch
p5022
tp5023
a(g4282
Vlove
p5024
tp5025
a(g4282
g5024
g284
tp5026
a(Vguypolk
p5027
Vreally
p5028
tp5029
a(g5027
g5028
g4101
tp5030
a(g624
g3198
tp5031
a(g624
g3198
g3199
tp5032
a(Vguys
p5033
Vthe
p5034
tp5035
a(g5033
g5034
Vworld
p5036
tp5037
a(g3946
Vwould
p5038
tp5039
a(g3946
g5038
g4753
tp5040
a(g2389
g2391
tp5041
a(g2389
g2391
Vpooh
p5042
tp5043
a(Vhadislike
p5044
Vpeople
p5045
tp5046
a(g5044
g5045
Vput
p5047
tp5048
a(Vhahah
p5049
Vknow
p5050
tp5051
a(g975
g976
Vlouis
p5052
tp5053
a(Vhahaha
p5054
Vlove
p5055
Vmuch
p5056
tp5057
a(g3375
g3377
tp5058
a(Vhahahahahaha
p5059
g378
tp5060
a(g5059
g378
Vlovely
p5061
tp5062
a(g3001
Vlike
p5063
tp5064
a(g3001
g5063
Vthat
p5065
tp5066
a(Vhammer
p5067
g3058
tp5068
a(g5067
g3058
g3059
tp5069
a(Vhand
p5070
Vjohnny
p5071
tp5072
a(g5070
g5071
Vheaux
p5073
tp5074
a(g4952
g3409
tp5075
a(g4952
g3409
g3410
tp5076
a(Vhanging
p5077
Vpeople
p5078
tp5079
a(g5077
g5078
g281
tp5080
a(Vhannah
p5081
g2028
tp5082
a(g5081
g2028
g2029
tp5083
a(g4906
g4908
tp5084
a(g4906
g4908
Vlt3xxx
p5085
tp5086
a(Vhappiest
p5087
g4818
g1808
tp5088
a(Vhappily
p5089
Vsungjae
p5090
tp5091
a(g5089
g5090
Vmakes
p5092
tp5093
a(g3029
g2609
g2437
tp5094
a(g980
g981
g2612
tp5095
a(g4446
g4448
tp5096
a(g3394
g3396
tp5097
a(Vhappy
p5098
Vmakes
p5099
tp5100
a(g5098
g5099
Vhappy
p5101
tp5102
a(g5101
Voutweighs
p5103
tp5104
a(g5101
g5103
g3535
tp5105
a(g1834
g1836
tp5106
a(g2122
g4923
tp5107
a(g2122
g4923
g1980
tp5108
a(Vhappy
p5109
Vthree
p5110
tp5111
a(g5109
g5110
g1487
tp5112
a(g68
g4490
tp5113
a(g68
g4490
g96
tp5114
a(g3299
g1129
tp5115
a(g3299
g1129
g1130
tp5116
a(g286
g2410
tp5117
a(g286
g2410
Vthink
p5118
tp5119
a(Vhard
p5120
Vwork
p5121
tp5122
a(g5120
g5121
g3237
tp5123
a(Vhardcore
p5124
Vlol
p5125
tp5126
a(g1492
g619
tp5127
a(g1492
g619
g4333
tp5128
a(Vharry
p5129
Vlive
p5130
tp5131
a(Vhashtags
p5132
g4421
tp5133
a(g5132
g4421
g2246
tp5134
a(Vhasnt
p5135
Vtweeted
p5136
tp5137
a(g5135
g5136
g606
tp5138
a(g2145
g1701
tp5139
a(g2145
g1701
g1702
tp5140
a(Vhate
p5141
g2068
g1918
tp5142
a(g902
g413
g414
tp5143
a(Vhate
p5144
g3243
tp5145
a(g5144
g3243
g3244
tp5146
a(g821
g3690
tp5147
a(g821
g3690
g4781
tp5148
a(g1656
Vhim
p5149
tp5150
a(g1656
g5149
Vstill
p5151
tp5152
a(g29
Vlike
p5153
tp5154
a(g29
g5153
g246
tp5155
a(Vhate
p5156
Vlove
p5157
tp5158
a(Vhate
p5159
Vone
p5160
tp5161
a(g5159
g5160
g3513
tp5162
a(g987
g988
g1459
tp5163
a(g4251
Vpeople
p5164
Vhate
p5165
tp5166
a(g3951
Vpotty
p5167
tp5168
a(g3951
g5167
Vtraining
p5169
tp5170
a(g3956
Vslush
p5171
tp5172
a(g3956
g5171
Vpullman
p5173
tp5174
a(Vhate
p5175
g373
tp5176
a(g5175
g373
Vlove
p5177
tp5178
a(g4314
Vsomeone
p5179
tp5180
a(g4314
g5179
g659
tp5181
a(g2353
g150
tp5182
a(g5165
Vweed
p5183
tp5184
a(g5165
g5183
g2983
tp5185
a(g3831
g1408
tp5186
a(g3831
g1408
g46
tp5187
a(g3693
g3695
tp5188
a(g3693
g3695
g645
tp5189
a(Vhave
p5190
g4996
tp5191
a(g5190
g4996
g4997
tp5192
a(g1493
g292
tp5193
a(g1493
g292
g1768
tp5194
a(Vhavent
p5195
g2048
tp5196
a(g5195
g2048
g2049
tp5197
a(g625
g2270
tp5198
a(g625
g2270
g523
tp5199
a(Vhead
p5200
Vsure
p5201
tp5202
a(g5200
g5201
Vthats
p5203
tp5204
a(g993
g288
g904
tp5205
a(Vheader
p5206
Vicon
p5207
Vuser
p5208
tp5209
a(g2569
g2571
tp5210
a(g2569
g2571
Vrealtalk
p5211
tp5212
a(g5073
g2837
tp5213
a(g5073
g2837
g2838
tp5214
a(g3135
g3137
tp5215
a(g3135
g3137
Vtime
p5216
tp5217
a(Vhellomoe
p5218
Vreally
p5219
tp5220
a(g5218
g5219
g3867
tp5221
a(Vhelp
p5222
g4766
tp5223
a(g5222
g4766
g4767
tp5224
a(g626
g375
tp5225
a(g626
g375
Vcolfcsryderl
p5226
tp5227
a(g627
g1770
tp5228
a(g3165
g3167
tp5229
a(g3165
g3167
g1505
tp5230
a(g242
g605
tp5231
a(g242
g605
g2024
tp5232
a(Vhes
p5233
Vcute
p5234
tp5235
a(g2796
g2798
tp5236
a(g2796
g2798
g4701
tp5237
a(g2026
g1488
tp5238
a(g2958
g2960
tp5239
a(g2958
g2960
g4952
tp5240
a(g1944
g1946
tp5241
a(Vhess
p5242
g3884
tp5243
a(g5242
g3884
g3885
tp5244
a(g355
g3101
tp5245
a(g355
g3101
g1255
tp5246
a(Vhey
p5247
Vlove
p5248
Vtoday
p5249
tp5250
a(g999
g1000
Vyouyour
p5251
tp5252
a(Vhey
p5253
Vreleased
p5254
tp5255
a(g5253
g5254
Vnew
p5256
tp5257
a(Vheyyy
p5258
Vsaying
p5259
tp5260
a(g5258
g5259
g2993
tp5261
a(Vhii
p5262
Vlove
p5263
tp5264
a(g5262
g5263
Vyouim
p5265
tp5266
a(g5149
g5151
tp5267
a(g5149
g5151
Vlove
p5268
tp5269
a(Vhispanics
p5270
Vpeople
p5271
tp5272
a(g5270
g5271
g377
tp5273
a(Vhmm
p5274
Vreally
p5275
tp5276
a(g5274
g5275
Vdislike
p5277
tp5278
a(Vhome
p5279
g4543
tp5280
a(g5279
g4543
g4544
tp5281
a(g4746
g4748
tp5282
a(g4746
g4748
Vmiss
p5283
tp5284
a(Vhome
p5285
g148
tp5286
a(g5285
g148
g1523
tp5287
a(Vhonestly
p5288
Vdont
p5289
tp5290
a(g5288
g5289
g5141
tp5291
a(Vhonesty
p5292
Vsay
p5293
tp5294
a(g5292
g5293
Vkiana
p5295
tp5296
a(Vhood
p5297
Volney
p5298
tp5299
a(Vhope
p5300
g5019
tp5301
a(g5300
g5019
g5020
tp5302
a(Vhope
p5303
Vleast
p5304
tp5305
a(g5303
g5304
g3193
tp5306
a(g356
Vone
p5307
tp5308
a(g356
g5307
g2980
tp5309
a(Vhope
p5310
Vweather
p5311
tp5312
a(g5310
g5311
g4899
tp5313
a(Vhoriscope
p5314
Vlibra
p5315
tp5316
a(g4618
g3055
tp5317
a(g4618
g3055
g3056
tp5318
a(g4429
g4431
tp5319
a(g4429
g4431
Vtbh
p5320
tp5321
a(Vhours
p5322
g2774
tp5323
a(g5322
g2774
g2775
tp5324
a(g4369
g4534
tp5325
a(g4369
g4534
g4535
tp5326
a(g1494
g4751
tp5327
a(Vhouses
p5328
Vknock
p5329
tp5330
a(g5328
g5329
g4257
tp5331
a(Vhouston
p5332
Vsongsthatwillnevergetold
p5333
tp5334
a(g4211
g5135
tp5335
a(g4211
g5135
g5136
tp5336
a(Vhuge
p5337
g4465
tp5338
a(g5337
g4465
g1638
tp5339
a(g4754
g4756
tp5340
a(g4754
g4756
Vwould
p5341
tp5342
a(Vhulu
p5343
g2452
tp5344
a(g5343
g2452
g1934
tp5345
a(g3065
g3701
tp5346
a(g3065
g3701
Vits
p5347
tp5348
a(g1017
g1018
g3272
tp5349
a(Vice
p5350
g3276
g1508
tp5351
a(Vicon
p5352
g2596
tp5353
a(g5352
g2596
g894
tp5354
a(g2588
g2590
tp5355
a(g2588
g2590
Vuname
p5356
tp5357
a(g288
g904
tp5358
a(g288
g904
g905
tp5359
a(g3019
g3021
tp5360
a(g3019
g3021
g1480
tp5361
a(g5207
g5208
tp5362
a(g5207
g5208
Vdislike
p5363
tp5364
a(Videas
p5365
Vclaim
p5366
tp5367
a(Videntify
p5368
Vterm
p5369
tp5370
a(g5368
g5369
Vpuck
p5371
tp5372
a(Vidgaf
p5373
g4168
tp5374
a(g5373
g4168
g4169
tp5375
a(Vidk
p5376
Vlove
p5377
tp5378
a(Vidk
p5379
Vman
p5380
tp5381
a(g5379
g5380
Vlove
p5382
tp5383
a(g631
Vmuch
p5384
tp5385
a(g631
g5384
g3344
tp5386
a(Vidol
p5387
Vtweet
p5388
tp5389
a(g5387
g5388
Vmuch
p5390
tp5391
a(g3704
g3706
tp5392
a(g3704
g3706
g5009
tp5393
a(g3709
g2689
tp5394
a(g3709
g2689
g2690
tp5395
a(g4418
g1439
tp5396
a(g4418
g1439
g1733
tp5397
a(g3120
g4049
tp5398
a(g3120
g4049
g4050
tp5399
a(g1025
g1026
g3611
tp5400
a(g2064
g2066
g4628
tp5401
a(Vill
p5402
g1151
tp5403
a(g5402
g1151
g1152
tp5404
a(g2711
g2713
tp5405
a(g2711
g2713
Vmany
p5406
tp5407
a(Vill
p5408
g1558
tp5409
a(g5408
g1558
g5089
tp5410
a(g2904
g2906
tp5411
a(g2904
g2906
g4914
tp5412
a(g2989
g2991
tp5413
a(g2989
g2991
g3295
tp5414
a(g1899
g1901
tp5415
a(g1899
g1901
Vdislike
p5416
tp5417
a(Vimportant
p5418
g3347
tp5419
a(g5418
g3347
g3256
tp5420
a(Vimportant
p5421
Vinformation
p5422
tp5423
a(g5421
g5422
Vforserious
p5424
tp5425
a(g4034
Vrape
p5426
tp5427
a(g4034
g5426
g4291
tp5428
a(g3424
g4369
tp5429
a(g3424
g4369
g4534
tp5430
a(g3180
Vway
p5431
tp5432
a(g3180
g5431
g5337
tp5433
a(g5422
g5424
tp5434
a(Vinitials
p5435
Vperson
p5436
tp5437
a(g5435
g5436
Vpassionately
p5438
tp5439
a(Vinot
p5440
Vyoure
p5441
tp5442
a(g5440
g5441
Vsaying
p5443
tp5444
a(g3427
g3429
tp5445
a(g3427
g3429
g4856
tp5446
a(Vinspires
p5447
g2531
tp5448
a(g5447
g2531
g2532
tp5449
a(g1591
g1593
tp5450
a(g1591
g1593
g1610
tp5451
a(Vinternship
p5452
g624
tp5453
a(g5452
g624
g3198
tp5454
a(g1495
g4813
tp5455
a(g1495
g4813
g4814
tp5456
a(g5014
Vnickname
p5457
tp5458
a(g5014
g5457
Vjoey
p5459
tp5460
a(g1654
g1656
tp5461
a(g1654
g1656
g5149
tp5462
a(g1580
Vyeah
p5463
tp5464
a(g1580
g5463
g3440
tp5465
a(g3477
g4071
tp5466
a(g3477
g4071
g4072
tp5467
a(Virene
p5468
Vsituation
p5469
tp5470
a(Viroc
p5471
Vlove
p5472
tp5473
a(g5471
g5472
Vcannabis
p5474
tp5475
a(g3107
g232
tp5476
a(g3107
g232
g1722
tp5477
a(Vits
p5478
g3437
tp5479
a(g5478
g3437
g3438
tp5480
a(Vits
p5481
Vdislike
p5482
tp5483
a(g5481
g5482
Vpeople
p5484
tp5485
a(g5347
g4390
tp5486
a(g5347
g4390
g4391
tp5487
a(g44
g189
g4424
tp5488
a(g2834
g620
tp5489
a(g2834
g620
g97
tp5490
a(Vits
p5491
Vmuch
p5492
tp5493
a(g5491
g5492
g4719
tp5494
a(Vits
p5495
Vokhe
p5496
tp5497
a(g5495
g5496
Vsaid
p5498
tp5499
a(Vits
p5500
Vweird
p5501
tp5502
a(g5500
g5501
Vreally
p5503
tp5504
a(Vive
p5505
g2371
tp5506
a(g5505
g2371
g2372
tp5507
a(Vive
p5508
g4546
tp5509
a(g5508
g4546
g4547
tp5510
a(Vive
p5511
Vmanaged
p5512
tp5513
a(g5511
g5512
g3888
tp5514
a(g359
Vnever
p5515
tp5516
a(g359
g5515
Vlove
p5517
tp5518
a(Viwanthim
p5519
Vplease
p5520
tp5521
a(Vjanelo
p5522
g4377
tp5523
a(g5522
g4377
g4378
tp5524
a(g3350
g3352
tp5525
a(g4836
Vlove
p5526
tp5527
a(g4836
g5526
Vyou
p5528
tp5529
a(Vjesse
p5530
Vmoon
p5531
tp5532
a(g5530
g5531
g2016
tp5533
a(Vjett
p5534
Vlove
p5535
tp5536
a(g5534
g5535
Vrock
p5537
tp5538
a(Vjoan
p5539
g5534
tp5540
a(g5539
g5534
g5535
tp5541
a(g5459
Vlol
p5542
tp5543
a(g5071
g5073
tp5544
a(g5071
g5073
g2837
tp5545
a(Vjonas
p5546
g2801
g2802
tp5547
a(g1033
g1034
g2806
tp5548
a(Vjosh
p5549
g2908
tp5550
a(g5549
g2908
g45
tp5551
a(Vjourno
p5552
Vjust
p5553
tp5554
a(g5552
g5553
Vwant
p5555
tp5556
a(g4759
g4761
tp5557
a(Vjujuampriri
p5558
Vtoofollowing
p5559
tp5560
a(Vjust
p5561
Vlove
p5562
tp5563
a(g5561
g5562
Vyou
p5564
tp5565
a(Vjust
p5566
Vreasons
p5567
tp5568
a(g5566
g5567
Vlove
p5569
tp5570
a(g2802
g2804
tp5571
a(g2802
g2804
Vminute
p5572
tp5573
a(Vjust
p5574
g1548
tp5575
a(g5574
g1548
Vyou
p5576
tp5577
a(g5553
g5555
tp5578
a(g5553
g5555
g2398
tp5579
a(g1496
g2542
tp5580
a(g1496
g2542
g2543
tp5581
a(Vjustin
p5582
Vsaid
p5583
tp5584
a(g5582
g5583
Vpap
p5585
tp5586
a(Vkate
p5587
Vshawna
p5588
tp5589
a(g5587
g5588
Vlove
p5590
tp5591
a(Vkdrama
p5592
g580
tp5593
a(g5592
g580
g581
tp5594
a(g4559
g2116
tp5595
a(g4559
g2116
g2117
tp5596
a(g3281
g172
tp5597
a(g3281
g172
g3415
tp5598
a(Vkelly
p5599
g243
tp5600
a(g5599
g243
Vknow
p5601
tp5602
a(Vkept
p5603
Vtags
p5604
tp5605
a(g5295
Vment
p5606
tp5607
a(g5295
g5606
g1615
tp5608
a(g1497
g1444
tp5609
a(g1497
g1444
g2033
tp5610
a(Vkid
p5611
g2464
tp5612
a(g5611
g2464
g2465
tp5613
a(g1715
g560
tp5614
a(g1715
g560
g329
tp5615
a(g1498
g4993
tp5616
a(g1498
g4993
g2871
tp5617
a(g3716
g3718
tp5618
a(g3716
g3718
Vgohome
p5619
tp5620
a(g1499
g3918
tp5621
a(g1499
g3918
g3919
tp5622
a(Vkinda
p5623
g668
tp5624
a(g5623
g668
Vstalking
p5625
tp5626
a(g3826
Vass
p5627
tp5628
a(g2351
g2969
tp5629
a(g2351
g2969
g2340
tp5630
a(g289
g60
tp5631
a(g289
g60
g1726
tp5632
a(g1500
g4282
tp5633
a(g1500
g4282
g5024
tp5634
a(Vkissed
p5635
g1568
tp5636
a(g5635
g1568
g3187
tp5637
a(g5329
g4257
tp5638
a(g5329
g4257
g1948
tp5639
a(g307
g2744
tp5640
a(g307
g2744
g1375
tp5641
a(g4378
g3134
tp5642
a(g4378
g3134
g3135
tp5643
a(g4142
g3426
tp5644
a(g4142
g3426
g3427
tp5645
a(Vknow
p5646
g3555
g2504
tp5647
a(g4181
g4182
tp5648
a(g4181
g4182
g4397
tp5649
a(g102
g125
Vlove
p5650
tp5651
a(g4185
g4186
tp5652
a(g5601
g5120
tp5653
a(g5601
g5120
g5121
tp5654
a(Vknow
p5655
Vlove
p5656
g2211
tp5657
a(Vknow
p5658
Vlovebird
p5659
tp5660
a(g1052
g176
g4905
tp5661
a(g2994
g2996
Vsee
p5662
tp5663
a(Vknow
p5664
Vpeople
p5665
tp5666
a(g5664
g5665
g2921
tp5667
a(Vknow
p5668
Vread
p5669
tp5670
a(g5668
g5669
Vtext
p5671
tp5672
a(Vknow
p5673
Vreally
p5674
tp5675
a(g5673
g5674
Vlove
p5676
tp5677
a(g4188
g369
tp5678
a(g2299
g2301
tp5679
a(g2299
g2301
Vlast
p5680
tp5681
a(Vknow
p5682
Vsound
p5683
tp5684
a(g5682
g5683
Vungrateful
p5685
tp5686
a(Vknow
p5687
Vthats
p5688
tp5689
a(g5687
g5688
g166
tp5690
a(Vknow
p5691
Vtruth
p5692
tp5693
a(g5691
g5692
g359
tp5694
a(g3721
g3723
tp5695
a(g3721
g3723
Vsomeone
p5696
tp5697
a(g4191
g4193
tp5698
a(g4191
g4193
Vmooi
p5699
tp5700
a(Vknowokay
p5701
g1458
tp5702
a(g5701
g1458
g2863
tp5703
a(g1501
g3365
tp5704
a(g1501
g3365
Vsong
p5705
tp5706
a(g4654
g4854
tp5707
a(g4654
g4854
Vgetting
p5708
tp5709
a(Vlamb
p5710
Vlove
p5711
tp5712
a(g5710
g5711
g2335
tp5713
a(g4800
g4802
tp5714
a(Vlast
p5715
g1512
tp5716
a(g5715
g1512
Vstuff
p5717
tp5718
a(g5680
Vweek
p5719
tp5720
a(g5680
g5719
g1451
tp5721
a(g291
Vlove
p5722
tp5723
a(Vlaugh
p5724
Vmuch
p5725
tp5726
a(g5724
g5725
Vmade
p5727
tp5728
a(g4736
g4738
tp5729
a(g4736
g4738
Vthats
p5730
tp5731
a(Vlaurenmonty
p5732
g1111
tp5733
a(g5732
g1111
g1112
tp5734
a(g2270
g523
tp5735
a(g2270
g523
g524
tp5736
a(Vlazyfriday
p5737
Vitsarealthing
p5738
tp5739
a(g5304
g3193
tp5740
a(g5304
g3193
g3194
tp5741
a(g632
g4958
tp5742
a(g632
g4958
g4959
tp5743
a(Vleast
p5744
Vone
p5745
tp5746
a(g5744
g5745
Vlove
p5747
tp5748
a(Vleave
p5749
Vtaking
p5750
tp5751
a(g5749
g5750
Vback
p5752
tp5753
a(Vleft
p5754
g5070
tp5755
a(g5754
g5070
g5071
tp5756
a(Vleftie
p5757
Vthink
p5758
tp5759
a(g5757
g5758
g5552
tp5760
a(g3934
g2418
tp5761
a(g3934
g2418
g2419
tp5762
a(g633
g444
tp5763
a(g633
g444
g445
tp5764
a(g3208
Vlove
p5765
tp5766
a(g4196
g4198
tp5767
a(g4196
g4198
Vaugust
p5768
tp5769
a(g4397
g4399
tp5770
a(g4397
g4399
Vvery
p5771
tp5772
a(Vliampayne
p5773
g5247
tp5774
a(g5773
g5247
g5248
tp5775
a(Vliampayne
p5776
g5258
tp5777
a(g5776
g5258
g5259
tp5778
a(Vlie
p5779
Vshit
p5780
tp5781
a(g5779
g5780
Vhappens
p5782
tp5783
a(Vlife
p5784
g1730
tp5785
a(g5784
g1730
g1731
tp5786
a(Vlife
p5787
g5447
tp5788
a(g5787
g5447
g2531
tp5789
a(g2372
g2374
tp5790
a(g2372
g2374
g1975
tp5791
a(g4717
Vanyway
p5792
tp5793
a(g3059
g2578
tp5794
a(g3059
g2578
g2579
tp5795
a(Vlike
p5796
g610
tp5797
a(g5796
g610
g2588
tp5798
a(Vlike
p5799
g2882
tp5800
a(g5799
g2882
g2883
tp5801
a(Vlike
p5802
Vcojcvcbggapf
p5803
tp5804
a(Vlike
p5805
g3210
tp5806
a(g5805
g3210
g3211
tp5807
a(g1300
g3528
g1438
tp5808
a(g4493
g3820
g3821
tp5809
a(Vlike
p5810
g3967
g3968
tp5811
a(g3
g15
g4021
tp5812
a(g2901
g3413
g4036
tp5813
a(Vlike
p5814
g897
g675
tp5815
a(g1702
g1704
tp5816
a(g1702
g1704
g4188
tp5817
a(Vlike
p5818
g4323
tp5819
a(g5818
g4323
g4324
tp5820
a(g4451
g4453
tp5821
a(g4451
g4453
g4461
tp5822
a(g2155
g1484
tp5823
a(g2155
g1484
g380
tp5824
a(g3732
g3734
tp5825
a(g3732
g3734
g4652
tp5826
a(g1214
g5077
tp5827
a(g1214
g5077
g5078
tp5828
a(Vlike
p5829
g5206
tp5830
a(g5829
g5206
g5207
tp5831
a(Vlike
p5832
g5549
tp5833
a(g5832
g5549
g2908
tp5834
a(Vlike
p5835
g5682
tp5836
a(g5835
g5682
g5683
tp5837
a(Vlike
p5838
Vlazier
p5839
tp5840
a(g1692
g1694
tp5841
a(g1692
g1694
g2666
tp5842
a(Vlike
p5843
Vlove
p5844
tp5845
a(g5843
g5844
Vsass
p5846
tp5847
a(g5153
g246
tp5848
a(g5153
g246
Vstrongly
p5849
tp5850
a(g4119
g4121
tp5851
a(g4119
g4121
Vwin
p5852
tp5853
a(Vlike
p5854
Vokaay
p5855
tp5856
a(g5854
g5855
Vpeople
p5857
tp5858
a(g1865
g1199
tp5859
a(g1865
g1199
g1200
tp5860
a(g2037
g2039
g3046
tp5861
a(g1080
g1081
Vtalking
p5862
tp5863
a(g1986
g1524
tp5864
a(g1986
g1524
Vray
p5865
tp5866
a(Vlike
p5867
Vreally
p5868
tp5869
a(g5867
g5868
g3782
tp5870
a(g3047
g3049
tp5871
a(Vlike
p5872
Vsay
p5873
tp5874
a(g5872
g5873
g3715
tp5875
a(g2083
g4200
tp5876
a(g2083
g4200
Vnever
p5877
tp5878
a(g4496
g4497
tp5879
a(g4496
g4497
Vstupid
p5880
tp5881
a(g475
g4202
tp5882
a(g475
g4202
g4615
tp5883
a(g4205
g4206
tp5884
a(g4205
g4206
Vcoy1tedjo4hk
p5885
tp5886
a(g4173
g4764
tp5887
a(g4173
g4764
Vhappy
p5888
tp5889
a(g5063
g5065
tp5890
a(g3480
g1546
tp5891
a(g3480
g1546
g1510
tp5892
a(g1247
Vthough
p5893
tp5894
a(g1247
g5893
Vwait
p5895
tp5896
a(g2404
g2406
tp5897
a(g2404
g2406
Vthats
p5898
tp5899
a(Vlike
p5900
Vwill
p5901
tp5902
a(g5900
g5901
g1868
tp5903
a(Vlike
p5904
Vwishi
p5905
tp5906
a(g5904
g5905
g5303
tp5907
a(Vlike
p5908
Vwonderful
p5909
tp5910
a(g5908
g5909
Vrelaxing
p5911
tp5912
a(Vliked
p5913
g5646
tp5914
a(g5913
g5646
g3555
tp5915
a(g3800
g5468
tp5916
a(g3800
g5468
g5469
tp5917
a(g1502
g3738
tp5918
a(g1502
g3738
g1472
tp5919
a(g2357
g2359
tp5920
a(g2357
g2359
Vdumblyricsaredumb
p5921
tp5922
a(g1694
g2666
tp5923
a(g1694
g2666
g2197
tp5924
a(Vlimite
p5925
Vlove
p5926
tp5927
a(g2685
g2687
tp5928
a(Vlips
p5929
g289
tp5930
a(g5929
g289
g60
tp5931
a(g1503
Vradio
p5932
tp5933
a(g1503
g5932
g5508
tp5934
a(g3303
g3305
tp5935
a(g3303
g3305
Vnowi
p5936
tp5937
a(g1504
g3771
tp5938
a(g1504
g3771
g3772
tp5939
a(g4459
Vruin
p5940
tp5941
a(g4459
g5940
g3371
tp5942
a(g634
g2001
tp5943
a(g634
g2001
g2626
tp5944
a(Vlittle
p5945
g4118
tp5946
a(g5945
g4118
g4119
tp5947
a(g3741
g3743
tp5948
a(g3741
g3743
Vtheyre
p5949
tp5950
a(g243
g5601
tp5951
a(g243
g5601
g5120
tp5952
a(g4881
g4883
tp5953
a(Vlive
p5954
Vplace
p5955
tp5956
a(g5954
g5955
g3808
tp5957
a(Vlive
p5958
Vwant
p5959
tp5960
a(g5958
g5959
Vlove
p5961
tp5962
a(Vlmao
p5963
Vsay
p5964
tp5965
a(g5963
g5964
Vhate
p5966
tp5967
a(g635
g1493
tp5968
a(g635
g1493
g292
tp5969
a(Vlmfao
p5970
Vlove
p5971
tp5972
a(g4926
Vpeople
p5973
tp5974
a(g4926
g5973
Vdislike
p5975
tp5976
a(g4359
g4361
tp5977
a(g4359
g4361
g2381
tp5978
a(g3912
g631
tp5979
a(g3912
g631
g5384
tp5980
a(Vlol
p5981
Vnobody
p5982
tp5983
a(g5981
g5982
g1383
tp5984
a(Vlol
p5985
Vsad
p5986
tp5987
a(g5985
g5986
g1540
tp5988
a(g2086
g2088
tp5989
a(g2086
g2088
Vpeople
p5990
tp5991
a(g2680
g2682
tp5992
a(g2680
g2682
g4949
tp5993
a(Vlol
p5994
Vtashara
p5995
tp5996
a(g5994
g5995
g4502
tp5997
a(Vlol
p5998
Vthink
p5999
tp6000
a(g5998
g5999
g2998
tp6001
a(g3202
g672
tp6002
a(g3202
g672
g5658
tp6003
a(g32
g678
tp6004
a(g32
g678
Vreally
p6005
tp6006
a(g521
Vyoure
p6007
tp6008
a(g521
g6007
g1763
tp6009
a(g3638
g4434
tp6010
a(g2644
g2650
tp6011
a(g2644
g2650
g2651
tp6012
a(g2474
g2476
tp6013
a(Vlook
p6014
g1660
tp6015
a(g6014
g1660
g1661
tp6016
a(g65
Vface
p6017
tp6018
a(g3524
g3526
tp6019
a(g3524
g3526
g5805
tp6020
a(Vlooked
p6021
Vlyrics
p6022
tp6023
a(g6021
g6022
Vskys
p6024
tp6025
a(Vlooking
p6026
g2361
tp6027
a(g6026
g2361
g178
tp6028
a(g2252
g2254
tp6029
a(Vlooking
p6030
g366
tp6031
a(g6030
g366
g5144
tp6032
a(g4135
Vthru
p6033
tp6034
a(g4135
g6033
Vsorting
p6035
tp6036
a(g2445
g5908
tp6037
a(g2445
g5908
g5909
tp6038
a(Vlot
p6039
g1823
tp6040
a(g6039
g1823
g1824
tp6041
a(g4540
g2427
tp6042
a(g4540
g2427
g1696
tp6043
a(g3240
g4347
tp6044
a(g3240
g4347
g259
tp6045
a(g3749
g3750
tp6046
a(g3749
g3750
g4525
tp6047
a(g22
g3752
tp6048
a(g22
g3752
g679
tp6049
a(g3718
g5619
tp6050
a(g1505
g4693
tp6051
a(g1505
g4693
g4694
tp6052
a(g2278
g1747
tp6053
a(g2278
g1747
g1748
tp6054
a(g1937
g1750
tp6055
a(g1937
g1750
g1751
tp6056
a(Vlove
p6057
g1755
tp6058
a(g6057
g1755
g1756
tp6059
a(g1788
g1442
tp6060
a(g1788
g1442
g280
tp6061
a(g2007
g1891
tp6062
a(g2007
g1891
g180
tp6063
a(g1185
g1923
tp6064
a(g1185
g1923
g1924
tp6065
a(g221
g2013
tp6066
a(g221
g2013
g477
tp6067
a(Vlove
p6068
Vanna
p6069
tp6070
a(Vlove
p6071
g2140
tp6072
a(g6071
g2140
g298
tp6073
a(g5656
g2211
tp6074
a(g5656
g2211
g2212
tp6075
a(g2272
g2220
tp6076
a(g2272
g2220
g2221
tp6077
a(Vlove
p6078
g2251
tp6079
a(g6078
g2251
g2252
tp6080
a(g513
g89
g712
tp6081
a(g2593
g2312
g2313
tp6082
a(g5711
g2335
tp6083
a(g5711
g2335
g2336
tp6084
a(Vlove
p6085
Vbackground
p6086
tp6087
a(Vlove
p6088
Vbacon
p6089
tp6090
a(Vlove
p6091
Vbeautiful
p6092
tp6093
a(Vlove
p6094
g1450
tp6095
a(g6094
g1450
g2455
tp6096
a(Vlove
p6097
g2546
g2547
tp6098
a(Vlove
p6099
g2605
tp6100
a(g6099
g2605
g2606
tp6101
a(Vlove
p6102
g2684
tp6103
a(g6102
g2684
g2685
tp6104
a(g4011
Vbobby
p6105
tp6106
a(Vlove
p6107
g2761
tp6108
a(g6107
g2761
g2762
tp6109
a(Vlove
p6110
Vbrother
p6111
tp6112
a(g4856
g2814
tp6113
a(g4856
g2814
g2815
tp6114
a(Vlove
p6115
g2861
tp6116
a(g6115
g2861
g1535
tp6117
a(g5472
g5474
tp6118
a(g4893
g2933
tp6119
a(g4893
g2933
g2934
tp6120
a(Vlove
p6121
Vcomputer
p6122
tp6123
a(g3169
g3171
tp6124
a(g3169
g3171
g3173
tp6125
a(g1743
g1745
tp6126
a(g1743
g1745
g3263
tp6127
a(Vlove
p6128
g3265
tp6129
a(g6128
g3265
g3266
tp6130
a(g4512
g3302
tp6131
a(g4512
g3302
g3303
tp6132
a(Vlove
p6133
g1468
tp6134
a(g6133
g1468
g3307
tp6135
a(Vlove
p6136
Vcuddles
p6137
tp6138
a(Vlove
p6139
Vcurls
p6140
tp6141
a(Vlove
p6142
Vdamn
p6143
tp6144
a(Vlove
p6145
g169
tp6146
a(g6145
g169
g3379
tp6147
a(Vlove
p6148
g3486
tp6149
a(g6148
g3486
g3487
tp6150
a(Vlove
p6151
g4184
g4185
tp6152
a(g578
g1094
g1534
tp6153
a(g2460
g2462
tp6154
a(g2852
g2854
tp6155
a(Vlove
p6156
g4339
tp6157
a(g6156
g4339
g2493
tp6158
a(g2294
g2296
tp6159
a(g2294
g2296
g4350
tp6160
a(Vlove
p6161
g911
tp6162
a(g6161
g911
g912
tp6163
a(g1707
g1709
tp6164
a(g1707
g1709
g4381
tp6165
a(g393
g238
tp6166
a(g393
g238
g3697
tp6167
a(g1237
g1477
tp6168
a(g1237
g1477
g4414
tp6169
a(g1829
g1831
tp6170
a(g1829
g1831
g4418
tp6171
a(Vlove
p6172
g4428
tp6173
a(g6172
g4428
g4429
tp6174
a(g1720
g1482
tp6175
a(g2482
g349
tp6176
a(g2482
g349
g4549
tp6177
a(Vlove
p6178
Vfollow
p6179
tp6180
a(g6178
g6179
Vplease
p6181
tp6182
a(g5024
g284
tp6183
a(g5024
g284
g4691
tp6184
a(Vlove
p6185
g4787
tp6186
a(g6185
g4787
g1532
tp6187
a(Vlove
p6188
g4799
g4800
tp6189
a(g517
g518
g4804
tp6190
a(Vlove
p6191
g4807
g4808
tp6192
a(Vlove
p6193
g4902
tp6194
a(g6193
g4902
g3445
tp6195
a(Vlove
p6196
g4955
tp6197
a(g6196
g4955
g633
tp6198
a(g2999
g3001
tp6199
a(g2999
g3001
g5063
tp6200
a(Vlove
p6201
g5190
tp6202
a(g6201
g5190
g4996
tp6203
a(Vlove
p6204
Vher
p6205
tp6206
a(Vlove
p6207
Vhilare
p6208
tp6209
a(Vlove
p6210
Vhoney
p6211
tp6212
a(Vlove
p6213
g5297
tp6214
a(g6213
g5297
g5298
tp6215
a(g4616
g4618
tp6216
a(g4616
g4618
g3055
tp6217
a(g4209
g4211
tp6218
a(g4209
g4211
g5135
tp6219
a(Vlove
p6220
g5352
tp6221
a(g6220
g5352
g2596
tp6222
a(Vlove
p6223
Vill
p6224
tp6225
a(g1641
g5452
tp6226
a(g1641
g5452
g624
tp6227
a(g4646
g5519
tp6228
a(g4646
g5519
g5520
tp6229
a(g5382
Vjanoskians
p6230
tp6231
a(g4606
g5558
tp6232
a(g4606
g5558
g5559
tp6233
a(Vlove
p6234
g1496
tp6235
a(g6234
g1496
g2542
tp6236
a(g4297
g4559
tp6237
a(g4297
g4559
g2116
tp6238
a(Vlove
p6239
Vkisses
p6240
tp6241
a(Vlove
p6242
g5668
g5669
tp6243
a(Vlove
p6244
g5749
tp6245
a(g6244
g5749
g5750
tp6246
a(g3206
g3208
tp6247
a(g3206
g3208
g5765
tp6248
a(Vlove
p6249
g5784
tp6250
a(g6249
g5784
g1730
tp6251
a(Vlove
p6252
g1503
tp6253
a(g6252
g1503
g5932
tp6254
a(Vlove
p6255
g5945
tp6256
a(g6255
g5945
g4118
tp6257
a(Vlove
p6258
Vlive
p6259
tp6260
a(Vlove
p6261
g5994
g5995
tp6262
a(g520
g521
g6007
tp6263
a(g3132
g4135
tp6264
a(g3132
g4135
g6033
tp6265
a(Vlove
p6266
Vlot
p6267
tp6268
a(g976
g5052
tp6269
a(Vlove
p6270
Vlove
p6271
tp6272
a(g4908
g5085
tp6273
a(g558
Vluv
p6274
tp6275
a(g2717
Vmatter
p6276
tp6277
a(Vlove
p6278
Vmean
p6279
tp6280
a(g6278
g6279
g2747
tp6281
a(g1200
Vmeeting
p6282
tp6283
a(g1200
g6282
Vnew
p6284
tp6285
a(Vlove
p6286
Vmelissa
p6287
tp6288
a(g6286
g6287
Vwithout
p6289
tp6290
a(g5268
Vmight
p6291
tp6292
a(g5268
g6291
Vsaid
p6293
tp6294
a(g1102
g1103
Vyouuuu
p6295
tp6296
a(g5055
g5056
g2432
tp6297
a(Vlove
p6298
Vmuch
p6299
g4597
tp6300
a(g545
Vmuch
p6301
g5109
tp6302
a(Vlove
p6303
Vmuch
p6304
Vlove
p6305
tp6306
a(Vlove
p6307
Vmuch
p6308
Vpls
p6309
tp6310
a(Vlove
p6311
Vmum
p6312
tp6313
a(g6305
Vmursarmy
p6314
tp6315
a(Vlove
p6316
Vnew
p6317
tp6318
a(g6316
g6317
Vpussy
p6319
tp6320
a(Vlove
p6321
Vobama
p6322
tp6323
a(Vlove
p6324
g1517
tp6325
a(Vlove
p6326
Vomg
p6327
tp6328
a(Vlove
p6329
g1204
g1205
tp6330
a(g1111
g1112
g1207
tp6331
a(g3431
g3433
tp6332
a(g3431
g3433
Vlove
p6333
tp6334
a(Vlove
p6335
Vour
p6336
tp6337
a(g6335
g6336
g4450
tp6338
a(g1636
Vpen
p6339
tp6340
a(g1636
g6339
Vpal
p6341
tp6342
a(Vlove
p6343
Vpeniel
p6344
tp6345
a(g6343
g6344
Vwell
p6346
tp6347
a(Vlove
p6348
Vperson
p6349
tp6350
a(g6348
g6349
g4731
tp6351
a(Vlove
p6352
Vphil
p6353
tp6354
a(g6352
g6353
Vlester
p6355
tp6356
a(Vlove
p6357
Vplace
p6358
tp6359
a(Vlove
p6360
Vplaying
p6361
tp6362
a(g6360
g6361
Vpeoples
p6363
tp6364
a(g4402
g4404
tp6365
a(g4402
g4404
Vfollow
p6366
tp6367
a(g2391
g5042
tp6368
a(Vlove
p6369
Vpopcorn
p6370
tp6371
a(Vlove
p6372
Vprincess
p6373
tp6374
a(Vlove
p6375
Vquad
p6376
tp6377
a(g6375
g6376
g5376
tp6378
a(Vlove
p6379
Vrays
p6380
tp6381
a(g6379
g6380
Vsunshine
p6382
tp6383
a(Vlove
p6384
Vreading
p6385
g5314
tp6386
a(g1114
g293
Vtweets
p6387
tp6388
a(g600
Vreturn
p6389
tp6390
a(g600
g6389
Vtake
p6391
tp6392
a(g4720
g4722
tp6393
a(g4720
g4722
Vfans
p6394
tp6395
a(Vlove
p6396
Vright
p6397
tp6398
a(g6396
g6397
g4529
tp6399
a(g1
Vroad
p6400
tp6401
a(g1
g6400
Vtrips
p6402
tp6403
a(g5844
g5846
tp6404
a(g5844
g5846
g1684
tp6405
a(Vlove
p6406
Vseeing
p6407
g4445
tp6408
a(g1120
g1121
g1287
tp6409
a(Vlove
p6410
Vselena
p6411
tp6412
a(Vlove
p6413
Vshanice
p6414
tp6415
a(Vlove
p6416
Vshe
p6417
tp6418
a(g6416
g6417
Vloves
p6419
tp6420
a(g1352
g1529
tp6421
a(g2044
g2046
tp6422
a(g2044
g2046
V5ft
p6423
tp6424
a(g4933
Vshow
p6425
tp6426
a(g4933
g6425
g1515
tp6427
a(Vlove
p6428
Vsister
p6429
tp6430
a(g6428
g6429
Vsmiles
p6431
tp6432
a(g4974
Vsnack
p6433
tp6434
a(g4974
g6433
g350
tp6435
a(g2423
g2425
tp6436
a(g2423
g2425
g4876
tp6437
a(Vlove
p6438
Vsnowballs
p6439
tp6440
a(g1851
Vsnuggled
p6441
tp6442
a(g1851
g6441
g3043
tp6443
a(g5517
Vsomeone
p6444
tp6445
a(g5517
g6444
g341
tp6446
a(g3365
g5705
g3725
tp6447
a(Vlove
p6448
Vsong
p6449
g270
tp6450
a(g523
g524
g386
tp6451
a(g1123
g295
Vtired
p6452
tp6453
a(Vlove
p6454
Vssddaythen
p6455
tp6456
a(g6454
g6455
g5279
tp6457
a(g4515
g1541
tp6458
a(g4515
g1541
Vthing
p6459
tp6460
a(g5177
g1542
tp6461
a(g5177
g1542
g5129
tp6462
a(Vlove
p6463
Vsun
p6464
tp6465
a(g3325
g3327
tp6466
a(g3325
g3327
Vlol
p6467
tp6468
a(g4305
g4307
tp6469
a(g4305
g4307
Vwolf
p6470
tp6471
a(g2603
g3319
tp6472
a(Vlove
p6473
Vtherealistt
p6474
tp6475
a(g4637
Vtherefore
p6476
tp6477
a(g4637
g6476
Vcutest
p6478
tp6479
a(Vlove
p6480
g152
tp6481
a(g6480
g152
Vdeeep
p6482
tp6483
a(g4132
Vthooooolt3lt3lt3
p6484
tp6485
a(Vlove
p6486
g661
tp6487
a(g6486
g661
g1742
tp6488
a(Vlove
p6489
Vtimes
p6490
tp6491
a(g6489
g6490
Vmama
p6492
tp6493
a(g5248
g5249
tp6494
a(g5248
g5249
g2617
tp6495
a(Vlove
p6496
Vtodaymore
p6497
tp6498
a(g6496
g6497
Vyesterdaybut
p6499
tp6500
a(g1322
Vtonicha
p6501
tp6502
a(Vlove
p6503
Vtrail
p6504
tp6505
a(g6503
g6504
Vnashville
p6506
tp6507
a(Vlove
p6508
Vtruckbut
p6509
tp6510
a(g6508
g6509
g1562
tp6511
a(g4518
g4519
tp6512
a(g4518
g4519
Vstarted
p6513
tp6514
a(Vlove
p6515
Vtweet
p6516
tp6517
a(g6515
g6516
Vtext
p6518
tp6519
a(Vlove
p6520
Vvandosen
p6521
tp6522
a(g6520
g6521
Vnew
p6523
tp6524
a(Vlove
p6525
Vvidding
p6526
tp6527
a(g6525
g6526
Vcommunity
p6528
tp6529
a(g3183
g3185
Vfamily
p6530
tp6531
a(g1133
g1134
g4687
tp6532
a(g5676
Vwaiting
p6533
tp6534
a(g5676
g6533
g3114
tp6535
a(Vlove
p6536
g1556
tp6537
a(g6536
g1556
g5285
tp6538
a(g5961
Vwant
p6539
tp6540
a(g5961
g6539
g2971
tp6541
a(Vlove
p6542
Vwatching
p6543
tp6544
a(g6542
g6543
g2415
tp6545
a(Vlove
p6546
Vway
p6547
g5779
tp6548
a(g1136
g179
Vtaste
p6549
tp6550
a(Vlove
p6551
Vwaynes
p6552
tp6553
a(g6551
g6552
Vkeeks
p6554
tp6555
a(Vlove
p6556
Vweeknd
p6557
tp6558
a(g6556
g6557
g356
tp6559
a(Vlove
p6560
Vwhite
p6561
tp6562
a(g6560
g6561
Vnavy
p6563
tp6564
a(Vlove
p6565
Vwife
p6566
tp6567
a(g6565
g6566
g1528
tp6568
a(g4697
Vwish
p6569
tp6570
a(g4697
g6569
g3215
tp6571
a(g2705
Vwomen
p6572
tp6573
a(g2705
g6572
Vperiod
p6574
tp6575
a(g1664
g1666
tp6576
a(g1664
g1666
Venvironment
p6577
tp6578
a(g4959
g4961
tp6579
a(Vlove
p6580
Vyaaa
p6581
tp6582
a(g316
g4521
tp6583
a(g316
g4521
Vconfession
p6584
tp6585
a(g1141
g1142
g1513
tp6586
a(g4148
Vyou
p6587
g1971
tp6588
a(Vlove
p6589
Vyou
p6590
g2332
tp6591
a(g2497
g4685
Vlt333
p6592
tp6593
a(g5590
Vyou
p6594
Vmiss
p6595
tp6596
a(g1983
g2291
Vmore
p6597
tp6598
a(g761
g763
Vmuch13
p6599
tp6600
a(Vlove
p6601
Vyou
p6602
Vmuch15
p6603
tp6604
a(g5562
g5564
Vtruetalent
p6605
tp6606
a(g1869
g1871
Vwhitney
p6607
tp6608
a(g301
g2322
tp6609
a(g2325
g2326
tp6610
a(g5263
g5265
tp6611
a(g5263
g5265
g5623
tp6612
a(Vlove
p6613
Vyour
p6614
tp6615
a(g6613
g6614
Vsongs
p6616
tp6617
a(g2953
g2955
tp6618
a(g2953
g2955
g1893
tp6619
a(g1394
Vyouuu
p6620
tp6621
a(g2329
g2330
tp6622
a(g1000
g5251
tp6623
a(g1000
g5251
g2202
tp6624
a(Vlove
p6625
Vzacs
p6626
tp6627
a(g6625
g6626
Vstyle
p6628
tp6629
a(Vlovehate
p6630
g649
tp6631
a(g6630
g649
g1457
tp6632
a(g5061
g93
tp6633
a(g5061
g93
g94
tp6634
a(g6419
g6489
tp6635
a(g6419
g6489
g6490
tp6636
a(g1756
g1758
tp6637
a(g3141
Viloveyou
p6638
tp6639
a(g2566
g4270
tp6640
a(Vlucky
p6641
g6145
tp6642
a(g6641
g6145
g169
tp6643
a(g1506
g3324
tp6644
a(g1506
g3324
g3325
tp6645
a(g2775
g2777
tp6646
a(g2775
g2777
g3509
tp6647
a(g6022
g6024
tp6648
a(g6022
g6024
g6448
tp6649
a(Vmad
p6650
g1999
tp6651
a(g6650
g1999
g634
tp6652
a(Vmade
p6653
g3914
tp6654
a(g6653
g3914
g3915
tp6655
a(g5727
Vlaugh
p6656
tp6657
a(g360
g3755
tp6658
a(g360
g3755
g5373
tp6659
a(g4613
Vthinking
p6660
tp6661
a(g4613
g6660
g4743
tp6662
a(g1952
g1954
tp6663
a(g1952
g1954
Vyall
p6664
tp6665
a(Vmake
p6666
g3393
tp6667
a(g6666
g3393
g3394
tp6668
a(Vmake
p6669
g3703
g3704
tp6670
a(g1149
g182
g183
tp6671
a(Vmake
p6672
g4264
tp6673
a(g6672
g4264
g3126
tp6674
a(g4586
g4588
tp6675
a(g4586
g4588
g4834
tp6676
a(g3238
g3240
tp6677
a(g3238
g3240
g4347
tp6678
a(Vmake
p6679
g6094
g1450
tp6680
a(g1151
g1152
Vyou
p6681
tp6682
a(g45
g2910
tp6683
a(g45
g2910
Vaau
p6684
tp6685
a(g4832
Vnigga
p6686
tp6687
a(g4832
g6686
Vwait
p6688
tp6689
a(g1644
g1646
tp6690
a(g1644
g1646
g4013
tp6691
a(Vmake
p6692
Vupset
p6693
tp6694
a(g6692
g6693
g1555
tp6695
a(Vmake
p6696
Vworries
p6697
tp6698
a(g6696
g6697
g2261
tp6699
a(Vmake
p6700
Vyou
p6701
tp6702
a(g6700
g6701
Vwant
p6703
tp6704
a(g175
g190
tp6705
a(g175
g190
g68
tp6706
a(g5099
g5101
tp6707
a(g5099
g5101
g5103
tp6708
a(g1873
g291
tp6709
a(g1873
g291
g5722
tp6710
a(g3758
g3760
tp6711
a(g3758
g3760
Vseem
p6712
tp6713
a(g2934
g2936
tp6714
a(g2934
g2936
Vway
p6715
tp6716
a(g5092
Vwant
p6717
tp6718
a(g5092
g6717
Vthrow
p6719
tp6720
a(Vmakeupyourmind
p6721
g4508
tp6722
a(g6721
g4508
g4509
tp6723
a(Vmaking
p6724
g3623
tp6725
a(g6724
g3623
g3624
tp6726
a(Vmaking
p6727
Vwoman
p6728
tp6729
a(g6727
g6728
g5098
tp6730
a(g1507
g831
tp6731
a(g1507
g831
g191
tp6732
a(Vmales
p6733
g6692
tp6734
a(g6733
g6692
g6693
tp6735
a(g6492
Vtimes
p6736
tp6737
a(g5380
g5382
tp6738
a(g5380
g5382
g6230
tp6739
a(g3520
g379
tp6740
a(g3520
g379
g1876
tp6741
a(Vman
p6742
Vthing
p6743
tp6744
a(g6742
g6743
g3558
tp6745
a(g5512
g3888
tp6746
a(g5512
g3888
g3889
tp6747
a(g3777
Vtheyre
p6748
tp6749
a(g3777
g6748
g5124
tp6750
a(Vmann
p6751
g6099
tp6752
a(g6751
g6099
g2605
tp6753
a(Vmany
p6754
g3489
tp6755
a(g6754
g3489
g3490
tp6756
a(g3764
g1521
tp6757
a(g1914
g1916
tp6758
a(g1914
g1916
Vlove
p6759
tp6760
a(g5406
Vshots
p6761
tp6762
a(g5406
g6761
Vyouu
p6763
tp6764
a(Vmany
p6765
g663
tp6766
a(g6765
g663
g3003
tp6767
a(g362
g3484
tp6768
a(g362
g3484
g5904
tp6769
a(g3278
g1846
tp6770
a(g3278
g1846
g1847
tp6771
a(g1508
g3278
tp6772
a(g1508
g3278
g1846
tp6773
a(Vmeal
p6774
Vdislike
p6775
tp6776
a(g6279
g2747
tp6777
a(g6279
g2747
g2748
tp6778
a(g2062
g4114
tp6779
a(g2062
g4114
g4115
tp6780
a(g3211
g3213
tp6781
a(g3211
g3213
Vdislike
p6782
tp6783
a(g246
g5849
tp6784
a(g246
g5849
Vdislike
p6785
tp6786
a(g3526
g5805
tp6787
a(g3526
g5805
g3210
tp6788
a(g1509
Vmuch
p6789
tp6790
a(Vmeet
p6791
Vsomeone
p6792
tp6793
a(g6791
g6792
Vtheress
p6794
tp6795
a(g6282
g6284
tp6796
a(g6282
g6284
g1213
tp6797
a(g4591
g2560
tp6798
a(g4591
g2560
g1474
tp6799
a(g6287
g6289
tp6800
a(g6287
g6289
Vwouldnt
p6801
tp6802
a(g4535
g4537
tp6803
a(g4535
g4537
g6148
tp6804
a(g3767
g3769
tp6805
a(g3767
g3769
g4225
tp6806
a(g5606
g1615
tp6807
a(g5606
g1615
g1616
tp6808
a(Vmesnino
p6809
g6178
tp6810
a(g6809
g6178
g6179
tp6811
a(g3167
g1505
tp6812
a(g3167
g1505
g4693
tp6813
a(Vmet
p6814
g4554
tp6815
a(g6814
g4554
g4555
tp6816
a(g1510
Vthen
p6817
tp6818
a(g1510
g6817
Vreally
p6819
tp6820
a(g637
g4484
tp6821
a(g637
g4484
g3032
tp6822
a(Vmichael
p6823
Vlove
p6824
tp6825
a(Vmichael
p6826
g6653
tp6827
a(g6826
g6653
g3914
tp6828
a(g3772
g3774
tp6829
a(g3772
g3774
g2890
tp6830
a(g3511
g3777
tp6831
a(g3511
g3777
g6748
tp6832
a(g1511
g2825
tp6833
a(g1511
g2825
g4622
tp6834
a(g2540
g3780
tp6835
a(g2974
Vashamed
p6836
tp6837
a(g638
g4758
tp6838
a(g638
g4758
g4759
tp6839
a(g6291
g6293
tp6840
a(g6291
g6293
Vthings
p6841
tp6842
a(g2097
Vpleaseeeee
p6843
tp6844
a(g2097
g6843
g4299
tp6845
a(g2910
g6684
tp6846
a(g4214
g4216
tp6847
a(g4214
g4216
g4157
tp6848
a(Vminded
p6849
g4394
tp6850
a(g6849
g4394
g648
tp6851
a(g4767
g4769
tp6852
a(g4767
g4769
Vwhatever
p6853
tp6854
a(g1884
g2182
tp6855
a(g1884
g2182
g1259
tp6856
a(g5572
g1989
tp6857
a(g5572
g1989
g1990
tp6858
a(g1512
g5717
tp6859
a(g1512
g5717
g6454
tp6860
a(Vmiracle
p6861
g3757
tp6862
a(g6861
g3757
g3758
tp6863
a(g3052
g975
tp6864
a(g3052
g975
g976
tp6865
a(g2223
g4661
tp6866
a(Vmiss
p6867
g3418
tp6868
a(g6867
g3418
g285
tp6869
a(g247
Vlove
p6870
tp6871
a(g6595
Vyou
p6872
tp6873
a(g1103
g6295
tp6874
a(g1103
g6295
Vsoooo
p6875
tp6876
a(g3743
g5949
tp6877
a(g3743
g5949
Vtalented
p6878
tp6879
a(Vmom
p6880
g1881
tp6881
a(g6880
g1881
g1882
tp6882
a(g3783
g3785
tp6883
a(g3783
g3785
Vnowbeyond
p6884
tp6885
a(g2242
g2244
tp6886
a(g2242
g2244
g3948
tp6887
a(g3791
g3793
tp6888
a(g3791
g3793
Vshemars
p6889
tp6890
a(g2648
g4772
tp6891
a(g2648
g4772
g5200
tp6892
a(g5699
g6486
tp6893
a(g5699
g6486
g661
tp6894
a(g5531
g2016
tp6895
a(g5531
g2016
g2017
tp6896
a(g1513
Vback
p6897
tp6898
a(Vmorals
p6899
g3067
tp6900
a(g6899
g3067
g2107
tp6901
a(g3796
g3798
tp6902
a(g1514
Vpeople
p6903
tp6904
a(g1514
g6903
Vstarting
p6905
tp6906
a(g6597
Vyour
p6907
tp6908
a(g6597
g6907
g1668
tp6909
a(Vmorning
p6910
g2148
tp6911
a(g6910
g2148
g1623
tp6912
a(g1516
Vbest
p6913
tp6914
a(g4552
g2177
tp6915
a(g4552
g2177
g2178
tp6916
a(g5056
g2432
tp6917
a(g5056
g2432
g2433
tp6918
a(g1727
g236
tp6919
a(g1727
g236
g2912
tp6920
a(g5384
g3344
tp6921
a(g5384
g3344
g3345
tp6922
a(g166
g167
g3576
tp6923
a(Vmuch
p6924
g3645
g3646
tp6925
a(Vmuch
p6926
g3828
g3829
tp6927
a(Vmuch
p6928
g3841
g3842
tp6929
a(Vmuch
p6930
g4008
g4009
tp6931
a(g3360
g3362
tp6932
a(g3360
g3362
g604
tp6933
a(g6299
g4597
tp6934
a(g6299
g4597
g4598
tp6935
a(g5492
g4719
tp6936
a(g5492
g4719
g4720
tp6937
a(g6301
g5109
tp6938
a(g6301
g5109
g5110
tp6939
a(g183
g3800
tp6940
a(g183
g3800
g5468
tp6941
a(g220
g221
g2013
tp6942
a(g6304
g6305
g6314
tp6943
a(g5390
g1144
g1145
tp6944
a(g5725
g5727
tp6945
a(g5725
g5727
g6656
tp6946
a(g2074
g3802
tp6947
a(g2074
g3802
Veither
p6948
tp6949
a(g1106
g1107
g143
tp6950
a(Vmuch
p6951
Vplease
p6952
g4576
tp6953
a(g6308
g6309
tp6954
a(g6308
g6309
g4594
tp6955
a(g6
g650
tp6956
a(g6
g650
Vvegetarians
p6957
tp6958
a(g2806
g1348
tp6959
a(g2806
g1348
g1349
tp6960
a(g3805
g3806
tp6961
a(g4121
g5852
tp6962
a(g4121
g5852
g6754
tp6963
a(g1146
Vwould
p6964
tp6965
a(g1146
g6964
g3154
tp6966
a(g3809
g1566
tp6967
a(g4047
Vdontgetit
p6968
tp6969
a(Vmusic
p6970
Voffice
p6971
tp6972
a(g6970
g6971
g1663
tp6973
a(g3162
g2941
tp6974
a(g3162
g2941
g2942
tp6975
a(g3812
g2131
tp6976
a(g3812
g2131
g2132
tp6977
a(g3816
g3453
tp6978
a(g3816
g3453
g1818
tp6979
a(Vmyheartishis
p6980
g5998
tp6981
a(g6980
g5998
g5999
tp6982
a(Vname
p6983
g2925
tp6984
a(g6983
g2925
g2926
tp6985
a(Vname
p6986
Vsayy
p6987
tp6988
a(g6986
g6987
Vnamewhen
p6989
tp6990
a(Vnamedonika
p6991
Vfact
p6992
tp6993
a(g6991
g6992
Vbeyond
p6994
tp6995
a(g2867
g2869
tp6996
a(g2867
g2869
g3903
tp6997
a(g6989
Vone
p6998
tp6999
a(g6989
g6998
g2158
tp7000
a(g6506
Vtrails
p7001
tp7002
a(g6506
g7001
g5737
tp7003
a(g6563
Vuniform
p7004
tp7005
a(g6563
g7004
g630
tp7006
a(Vneed
p7007
g6057
g1755
tp7008
a(g639
g1185
g1923
tp7009
a(g4165
g4500
tp7010
a(g4165
g4500
g5421
tp7011
a(g5877
g3973
tp7012
a(g5877
g3973
g3974
tp7013
a(g176
g4905
tp7014
a(g176
g4905
g4906
tp7015
a(g5515
g5517
tp7016
a(g5515
g5517
g6444
tp7017
a(Vnever
p7018
Vproblems
p7019
tp7020
a(g7018
g7019
g2080
tp7021
a(g2857
g2859
tp7022
a(g2857
g2859
g351
tp7023
a(g2996
g5662
tp7024
a(g2996
g5662
Vtweet
p7025
tp7026
a(Vnever
p7027
Vunfollow
p7028
tp7029
a(g7027
g7028
Vpeople
p7030
tp7031
a(Vnever
p7032
Vwouldve
p7033
tp7034
a(g7032
g7033
g5635
tp7035
a(g838
g2795
tp7036
a(g838
g2795
g2796
tp7037
a(g6523
Vcarre
p7038
tp7039
a(g98
g4639
tp7040
a(g98
g4639
g1489
tp7041
a(g4644
g4646
tp7042
a(g4644
g4646
g5519
tp7043
a(g6284
g1213
tp7044
a(g6284
g1213
g1214
tp7045
a(g6317
g6319
tp7046
a(g6317
g6319
g5603
tp7047
a(g892
g1192
g5963
tp7048
a(g3821
g670
tp7049
a(g3388
Vshow
p7050
tp7051
a(g3388
g7050
Vlove
p7052
tp7053
a(g2239
g4634
tp7054
a(g2239
g4634
g4635
tp7055
a(g5457
g5459
tp7056
a(g5457
g5459
g5542
tp7057
a(Vnicobarcia
p7058
g5818
tp7059
a(g7058
g5818
g4323
tp7060
a(Vnicolebarts
p7061
g637
tp7062
a(g7061
g637
g4484
tp7063
a(g640
g3201
tp7064
a(g640
g3201
g3202
tp7065
a(g3824
g3826
tp7066
a(g3824
g3826
g5627
tp7067
a(g6686
g6688
tp7068
a(g6686
g6688
Vsex
p7069
tp7070
a(Vniggas
p7071
Vignorant
p7072
tp7073
a(g3257
g3259
tp7074
a(g2396
g4273
tp7075
a(g641
g544
tp7076
a(g641
g544
g545
tp7077
a(g3829
g3831
tp7078
a(g3829
g3831
g1408
tp7079
a(g1792
g1794
tp7080
a(g1792
g1794
g4976
tp7081
a(Vnobody
p7082
g5067
tp7083
a(g7082
g5067
g3058
tp7084
a(g5982
g1383
tp7085
a(g5982
g1383
g1384
tp7086
a(Vnolan
p7087
Vwould
p7088
tp7089
a(g7087
g7088
g5087
tp7090
a(g3834
g3836
tp7091
a(g3834
g3836
g1737
tp7092
a(g4910
g4912
tp7093
a(g4910
g4912
g343
tp7094
a(Vnope
p7095
g6078
tp7096
a(g7095
g6078
g2251
tp7097
a(Vnormal
p7098
g1559
tp7099
a(g7098
g1559
g1519
tp7100
a(Vnot
p7101
g4603
tp7102
a(g7101
g4603
g4604
tp7103
a(g642
g6030
tp7104
a(g642
g6030
g366
tp7105
a(g2690
g2692
tp7106
a(g2690
g2692
g5418
tp7107
a(g4789
g235
tp7108
a(g292
g1768
tp7109
a(g292
g1768
g627
tp7110
a(Vnothing
p7111
g3139
tp7112
a(g7111
g3139
g664
tp7113
a(Vnotice
p7114
g2946
tp7115
a(g7114
g2946
g2947
tp7116
a(g4774
g1052
tp7117
a(g4774
g1052
g176
tp7118
a(g1809
g1811
tp7119
a(g1809
g1811
g6672
tp7120
a(g249
g296
tp7121
a(g6884
Vdislike
p7122
tp7123
a(g5936
Vswear
p7124
tp7125
a(g5936
g7124
g7071
tp7126
a(Vnude
p7127
Vline
p7128
tp7129
a(g4868
g4870
tp7130
a(g4868
g4870
g2188
tp7131
a(Vnwilling
p7132
g6210
tp7133
a(g7132
g6210
g6211
tp7134
a(g2527
g2529
tp7135
a(g2527
g2529
Vsrsly
p7136
tp7137
a(g6971
g1663
tp7138
a(g6971
g1663
g1664
tp7139
a(g5855
g5857
tp7140
a(g5855
g5857
g3736
tp7141
a(Vokay
p7142
Vsir
p7143
tp7144
a(g7142
g7143
Vtake
p7145
tp7146
a(g5496
g5498
tp7147
a(g5496
g5498
Vsorry
p7148
tp7149
a(g1199
g1200
g6282
tp7150
a(Vomg
p7151
Vsheeran
p7152
tp7153
a(g7151
g7152
g4712
tp7154
a(g6998
g2158
tp7155
a(g6998
g2158
g2159
tp7156
a(Vone
p7157
g2513
tp7158
a(g7157
g2513
g2514
tp7159
a(g1202
g609
g2564
tp7160
a(g4381
g2568
g2569
tp7161
a(Vone
p7162
g2952
tp7163
a(g7162
g2952
g2953
tp7164
a(g5307
g2980
tp7165
a(g5307
g2980
g2981
tp7166
a(g3891
g3374
g3375
tp7167
a(g1204
g1205
g3382
tp7168
a(g3842
g3506
tp7169
a(g3842
g3506
g3098
tp7170
a(g5160
g3513
g3514
tp7171
a(g841
g3844
tp7172
a(Vone
p7173
g5592
tp7174
a(g7173
g5592
g580
tp7175
a(g3036
g509
tp7176
a(g3036
g509
g510
tp7177
a(g2457
g5985
tp7178
a(g2457
g5985
g5986
tp7179
a(Vone
p7180
g6258
g6259
tp7181
a(g5745
g5747
Vyou
p7182
tp7183
a(Vone
p7184
g6696
tp7185
a(g7184
g6696
g6697
tp7186
a(g4319
g6774
tp7187
a(g4319
g6774
g6775
tp7188
a(Vone
p7189
Vpicses
p7190
tp7191
a(g7189
g7190
g3823
tp7192
a(Vone
p7193
g367
tp7194
a(g7193
g367
g563
tp7195
a(g18
g151
g6156
tp7196
a(Vone
p7197
Vthing
p7198
g6861
tp7199
a(g3137
g5216
tp7200
a(g3137
g5216
g1445
tp7201
a(Vone
p7202
Vunderstands
p7203
tp7204
a(g7202
g7203
g6924
tp7205
a(g912
g4371
tp7206
a(g4416
g1569
tp7207
a(g4416
g1569
Vmalik
p7208
tp7209
a(g4146
g4148
tp7210
a(g4146
g4148
g6587
tp7211
a(Vopen
p7212
g6849
tp7213
a(g7212
g6849
g4394
tp7214
a(g2114
Vteamdroid
p7215
tp7216
a(Vopinion
p7217
g1903
tp7218
a(g7217
g1903
g1904
tp7219
a(Vorder
p7220
Vpaying
p7221
tp7222
a(g7220
g7221
Vyouget
p7223
tp7224
a(g3793
g6889
tp7225
a(g3793
g6889
g5832
tp7226
a(g1631
g4613
tp7227
a(g1631
g4613
g6660
tp7228
a(g4916
g6357
tp7229
a(g4916
g6357
g6358
tp7230
a(g3433
g6333
tp7231
a(g3433
g6333
Vbaby
p7232
tp7233
a(g6336
g4450
tp7234
a(g6336
g4450
g4451
tp7235
a(g4431
g5320
tp7236
a(g5103
g3535
tp7237
a(g5103
g3535
g3536
tp7238
a(g1518
g273
tp7239
a(g4300
g4302
tp7240
a(g4804
g4365
tp7241
a(g4804
g4365
g4366
tp7242
a(g4682
g2573
tp7243
a(g4682
g2573
g2574
tp7244
a(g6341
g1908
tp7245
a(g6341
g1908
g1909
tp7246
a(Vpanties
p7247
Vteeth
p7248
tp7249
a(g7247
g7248
g1939
tp7250
a(g1519
Vreally
p7251
tp7252
a(g1519
g7251
g4080
tp7253
a(g5585
g3390
tp7254
a(g5585
g3390
g1441
tp7255
a(Vpark
p7256
g3943
tp7257
a(g7256
g3943
g3944
tp7258
a(Vparking
p7259
g6039
tp7260
a(g7259
g6039
g1823
tp7261
a(Vpart
p7262
Vsum
p7263
tp7264
a(g7262
g7263
g6239
tp7265
a(g1626
g2226
tp7266
a(g1626
g2226
g2272
tp7267
a(g5438
g3607
tp7268
a(g5438
g3607
g3608
tp7269
a(g7221
g7223
tp7270
a(g7221
g7223
g2166
tp7271
a(g3847
g3849
tp7272
a(g3852
g3854
tp7273
a(g3852
g3854
g2809
tp7274
a(g6339
g6341
tp7275
a(g6339
g6341
g1908
tp7276
a(g6344
g6346
tp7277
a(g6344
g6346
g5233
tp7278
a(g3641
g1687
tp7279
a(g3641
g1687
g1688
tp7280
a(g5990
g2021
tp7281
a(g5990
g2021
g2022
tp7282
a(g4391
g2036
tp7283
a(g4391
g2036
g2037
tp7284
a(g988
g1459
tp7285
a(g988
g1459
g2867
tp7286
a(g5665
g2921
tp7287
a(g5665
g2921
g258
tp7288
a(g2039
g3046
tp7289
a(g2039
g3046
g3047
tp7290
a(g5484
g3532
g1706
tp7291
a(g849
g850
g3686
tp7292
a(g5857
g3736
g1502
tp7293
a(g4177
g3740
g3741
tp7294
a(g1583
g1585
g360
tp7295
a(g1646
g4013
g4014
tp7296
a(g3223
g4032
g1549
tp7297
a(g3857
g3858
tp7298
a(g3857
g3858
g4163
tp7299
a(g3802
g6948
tp7300
a(g5078
g281
tp7301
a(g5078
g281
g4363
tp7302
a(g3861
g3862
tp7303
a(g3861
g3862
g4868
tp7304
a(g5164
g5165
tp7305
a(g5164
g5165
g5183
tp7306
a(g3865
g1495
tp7307
a(g3865
g1495
g4813
tp7308
a(g4171
g4717
g5792
tp7309
a(g1213
g1214
g5077
tp7310
a(g4537
g6148
g3486
tp7311
a(g544
g545
g6301
tp7312
a(g5045
g5047
Vpic
p7313
tp7314
a(g1216
g1217
g1565
tp7315
a(g3868
g3869
tp7316
a(g3868
g3869
g6899
tp7317
a(g2486
g2488
tp7318
a(g2486
g2488
g3990
tp7319
a(g3872
g3873
tp7320
a(g3872
g3873
g5270
tp7321
a(g6903
g6905
tp7322
a(g6903
g6905
g5156
tp7323
a(g5271
g377
tp7324
a(g5271
g377
Vspanish
p7325
tp7326
a(g1081
g5862
tp7327
a(g1081
g5862
Vcorylcfbnhn8
p7328
tp7329
a(g62
g255
tp7330
a(g62
g255
g1339
tp7331
a(g3877
g3878
tp7332
a(g3877
g3878
g660
tp7333
a(g7030
Vunless
p7334
tp7335
a(g7030
g7334
Vdislike
p7336
tp7337
a(g3881
g3882
tp7338
a(g3881
g3882
Vloud
p7339
tp7340
a(g4078
Vweapons
p7341
tp7342
a(g6363
g1491
tp7343
a(Vperfect
p7344
g1492
tp7345
a(g7344
g1492
g619
tp7346
a(g6574
g1782
tp7347
a(g6574
g1782
g1783
tp7348
a(g3885
g2830
tp7349
a(g3885
g2830
g2831
tp7350
a(g6349
g4731
tp7351
a(g6349
g4731
g4732
tp7352
a(g2532
g2534
tp7353
a(g5436
g5438
tp7354
a(g5436
g5438
g3607
tp7355
a(Vperulima
p7356
g2041
tp7357
a(g7356
g2041
g1465
tp7358
a(g3975
Vshit
p7359
tp7360
a(Vpewdie
p7361
g170
tp7362
a(g7361
g170
g197
tp7363
a(g4442
g1951
tp7364
a(g4442
g1951
g1952
tp7365
a(g6353
g6355
tp7366
a(g3026
Vtigers
p7367
tp7368
a(g3026
g7367
g2753
tp7369
a(g7313
Vtweet
p7370
tp7371
a(g7313
g7370
Vsomething
p7372
tp7373
a(g2374
g1975
tp7374
a(g2374
g1975
g1976
tp7375
a(Vpicking
p7376
g5715
tp7377
a(g7376
g5715
g1512
tp7378
a(g7190
g3823
tp7379
a(g7190
g3823
g3824
tp7380
a(g3889
g3891
tp7381
a(g3889
g3891
g3374
tp7382
a(g1520
Vpretty
p7383
tp7384
a(g1520
g7383
g6139
tp7385
a(g2443
g2445
tp7386
a(g2443
g2445
g5908
tp7387
a(g1753
g5350
tp7388
a(g1753
g5350
g3276
tp7389
a(g2232
g2234
tp7390
a(g5955
g3808
tp7391
a(g5955
g3808
g3809
tp7392
a(g645
g1485
tp7393
a(g645
g1485
g4656
tp7394
a(g4725
g4727
tp7395
a(g4725
g4727
g6765
tp7396
a(g3894
g3896
tp7397
a(g3894
g3896
g4724
tp7398
a(g1819
g1821
tp7399
a(g1819
g1821
g3357
tp7400
a(g4094
g1461
tp7401
a(g4094
g1461
g2962
tp7402
a(g3760
g6712
tp7403
a(g3760
g6712
g5799
tp7404
a(g6361
g6363
tp7405
a(g6361
g6363
g1491
tp7406
a(g4598
g4599
tp7407
a(g1107
g143
tp7408
a(g1107
g143
g2769
tp7409
a(Vplease
p7410
g3284
tp7411
a(g7410
g3284
g3285
tp7412
a(Vplease
p7413
g4195
tp7414
a(g7413
g4195
g4196
tp7415
a(g6952
g4576
g4577
tp7416
a(g225
g226
g934
tp7417
a(g4404
g6366
Vlt3
p7418
tp7419
a(Vplease
p7420
g4590
g4591
tp7421
a(g1811
g6672
tp7422
a(g1811
g6672
g4264
tp7423
a(g2637
g2639
tp7424
a(g2637
g2639
g6244
tp7425
a(Vplease
p7426
Vsweetie
p7427
tp7428
a(g7426
g7427
g4585
tp7429
a(Vplease
p7430
Vtweet
p7431
tp7432
a(g7430
g7431
Vwish
p7433
tp7434
a(Vpleaseeee
p7435
Vpleeeaaase
p7436
tp7437
a(g7435
g7436
g7430
tp7438
a(g6843
g4299
tp7439
a(g6843
g4299
g4300
tp7440
a(g7436
g7430
tp7441
a(g7436
g7430
g7431
tp7442
a(g1682
g2736
tp7443
a(g1682
g2736
g2737
tp7444
a(g6309
g4594
tp7445
a(g6309
g4594
g1202
tp7446
a(g1608
g1773
tp7447
a(g2511
Vhead
p7448
tp7449
a(g3115
g3117
tp7450
a(Vpositions
p7451
g4358
tp7452
a(g7451
g4358
g4359
tp7453
a(g3252
g3254
tp7454
a(g3252
g3254
g6102
tp7455
a(g5167
g5169
tp7456
a(g5167
g5169
g5478
tp7457
a(g4238
g241
tp7458
a(g4238
g241
g4866
tp7459
a(g862
g1886
tp7460
a(g862
g1886
g1887
tp7461
a(g3900
g3901
tp7462
a(g3900
g3901
g5365
tp7463
a(Vprbly
p7464
g2526
tp7465
a(g7464
g2526
g2527
tp7466
a(g3903
g3905
tp7467
a(g3903
g3905
g4872
tp7468
a(g7383
g6139
g6140
tp7469
a(g1236
g1237
g1477
tp7470
a(g646
g7410
tp7471
a(g646
g7410
g3284
tp7472
a(g1826
g6724
tp7473
a(g1826
g6724
g3623
tp7474
a(g2759
g1308
tp7475
a(g2759
g1308
g1309
tp7476
a(g7019
g2080
tp7477
a(g7019
g2080
g2081
tp7478
a(Vprobz
p7479
Vwait
p7480
tp7481
a(g7479
g7480
g1628
tp7482
a(g2112
g2114
tp7483
a(g2112
g2114
g7215
tp7484
a(g1957
g1959
tp7485
a(g1957
g1959
g2056
tp7486
a(g4312
g4314
tp7487
a(g4312
g4314
g5179
tp7488
a(g5371
g2827
tp7489
a(g5371
g2827
g1437
tp7490
a(g3157
g2191
tp7491
a(g3157
g2191
g2192
tp7492
a(g5173
g6721
tp7493
a(g5173
g6721
g4508
tp7494
a(g6319
g5603
tp7495
a(g6319
g5603
g5604
tp7496
a(g365
g2818
tp7497
a(g365
g2818
g2819
tp7498
a(g5047
g7313
tp7499
a(g5047
g7313
g7370
tp7500
a(g1217
g1565
tp7501
a(g1217
g1565
g7451
tp7502
a(g6376
g5376
tp7503
a(g6376
g5376
g5377
tp7504
a(Vqueen
p7505
g2282
tp7506
a(g7505
g2282
g2283
tp7507
a(g1522
g3041
tp7508
a(g1522
g3041
g6951
tp7509
a(g4234
g2508
tp7510
a(g4234
g2508
g2509
tp7511
a(g3869
g6899
tp7512
a(g3869
g6899
g3067
tp7513
a(g3910
g3912
tp7514
a(g3910
g3912
g631
tp7515
a(g3701
g5347
tp7516
a(g3701
g5347
g4390
tp7517
a(g5932
g5508
tp7518
a(g5932
g5508
g4546
tp7519
a(g4216
g4157
tp7520
a(g4216
g4157
g3953
tp7521
a(g2178
g2180
tp7522
a(g2178
g2180
g3386
tp7523
a(Vrajebonita
p7524
Vsware
p7525
tp7526
a(g7524
g7525
g591
tp7527
a(g1523
g4387
tp7528
a(g1523
g4387
g4388
tp7529
a(g5426
g4291
tp7530
a(g5426
g4291
g4292
tp7531
a(g1680
g1682
tp7532
a(g1680
g1682
g2736
tp7533
a(g4971
g1648
tp7534
a(g4971
g1648
g1649
tp7535
a(g4872
g233
tp7536
a(g1524
g5865
tp7537
a(g2164
Vwood
p7538
tp7539
a(g2164
g7538
g2741
tp7540
a(g6380
g6382
tp7541
a(g6380
g6382
Vphotos
p7542
tp7543
a(g648
g2051
tp7544
a(g648
g2051
g2052
tp7545
a(g5669
g5671
tp7546
a(g5669
g5671
g5195
tp7547
a(g1990
g1992
tp7548
a(g1990
g1992
Vstory
p7549
tp7550
a(g6385
g5314
tp7551
a(g6385
g5314
g5315
tp7552
a(g293
g6387
tp7553
a(g293
g6387
g1853
tp7554
a(Vrealizing
p7555
Vmuch
p7556
tp7557
a(g7555
g7556
Vdislike
p7558
tp7559
a(g3196
g4697
tp7560
a(g3196
g4697
g6569
tp7561
a(Vreallly
p7562
Vdislike
p7563
tp7564
a(g7562
g7563
Vpeople
p7565
tp7566
a(g3609
g3540
g2085
tp7567
a(g5503
g3549
g2231
tp7568
a(Vreally
p7569
g3564
g275
tp7570
a(Vreally
p7571
g3595
g3336
tp7572
a(Vreally
p7573
g3634
g3635
tp7574
a(Vreally
p7575
g449
g450
tp7576
a(g5275
g5277
Vguy
p7577
tp7578
a(Vreally
p7579
g820
g821
tp7580
a(Vreally
p7581
g3720
g3721
tp7582
a(g3399
g3401
Vlife
p7583
tp7584
a(g8
g9
g22
tp7585
a(g5868
g3782
g3783
tp7586
a(Vreally
p7587
g3815
g3816
tp7588
a(Vreally
p7589
g3893
g3894
tp7590
a(Vreally
p7591
g861
g862
tp7592
a(Vreally
p7593
g3922
g3923
tp7594
a(g2488
g3990
g1539
tp7595
a(g4563
g3999
g4000
tp7596
a(Vreally
p7597
g4038
g4039
tp7598
a(g2465
g2467
g4054
tp7599
a(g7251
g4080
g4081
tp7600
a(Vreally
p7601
g4091
g4092
tp7602
a(g5028
g4101
g4102
tp7603
a(Vreally
p7604
g4108
g4109
tp7605
a(Vreally
p7606
g4190
tp7607
a(g7606
g4190
g4191
tp7608
a(g4
g987
tp7609
a(g4
g987
g988
tp7610
a(g2212
g2214
tp7611
a(Vreally
p7612
g5829
g5206
tp7613
a(g1246
g1247
g5893
tp7614
a(Vreally
p7615
g6204
g6205
tp7616
a(g557
g558
g6274
tp7617
a(g5674
g5676
g6533
tp7618
a(g905
g4219
tp7619
a(Vreally
p7620
g7018
tp7621
a(g7620
g7018
g7019
tp7622
a(Vreally
p7623
Vsalt
p7624
tp7625
a(g7623
g7624
Vwhole
p7626
tp7627
a(g3915
g3916
tp7628
a(g3915
g3916
g7413
tp7629
a(Vreally
p7630
Vstrongly
p7631
tp7632
a(g7630
g7631
g3592
tp7633
a(g6819
Vunderstood
p7634
tp7635
a(g6819
g7634
g5810
tp7636
a(g6005
Vwierd
p7637
tp7638
a(g366
g5144
tp7639
a(g366
g5144
g3243
tp7640
a(g3755
g5373
tp7641
a(g3755
g5373
g4168
tp7642
a(g2772
Vsmile
p7643
tp7644
a(g3490
g3492
tp7645
a(g3490
g3492
Vyour
p7646
tp7647
a(Vrecently
p7648
g4648
tp7649
a(g7648
g4648
g4649
tp7650
a(g3254
g6102
tp7651
a(g3254
g6102
g2684
tp7652
a(g3873
g5270
tp7653
a(g3873
g5270
g5271
tp7654
a(g1722
g1724
tp7655
a(Vrefuse
p7656
g2485
tp7657
a(g7656
g2485
g2486
tp7658
a(g649
g1457
tp7659
a(g649
g1457
g1302
tp7660
a(g5911
Vtime
p7661
tp7662
a(g5911
g7661
g6379
tp7663
a(g1525
g6396
tp7664
a(g1525
g6396
g6397
tp7665
a(g4221
g4223
tp7666
a(g2399
g2401
tp7667
a(g2399
g2401
g2847
tp7668
a(g2912
g2914
tp7669
a(g2912
g2914
g4440
tp7670
a(Vrespect
p7671
g4829
tp7672
a(g7671
g4829
g4830
tp7673
a(g650
g6957
tp7674
a(g650
g6957
g220
tp7675
a(g4225
g4227
tp7676
a(g1526
g1537
tp7677
a(g1526
g1537
g7356
tp7678
a(g6389
g6391
tp7679
a(g6389
g6391
g278
tp7680
a(Vretweet
p7681
Vthis
p7682
tp7683
a(g7681
g7682
g1956
tp7684
a(g4722
g6394
tp7685
a(g2019
g2164
tp7686
a(g2019
g2164
g7538
tp7687
a(g3919
g1470
tp7688
a(g3919
g1470
g3334
tp7689
a(g4782
g4784
tp7690
a(g2883
g2885
tp7691
a(g3144
g3146
tp7692
a(g3144
g3146
g3350
tp7693
a(g6397
g4529
tp7694
a(g6397
g4529
g2916
tp7695
a(g58
g5814
tp7696
a(g58
g5814
g897
tp7697
a(g3785
g6884
tp7698
a(g3785
g6884
g7122
tp7699
a(g3305
g5936
tp7700
a(g3305
g5936
g7124
tp7701
a(Vright
p7702
g7464
tp7703
a(g7702
g7464
g2526
tp7704
a(g4057
Vwingers
p7705
tp7706
a(g6400
g6402
tp7707
a(Vroh
p7708
Vsorry
p7709
tp7710
a(g7708
g7709
g6589
tp7711
a(Vroll
p7712
g4480
tp7713
a(g7712
g4480
g4481
tp7714
a(Vrome
p7715
g3670
tp7716
a(g7715
g3670
g3671
tp7717
a(g1697
g1699
tp7718
a(g1697
g1699
Vdis
p7719
tp7720
a(g5940
g3371
tp7721
a(g5940
g3371
g3372
tp7722
a(g1877
g1879
tp7723
a(g2977
g623
tp7724
a(g2977
g623
g2723
tp7725
a(g4463
Vvzwbuzz
p7726
tp7727
a(g5986
g1540
tp7728
a(g2859
g351
tp7729
a(g2620
g5744
tp7730
a(g2620
g5744
g5745
tp7731
a(g251
g2491
tp7732
a(g5583
g5585
tp7733
a(g5583
g5585
g3390
tp7734
a(g5498
g7148
tp7735
a(g5498
g7148
Vstill
p7736
tp7737
a(g6293
g6841
tp7738
a(g6293
g6841
g2856
tp7739
a(g4317
g4319
tp7740
a(g4317
g4319
g6774
tp7741
a(g7624
g7626
tp7742
a(g7624
g7626
g7259
tp7743
a(g2700
g4316
tp7744
a(g2700
g4316
g4317
tp7745
a(g2237
g2239
tp7746
a(g2237
g2239
g4634
tp7747
a(g5846
g1684
tp7748
a(g5846
g1684
g1685
tp7749
a(g2159
g2161
tp7750
a(g2159
g2161
g2343
tp7751
a(g5873
g3715
g3716
tp7752
a(g1259
g1260
g3997
tp7753
a(g37
g29
g5153
tp7754
a(g5293
g5295
tp7755
a(g5293
g5295
g5606
tp7756
a(g2639
g6244
tp7757
a(g2639
g6244
g5749
tp7758
a(Vsay
p7759
g638
tp7760
a(g7759
g638
g4758
tp7761
a(Vsay
p7762
Vscared
p7763
tp7764
a(g7762
g7763
g7759
tp7765
a(g4229
g4231
tp7766
a(g4229
g4231
g4880
tp7767
a(g1764
g1766
tp7768
a(g1764
g1766
Vlike
p7769
tp7770
a(g4399
g5771
tp7771
a(g4399
g5771
g4401
tp7772
a(Vsayang
p7773
g6266
tp7774
a(g7773
g6266
g6267
tp7775
a(g5259
g2993
tp7776
a(g5259
g2993
g2994
tp7777
a(g4931
g4933
tp7778
a(g4931
g4933
g6425
tp7779
a(g5443
g6727
tp7780
a(g5443
g6727
g6728
tp7781
a(g252
g294
tp7782
a(g252
g294
g1527
tp7783
a(g1882
g1884
tp7784
a(g1882
g1884
g2182
tp7785
a(g6987
g6989
tp7786
a(g6987
g6989
g6998
tp7787
a(Vsayyy
p7788
g6986
tp7789
a(g7788
g6986
g6987
tp7790
a(g7763
g7759
tp7791
a(g7763
g7759
g638
tp7792
a(g1962
g1964
tp7793
a(g4914
g4916
tp7794
a(g4914
g4916
g6357
tp7795
a(g1824
g1826
tp7796
a(g1824
g1826
g6724
tp7797
a(g148
g1523
tp7798
a(g148
g1523
g4387
tp7799
a(g4878
g4971
tp7800
a(g4878
g4971
g1648
tp7801
a(g4808
g3023
tp7802
a(g4808
g3023
g3024
tp7803
a(g4772
g5200
tp7804
a(g4772
g5200
g5201
tp7805
a(g4016
g1544
tp7806
a(Vsee
p7807
g3494
tp7808
a(g7807
g3494
g276
tp7809
a(Vsee
p7810
Vlove
p7811
tp7812
a(g3216
g3218
tp7813
a(g5662
g7025
tp7814
a(g5662
g7025
g6580
tp7815
a(g6407
g4445
tp7816
a(g6407
g4445
g4446
tp7817
a(g1121
g1287
tp7818
a(g1121
g1287
g1288
tp7819
a(g6712
g5799
tp7820
a(g6712
g5799
g2882
tp7821
a(g1527
Vharm
p7822
tp7823
a(g3155
g3157
tp7824
a(g3155
g3157
g2191
tp7825
a(g4200
g5877
tp7826
a(g4200
g5877
g3973
tp7827
a(g3928
g3930
tp7828
a(g3928
g3930
g7142
tp7829
a(Vserzly
p7830
g6565
tp7831
a(g7830
g6565
g6566
tp7832
a(g3173
g3175
tp7833
a(g2132
g2134
tp7834
a(g368
g2779
tp7835
a(g368
g2779
g2780
tp7836
a(Vshaquoy
p7837
Vdislike
p7838
tp7839
a(g7837
g7838
Vpeople
p7840
tp7841
a(g5588
g5590
tp7842
a(g5588
g5590
g6594
tp7843
a(g6417
g6419
tp7844
a(g6417
g6419
g6489
tp7845
a(g1528
g1509
tp7846
a(g1528
g1509
g6789
tp7847
a(g7152
g4712
tp7848
a(g7152
g4712
g4713
tp7849
a(g6889
g5832
tp7850
a(g6889
g5832
g5549
tp7851
a(g1530
g2275
tp7852
a(g1530
g2275
g2276
tp7853
a(Vshes
p7854
g7184
tp7855
a(g7854
g7184
g6696
tp7856
a(g4414
g4416
tp7857
a(g4414
g4416
g1569
tp7858
a(g4231
g4880
tp7859
a(g4231
g4880
g4881
tp7860
a(g5780
g5782
tp7861
a(g4918
g3143
tp7862
a(g4918
g3143
g3144
tp7863
a(g2046
g6423
tp7864
a(g1649
g1651
tp7865
a(g1649
g1651
g3316
tp7866
a(g1531
Vskirts
p7867
tp7868
a(g1532
g4789
tp7869
a(g1532
g4789
g235
tp7870
a(g6761
g6763
tp7871
a(g6761
g6763
g3007
tp7872
a(Vshould
p7873
g5701
tp7874
a(g7873
g5701
g1458
tp7875
a(g7050
g7052
tp7876
a(g6425
g1515
tp7877
a(g652
g3934
tp7878
a(g652
g3934
g2418
tp7879
a(Vsick
p7880
g1123
tp7881
a(g7880
g1123
g295
tp7882
a(Vside
p7883
g4843
tp7884
a(g7883
g4843
g4844
tp7885
a(g4549
g2478
tp7886
a(g4549
g2478
g2479
tp7887
a(g1534
g4234
tp7888
a(g1534
g4234
g2508
tp7889
a(Vsimplyrae01
p7890
g2169
tp7891
a(g7890
g2169
g2170
tp7892
a(g653
g1486
tp7893
a(g653
g1486
g4673
tp7894
a(g2301
g5680
tp7895
a(g2301
g5680
g5719
tp7896
a(g2455
g2457
tp7897
a(g2455
g2457
g5985
tp7898
a(g4497
g5880
tp7899
a(g4497
g5880
Vlove
p7900
tp7901
a(g7143
g7145
tp7902
a(g7143
g7145
g7220
tp7903
a(g2285
g6428
tp7904
a(g2285
g6428
g6429
tp7905
a(g3939
g3941
tp7906
a(g6429
g6431
tp7907
a(g3944
g3946
tp7908
a(g3944
g3946
g5038
tp7909
a(g6024
g6448
tp7910
a(g6024
g6448
g6449
tp7911
a(Vsleep
p7912
Vwell
p7913
tp7914
a(g7912
g7913
g7773
tp7915
a(g5171
g5173
tp7916
a(g5171
g5173
g6721
tp7917
a(g372
g5059
tp7918
a(g372
g5059
g378
tp7919
a(g2843
g2845
tp7920
a(g2843
g2845
Vlove
p7921
tp7922
a(g6433
g350
tp7923
a(g2840
g4974
tp7924
a(g2840
g4974
g6433
tp7925
a(g3949
g3951
tp7926
a(g3949
g3951
g5167
tp7927
a(g2659
g2654
tp7928
a(g2659
g2654
g2655
tp7929
a(g2425
g4876
tp7930
a(g2425
g4876
g4877
tp7931
a(g3954
g3956
tp7932
a(g3954
g3956
g5171
tp7933
a(g373
g5177
tp7934
a(g373
g5177
g1542
tp7935
a(g6441
g3043
tp7936
a(g6441
g3043
g2348
tp7937
a(g3959
g3961
tp7938
a(Vsome
p7939
g3398
tp7940
a(g7939
g3398
g3399
tp7941
a(g2088
g5990
g2021
tp7942
a(g654
g1216
g1217
tp7943
a(g3964
g1859
tp7944
a(g3964
g1859
g1860
tp7945
a(g6444
g341
tp7946
a(g6444
g341
g2499
tp7947
a(g1699
g7719
tp7948
a(g1287
g1288
g3679
tp7949
a(g38
g3971
tp7950
a(g38
g3971
g4311
tp7951
a(Vsomeone
p7952
g6669
tp7953
a(g7952
g6669
g3703
tp7954
a(g3974
g3975
tp7955
a(g3974
g3975
g7359
tp7956
a(g2509
g2511
tp7957
a(g2509
g2511
g7448
tp7958
a(g5179
g659
tp7959
a(g5179
g659
g173
tp7960
a(g6792
g6794
tp7961
a(g6792
g6794
g1463
tp7962
a(g1420
Vwillingly
p7963
tp7964
a(g1420
g7963
g65
tp7965
a(g7372
g5802
g5803
tp7966
a(g1299
g1300
g3528
tp7967
a(g2972
g2974
tp7968
a(g2972
g2974
g6836
tp7969
a(g294
g1527
tp7970
a(g294
g1527
g7822
tp7971
a(g1573
g1575
tp7972
a(g1573
g1575
Vevery
p7973
tp7974
a(g1302
g242
g605
tp7975
a(g2024
g2026
g1488
tp7976
a(Vsometimes
p7977
g6791
tp7978
a(g7977
g6791
g6792
tp7979
a(g1909
g1911
tp7980
a(g1909
g1911
g4472
tp7981
a(g5705
g3725
tp7982
a(g5705
g3725
g3726
tp7983
a(g2359
g5921
tp7984
a(g1192
g5963
tp7985
a(g1192
g5963
g5964
tp7986
a(g195
g2728
tp7987
a(g195
g2728
g234
tp7988
a(g6449
g270
tp7989
a(g6449
g270
g271
tp7990
a(g524
g386
tp7991
a(g524
g386
g12
tp7992
a(g3441
g1791
tp7993
a(g3441
g1791
g1792
tp7994
a(g1578
g1580
tp7995
a(g1578
g1580
g5463
tp7996
a(g6616
g5561
tp7997
a(g6616
g5561
g5562
tp7998
a(g295
g6452
tp7999
a(g295
g6452
g1545
tp8000
a(g1536
g5539
tp8001
a(g1536
g5539
g5534
tp8002
a(g3008
g3010
tp8003
a(g3008
g3010
g4746
tp8004
a(g1537
g7356
tp8005
a(g1537
g7356
g2041
tp8006
a(g1538
g4345
tp8007
a(g6875
Vmuuuch
p8008
tp8009
a(g3978
g2750
tp8010
a(g3978
g2750
g2751
tp8011
a(g7709
g6589
tp8012
a(g7709
g6589
g6590
tp8013
a(g3916
g7413
tp8014
a(g3916
g7413
g4195
tp8015
a(g7148
g7736
tp8016
a(g7148
g7736
g6650
tp8017
a(Vsorry
p8018
Vtom
p8019
g6826
tp8020
a(g1308
g1309
g1246
tp8021
a(g5009
g1080
tp8022
a(g5009
g1080
g1081
tp8023
a(g6035
g1547
tp8024
a(g6035
g1547
g1833
tp8025
a(g5683
g5685
tp8026
a(g5683
g5685
g7202
tp8027
a(g3660
g4572
tp8028
a(g7325
Vmexicans
p8029
tp8030
a(g4503
g2385
tp8031
a(g4503
g2385
g1841
tp8032
a(Vspell
p8033
g3456
tp8034
a(g8033
g3456
g3457
tp8035
a(g4202
g4615
g4616
tp8036
a(g3982
g3983
tp8037
a(g3982
g3983
g1961
tp8038
a(g4206
g5885
tp8039
a(Vspoiler
p8040
Vugh
p8041
tp8042
a(g8040
g8041
g5081
tp8043
a(g3986
g3988
tp8044
a(g7136
Vdislike
p8045
tp8046
a(g6455
g5279
tp8047
a(g6455
g5279
g4543
tp8048
a(g5625
Vyoui
p8049
tp8050
a(g5625
g8049
g5574
tp8051
a(g3723
g5696
tp8052
a(g1539
g1455
tp8053
a(g6513
g4581
tp8054
a(g6513
g4581
g2957
tp8055
a(g656
g1312
g384
tp8056
a(g6905
g5156
tp8057
a(g6905
g5156
g5157
tp8058
a(g3774
g2890
tp8059
a(g3774
g2890
g2891
tp8060
a(Vstephhh
p8061
g6201
tp8062
a(g8061
g6201
g5190
tp8063
a(g3994
g1671
tp8064
a(g3994
g1671
g1672
tp8065
a(g1618
g2100
tp8066
a(g1618
g2100
g3431
tp8067
a(g2244
g3948
tp8068
a(g2244
g3948
g3949
tp8069
a(g2682
g4949
tp8070
a(g2682
g4949
g3657
tp8071
a(g4764
g5888
tp8072
a(g577
g578
g1094
tp8073
a(g5151
g5268
g6291
tp8074
a(g4130
g4132
g6484
tp8075
a(g7736
g6650
tp8076
a(g7736
g6650
g1999
tp8077
a(Vstill
p8078
g7162
tp8079
a(g8078
g7162
g2952
tp8080
a(g99
g59
tp8081
a(g99
g59
g149
tp8082
a(Vstone
p8083
g5854
tp8084
a(g8083
g5854
g5855
tp8085
a(g3379
g676
tp8086
a(g3379
g676
g365
tp8087
a(g7549
Vplease
p8088
tp8089
a(g2029
g2031
g2707
tp8090
a(g7631
g3592
g3247
tp8091
a(Vstrongly
p8092
g3626
g3627
tp8093
a(Vstrongly
p8094
g3766
g3767
tp8095
a(Vstrongly
p8096
g3787
g3788
tp8097
a(Vstrongly
p8098
g3790
g3791
tp8099
a(Vstrongly
p8100
g840
g841
tp8101
a(Vstrongly
p8102
g3936
g1533
tp8103
a(Vstrongly
p8104
g4044
g4045
tp8105
a(g2363
g4068
g4069
tp8106
a(g2929
g2931
tp8107
a(g2929
g2931
Vletshopefrancekeeplosing
p8108
tp8109
a(g4000
g2469
tp8110
a(g4000
g2469
g1563
tp8111
a(g2675
Vthough
p8112
tp8113
a(g5717
g6454
g6455
tp8114
a(g657
g1322
g6501
tp8115
a(g5880
g7900
tp8116
a(g5880
g7900
Vsongs
p8117
tp8118
a(g1541
g6459
tp8119
a(g1541
g6459
g6014
tp8120
a(g6628
Vthink
p8121
tp8122
a(g6628
g8121
g666
tp8123
a(Vsubtweets
p8124
Vitswhatevaa
p8125
tp8126
a(g1324
g8124
g8125
tp8127
a(g658
g1324
g8124
tp8128
a(g7263
g6239
tp8129
a(g7263
g6239
g6240
tp8130
a(g4004
g4006
tp8131
a(g1542
g5129
tp8132
a(g1542
g5129
g5130
tp8133
a(g5090
g5092
tp8134
a(g5090
g5092
g6717
tp8135
a(Vsunnysideeup
p8136
Vreally
p8137
tp8138
a(g8136
g8137
g3876
tp8139
a(g2554
g3078
tp8140
a(g6382
g7542
tp8141
a(g375
g5226
tp8142
a(Vsupport
p8143
g6161
tp8144
a(g8143
g6161
g911
tp8145
a(g4635
g4637
tp8146
a(g4635
g4637
g6476
tp8147
a(g5201
g5203
tp8148
a(g7525
g591
tp8149
a(g7525
g591
g541
tp8150
a(g2410
g5118
tp8151
a(g2410
g5118
g1471
tp8152
a(g376
g3034
tp8153
a(g7124
g7071
tp8154
a(g7124
g7071
g7072
tp8155
a(g2662
g2664
tp8156
a(g1543
g487
tp8157
a(g1543
g487
g181
tp8158
a(g2126
g5033
tp8159
a(g2126
g5033
g5034
tp8160
a(g7427
g4585
tp8161
a(g7427
g4585
g4586
tp8162
a(g4649
g2876
tp8163
a(g4649
g2876
g2194
tp8164
a(g6391
g278
tp8165
a(g6391
g278
g2950
tp8166
a(g3901
g5365
tp8167
a(g3901
g5365
g5366
tp8168
a(g2713
g5406
tp8169
a(g2713
g5406
g6761
tp8170
a(g2804
g5572
tp8171
a(g2804
g5572
g1989
tp8172
a(g7145
g7220
tp8173
a(g7145
g7220
g7221
tp8174
a(g149
g7247
tp8175
a(g149
g7247
g7248
tp8176
a(g3221
g3223
tp8177
a(g3221
g3223
g4032
tp8178
a(Vtaken
p8179
g447
tp8180
a(g8179
g447
g145
tp8181
a(g3695
g645
tp8182
a(g3695
g645
g1485
tp8183
a(g5750
g5752
tp8184
a(Vtalent
p8185
g1643
tp8186
a(g8185
g1643
g1644
tp8187
a(g2142
g2928
tp8188
a(g2142
g2928
g2929
tp8189
a(g3613
g1446
tp8190
a(g3613
g1446
g2064
tp8191
a(g4628
g4630
tp8192
a(g377
g7325
tp8193
a(g377
g7325
g8029
tp8194
a(g4912
g343
tp8195
a(g5862
g7328
tp8196
a(g3327
g6467
tp8197
a(g2516
g3120
tp8198
a(g2516
g3120
g4049
tp8199
a(g5995
g4502
tp8200
a(g5995
g4502
g4503
tp8201
a(g6549
g5929
tp8202
a(g6549
g5929
g289
tp8203
a(Vtaurus
p8204
Vwomen
p8205
tp8206
a(g8204
g8205
g4930
tp8207
a(g4009
g4011
tp8208
a(g4009
g4011
g6105
tp8209
a(g4854
g5708
tp8210
a(g4923
g1980
tp8211
a(g4923
g1980
g1981
tp8212
a(g1976
g1978
tp8213
a(g1976
g1978
g5787
tp8214
a(g4307
g6470
tp8215
a(g4307
g6470
g936
tp8216
a(g7248
g1939
tp8217
a(g7248
g1939
g1940
tp8218
a(g4732
g4734
tp8219
a(g4732
g4734
g4910
tp8220
a(g1959
g2056
tp8221
a(g1959
g2056
g1299
tp8222
a(g2917
g2919
tp8223
a(g2917
g2919
g4221
tp8224
a(g4500
g5421
tp8225
a(g4500
g5421
g5422
tp8226
a(g3471
g5913
tp8227
a(g3471
g5913
g5646
tp8228
a(g5020
g5022
tp8229
a(g5020
g5022
Vdislike
p8230
tp8231
a(g4014
g4016
tp8232
a(g4014
g4016
g1544
tp8233
a(g5369
g5371
tp8234
a(g5369
g5371
g2827
tp8235
a(g1995
g1997
tp8236
a(g1995
g1997
Vwould
p8237
tp8238
a(g255
g1339
g2365
tp8239
a(g5671
g5195
tp8240
a(g5671
g5195
g2048
tp8241
a(g4111
g5838
tp8242
a(g4111
g5838
g5839
tp8243
a(g2715
g2717
tp8244
a(g2715
g2717
g6276
tp8245
a(g1575
g7973
tp8246
a(g1575
g7973
Vone
p8247
tp8248
a(g378
g5061
tp8249
a(g378
g5061
g93
tp8250
a(Vthank
p8251
g6823
tp8252
a(g8251
g6823
g6824
tp8253
a(Vthank
p8254
g1428
tp8255
a(g8254
g1428
g1429
tp8256
a(g2217
g2006
tp8257
a(g2217
g2006
g2007
tp8258
a(g3178
g3180
tp8259
a(g3178
g3180
g5431
tp8260
a(g2283
g2285
tp8261
a(g2283
g2285
g6428
tp8262
a(g2872
g2874
tp8263
a(g2872
g2874
g8143
tp8264
a(Vthankssss
p8265
g8061
tp8266
a(g8265
g8061
g6201
tp8267
a(g3290
g1913
tp8268
a(g3290
g1913
g1914
tp8269
a(g2606
g640
tp8270
a(g2606
g640
g3201
tp8271
a(g4769
g6853
tp8272
a(g4769
g6853
Vyou
p8273
tp8274
a(Vthatgirl
p8275
g843
tp8276
a(g8275
g843
g643
tp8277
a(g4830
g4832
tp8278
a(g4830
g4832
g6686
tp8279
a(g1889
Vannoying
p8280
tp8281
a(Vthats
p8282
g1454
tp8283
a(g8282
g1454
g2715
tp8284
a(g1343
g1344
g3519
tp8285
a(g5898
g3667
g3668
tp8286
a(g3337
g3339
tp8287
a(g3337
g3339
g4229
tp8288
a(g5730
g5970
tp8289
a(g5730
g5970
g5971
tp8290
a(g5688
g166
tp8291
a(g5688
g166
g167
tp8292
a(g1967
g1969
tp8293
a(g1967
g1969
g3269
tp8294
a(g2078
g4019
tp8295
a(g2124
g2126
tp8296
a(g2124
g2126
g5033
tp8297
a(g196
Vthing
p8298
tp8299
a(g196
g8298
g3674
tp8300
a(g5034
g5036
tp8301
a(g5034
g5036
g4137
tp8302
a(Vthemostannoyingthingsinlife
p8303
g1590
tp8304
a(g8303
g1590
g1591
tp8305
a(g2382
g1564
tp8306
a(g2382
g1564
Vpeople
p8307
tp8308
a(g1546
g1510
tp8309
a(g1546
g1510
g6817
tp8310
a(g6817
g6819
tp8311
a(g6817
g6819
g7634
tp8312
a(g1547
g1833
tp8313
a(g1547
g1833
g1834
tp8314
a(Vthere
p8315
Vtime
p8316
tp8317
a(g8315
g8316
g3479
tp8318
a(g6476
g6478
tp8319
a(g4242
g2071
tp8320
a(g4242
g2071
g2072
tp8321
a(g659
g173
tp8322
a(g659
g173
g142
tp8323
a(Vtheres
p8324
g7189
tp8325
a(g8324
g7189
g7190
tp8326
a(g6794
g1463
tp8327
a(g6794
g1463
g3086
tp8328
a(g379
g1876
tp8329
a(g379
g1876
g1877
tp8330
a(g3295
g2119
g2120
tp8331
a(g1348
g1349
g2124
tp8332
a(g3647
g4459
tp8333
a(g3647
g4459
g5940
tp8334
a(g660
g2518
tp8335
a(g660
g2518
g2519
tp8336
a(g6748
g5124
tp8337
a(g6748
g5124
g5125
tp8338
a(g5949
g6878
tp8339
a(g3269
g1653
tp8340
a(g3269
g1653
g1654
tp8341
a(g4030
g1460
tp8342
a(g4030
g1460
g2879
tp8343
a(g6743
g3558
g2551
tp8344
a(g8298
g3674
g3675
tp8345
a(g580
g581
g3764
tp8346
a(g6459
g6014
tp8347
a(g6459
g6014
g1660
tp8348
a(g151
g6156
tp8349
a(g151
g6156
g4339
tp8350
a(g7198
g6861
tp8351
a(g7198
g6861
g3757
tp8352
a(g4198
g5768
tp8353
a(g6841
g2856
tp8354
a(g6841
g2856
g2857
tp8355
a(g1997
g8237
tp8356
a(g1997
g8237
Vinflicted
p8357
tp8358
a(g3123
g1711
tp8359
a(g3123
g1711
g901
tp8360
a(g5999
g2998
tp8361
a(g5999
g2998
g2999
tp8362
a(Vthink
p8363
g1466
tp8364
a(g8363
g1466
g3169
tp8365
a(g5118
g1471
tp8366
a(g5118
g1471
g1501
tp8367
a(g5758
g5552
tp8368
a(g5758
g5552
g5553
tp8369
a(g1766
g7769
tp8370
a(g3930
g7142
tp8371
a(g3930
g7142
g7143
tp8372
a(g66
g4238
tp8373
a(g66
g4238
g241
tp8374
a(Vthink
p8375
g8185
tp8376
a(g8375
g8185
g1643
tp8377
a(g4241
g4242
tp8378
a(g4241
g4242
g2071
tp8379
a(g3878
g660
tp8380
a(g3878
g660
g2518
tp8381
a(g8121
g666
tp8382
a(g8121
g666
g7127
tp8383
a(g4245
g4246
tp8384
a(g4245
g4246
g2376
tp8385
a(g4024
g1398
tp8386
a(g4024
g1398
g1399
tp8387
a(g2821
Vwont
p8388
tp8389
a(g2821
g8388
g4861
tp8390
a(g6660
g4743
tp8391
a(g6660
g4743
g1572
tp8392
a(g7682
g1956
tp8393
a(g7682
g1956
g1957
tp8394
a(g152
g6482
tp8395
a(Vthis
p8396
g5582
tp8397
a(g8396
g5582
g5583
tp8398
a(Vthis
p8399
g6352
g6353
tp8400
a(g1351
g1352
g1529
tp8401
a(Vthis
p8402
g6910
tp8403
a(g8402
g6910
g2148
tp8404
a(g1992
g7549
tp8405
a(g1992
g7549
g8088
tp8406
a(g4028
g4030
tp8407
a(g4028
g4030
g1460
tp8408
a(Vthis
p8409
g673
tp8410
a(g8409
g673
Vwant
p8411
tp8412
a(Vthough
p8413
g3586
g3587
tp8414
a(g3274
g3993
g3994
tp8415
a(g5893
g5895
tp8416
a(g4556
g7854
tp8417
a(g4556
g7854
g7184
tp8418
a(g1548
g5576
tp8419
a(g1548
g5576
g7873
tp8420
a(g5110
g1487
tp8421
a(g5110
g1487
g3341
tp8422
a(g1549
g4034
tp8423
a(g1549
g4034
g5426
tp8424
a(g6719
g6343
tp8425
a(g6719
g6343
g6344
tp8426
a(g6033
g6035
tp8427
a(g6033
g6035
g1547
tp8428
a(g661
g1742
tp8429
a(g661
g1742
g1743
tp8430
a(g2692
g5418
tp8431
a(g2692
g5418
g3347
tp8432
a(g7367
g2753
tp8433
a(g7367
g2753
g2754
tp8434
a(Vtigoy
p8435
g4180
tp8436
a(g8435
g4180
g4181
tp8437
a(g4326
g1099
tp8438
a(g4326
g1099
g1100
tp8439
a(g662
g225
tp8440
a(g662
g225
g226
tp8441
a(Vtigue
p8442
Vwish
p8443
tp8444
a(g8442
g8443
g3190
tp8445
a(g1550
g2506
tp8446
a(g1550
g2506
Vsooverthis
p8447
tp8448
a(g5216
g1445
tp8449
a(g5216
g1445
g2044
tp8450
a(g4976
g4978
tp8451
a(g8316
g3479
tp8452
a(g8316
g3479
g3480
tp8453
a(g4249
g4251
tp8454
a(g4249
g4251
g5164
tp8455
a(g7661
g6379
tp8456
a(g7661
g6379
g6380
tp8457
a(g926
g4552
tp8458
a(g926
g4552
g2177
tp8459
a(g4461
g4463
tp8460
a(g4461
g4463
g7726
tp8461
a(g4555
g4556
tp8462
a(g4555
g4556
g7854
tp8463
a(g663
g3003
tp8464
a(g663
g3003
g3004
tp8465
a(g6490
g6492
tp8466
a(g6490
g6492
g6736
tp8467
a(g1425
Vyoure
p8468
tp8469
a(g1425
g8468
g8078
tp8470
a(g6452
g1545
tp8471
a(g2203
g1516
tp8472
a(g2203
g1516
g6913
tp8473
a(g5249
g2617
tp8474
a(g5249
g2617
g2618
tp8475
a(Vtoday
p8476
g3051
tp8477
a(g8476
g3051
g3052
tp8478
a(g1751
g1753
tp8479
a(g1751
g1753
g5350
tp8480
a(g178
g2363
tp8481
a(g178
g2363
g4068
tp8482
a(g4738
g5730
tp8483
a(g4738
g5730
g5970
tp8484
a(g4756
g5341
tp8485
a(g4756
g5341
Vwalk
p8486
tp8487
a(g6497
g6499
tp8488
a(g6497
g6499
g7111
tp8489
a(g8019
g6826
tp8490
a(g8019
g6826
g6653
tp8491
a(g1309
g1246
tp8492
a(g1309
g1246
g1247
tp8493
a(Vtomlinson
p8494
g8476
tp8495
a(g8494
g8476
g3051
tp8496
a(g3226
g3228
tp8497
a(g3226
g3228
Vyou
p8498
tp8499
a(g664
g3141
tp8500
a(g664
g3141
g6638
tp8501
a(g4641
g4889
tp8502
a(g4727
g6765
tp8503
a(g4727
g6765
g663
tp8504
a(g1551
g2896
tp8505
a(g1551
g2896
g2256
tp8506
a(g4294
g4940
tp8507
a(g3071
g1469
tp8508
a(g3071
g1469
g3321
tp8509
a(g1849
g1851
tp8510
a(g1849
g1851
g6441
tp8511
a(g1921
g4042
tp8512
a(Vtraffic
p8513
g6742
tp8514
a(g8513
g6742
g6743
tp8515
a(g6504
g6506
tp8516
a(g6504
g6506
g7001
tp8517
a(g7001
g5737
tp8518
a(g7001
g5737
g5738
tp8519
a(g5169
g5478
tp8520
a(g5169
g5478
g3437
tp8521
a(g4045
g4047
tp8522
a(g4045
g4047
g6968
tp8523
a(Vtree
p8524
Vyeaaahh
p8525
tp8526
a(g8524
g8525
Vtypical
p8527
tp8528
a(g2936
g6715
tp8529
a(g2936
g6715
Venjoyable
p8530
tp8531
a(g6509
g1562
tp8532
a(g6509
g1562
Vloose
p8533
tp8534
a(g3127
g3129
tp8535
a(g3127
g3129
Vmuch
p8536
tp8537
a(Vtruly
p8538
Vdislike
p8539
tp8540
a(g5692
g359
tp8541
a(g5692
g359
g5515
tp8542
a(g3896
g4724
tp8543
a(g3896
g4724
g4725
tp8544
a(g666
g7127
tp8545
a(g666
g7127
g7128
tp8546
a(Vtry
p8547
g7212
tp8548
a(g8547
g7212
g6849
tp8549
a(g667
g1483
tp8550
a(g667
g1483
g1149
tp8551
a(g1375
g1376
g4774
tp8552
a(g4050
g4052
g4777
tp8553
a(g3386
g3388
tp8554
a(g3386
g3388
g7050
tp8555
a(g1552
g7712
tp8556
a(g1552
g7712
g4480
tp8557
a(g4519
g6513
tp8558
a(g4519
g6513
g4581
tp8559
a(g2728
g234
tp8560
a(g2728
g234
g625
tp8561
a(Vturtles
p8562
g1497
tp8563
a(g8562
g1497
g1444
tp8564
a(g7025
g6580
g6581
tp8565
a(g5388
g5390
tp8566
a(g5388
g5390
g1144
tp8567
a(g7370
g7372
tp8568
a(g7370
g7372
g5802
tp8569
a(g6516
g6518
tp8570
a(g6516
g6518
Vback
p8571
tp8572
a(g7431
g7433
tp8573
a(g7431
g7433
g3225
tp8574
a(g5136
g606
tp8575
a(g5136
g606
g2095
tp8576
a(g6387
g1853
tp8577
a(g6387
g1853
g607
tp8578
a(g2874
g8143
tp8579
a(g2874
g8143
g6161
tp8580
a(g668
g5625
tp8581
a(g668
g5625
g8049
tp8582
a(g8527
g5322
tp8583
a(g8527
g5322
g2774
tp8584
a(g1904
g1906
g3578
tp8585
a(g8041
g5081
tp8586
a(g8041
g5081
g2028
tp8587
a(g3082
g3084
tp8588
a(g3082
g3084
Vpeople
p8589
tp8590
a(g2849
g4057
tp8591
a(g2849
g4057
g7705
tp8592
a(g895
g279
tp8593
a(g895
g279
g2986
tp8594
a(g3492
g7646
tp8595
a(g3492
g7646
g8033
tp8596
a(g4246
g2376
tp8597
a(g4246
g2376
g2377
tp8598
a(g1553
g5
tp8599
a(g1553
g5
g84
tp8600
a(g7634
g5810
tp8601
a(g7634
g5810
g3967
tp8602
a(g1554
g4926
tp8603
a(g1554
g4926
g5973
tp8604
a(g7028
g7030
tp8605
a(g7028
g7030
g7334
tp8606
a(g5685
g7202
tp8607
a(g5685
g7202
g7203
tp8608
a(g7004
g630
tp8609
a(Vuniversal
p8610
g6970
tp8611
a(g8610
g6970
g6971
tp8612
a(g7334
g7336
tp8613
a(g7334
g7336
Vhate
p8614
tp8615
a(g3882
g7339
tp8616
a(g3230
g2356
tp8617
a(g3230
g2356
g2357
tp8618
a(g3024
g3026
tp8619
a(g3024
g3026
g7367
tp8620
a(g669
g3466
tp8621
a(g1887
g1889
tp8622
a(g1887
g1889
g8280
tp8623
a(g6693
g1555
tp8624
a(g6693
g1555
g4023
tp8625
a(Vuse
p8626
g5132
tp8627
a(g8626
g5132
g4421
tp8628
a(g5208
g5363
tp8629
a(g5208
g5363
Vnothing
p8630
tp8631
a(g1555
g4023
tp8632
a(g1555
g4023
g4024
tp8633
a(g5012
g5014
tp8634
a(g5012
g5014
g5457
tp8635
a(g6521
g6523
tp8636
a(g6521
g6523
g7038
tp8637
a(g6957
g220
tp8638
a(g6957
g220
g221
tp8639
a(g5771
g4401
tp8640
a(g5771
g4401
g4402
tp8641
a(g3836
g1737
tp8642
a(g3836
g1737
g1738
tp8643
a(g6526
g6528
tp8644
a(g4061
g3159
tp8645
a(g4061
g3159
g3160
tp8646
a(g4324
g4326
tp8647
a(g4324
g4326
g1099
tp8648
a(g4064
g4066
tp8649
a(g4064
g4066
g249
tp8650
a(Vvirtues
p8651
g3833
tp8652
a(g8651
g3833
g3834
tp8653
a(g3185
g6530
tp8654
a(g1134
g4687
tp8655
a(g1134
g4687
g4688
tp8656
a(Vvom
p8657
g7597
tp8658
a(g8657
g7597
g4038
tp8659
a(g1388
g8657
g7597
tp8660
a(g671
g1388
g8657
tp8661
a(g7480
g1628
tp8662
a(g7480
g1628
g1629
tp8663
a(g258
g2923
tp8664
a(g258
g2923
g4064
tp8665
a(g3677
g4275
tp8666
a(g3677
g4275
g4276
tp8667
a(g6688
g7069
tp8668
a(Vwait
p8669
Vyoure
p8670
tp8671
a(g8669
g8670
g1801
tp8672
a(g6533
g3114
tp8673
a(g6533
g3114
g3115
tp8674
a(g1556
g5285
tp8675
a(g1556
g5285
g148
tp8676
a(g8486
g5328
tp8677
a(g8486
g5328
g5329
tp8678
a(g3287
g2345
tp8679
a(g3287
g2345
g1605
tp8680
a(g5555
g2398
tp8681
a(g5555
g2398
g2399
tp8682
a(g6539
g2971
tp8683
a(g6539
g2971
g2972
tp8684
a(g6703
g4145
tp8685
a(g6703
g4145
g4146
tp8686
a(Vwant
p8687
g5387
tp8688
a(g8687
g5387
g5388
tp8689
a(Vwant
p8690
g5673
tp8691
a(g8690
g5673
g5674
tp8692
a(Vwant
p8693
g5958
tp8694
a(g8693
g5958
g5959
tp8695
a(g5959
g5961
tp8696
a(g5959
g5961
g6539
tp8697
a(g8411
g7702
tp8698
a(g8411
g7702
g7464
tp8699
a(g59
g149
tp8700
a(g59
g149
g7247
tp8701
a(g3469
g3471
tp8702
a(g3469
g3471
g5913
tp8703
a(g6717
g6719
tp8704
a(g6717
g6719
g6343
tp8705
a(g4089
g382
tp8706
a(g4089
g382
g2833
tp8707
a(g1557
g1017
tp8708
a(g1557
g1017
g1018
tp8709
a(g2406
g5898
tp8710
a(g2406
g5898
g3667
tp8711
a(g2365
g1481
tp8712
a(g2365
g1481
g4506
tp8713
a(g1393
g1394
g6620
tp8714
a(Vwasnt
p8715
g3406
tp8716
a(g8715
g3406
g1440
tp8717
a(g1558
g5089
tp8718
a(g1558
g5089
g5090
tp8719
a(g3382
g3384
tp8720
a(g6543
g2415
tp8721
a(g6543
g2415
g2416
tp8722
a(g2137
g2059
tp8723
a(g2137
g2059
g2060
tp8724
a(g2543
g1985
tp8725
a(g2543
g1985
g1986
tp8726
a(g4072
g2111
tp8727
a(g4072
g2111
g2112
tp8728
a(g6715
g8530
tp8729
a(g5431
g5337
tp8730
a(g5431
g5337
g4465
tp8731
a(g6547
g5779
tp8732
a(g6547
g5779
g5780
tp8733
a(g179
g6549
tp8734
a(g179
g6549
g5929
tp8735
a(g6552
g6554
tp8736
a(g4076
g4078
tp8737
a(g4076
g4078
g7341
tp8738
a(g1559
g1519
tp8739
a(g1559
g1519
g7251
tp8740
a(g2419
g1531
tp8741
a(g2419
g1531
g7867
tp8742
a(g4081
g4083
tp8743
a(g5311
g4899
tp8744
a(g5311
g4899
g3182
tp8745
a(g1560
g3107
tp8746
a(g1560
g3107
g232
tp8747
a(g4656
g4658
tp8748
a(g5183
g2983
tp8749
a(g5183
g2983
g2842
tp8750
a(g5719
g1451
tp8751
a(g6557
g356
tp8752
a(g6557
g356
g5307
tp8753
a(g1398
g1399
g616
tp8754
a(g4814
g4816
g5012
tp8755
a(g5501
g5503
tp8756
a(g5501
g5503
g3549
tp8757
a(g6346
g5233
tp8758
a(g6346
g5233
g5234
tp8759
a(g672
g5658
tp8760
a(g672
g5658
g5659
tp8761
a(g7913
g7773
tp8762
a(g7913
g7773
g6266
tp8763
a(Vwent
p8764
g6151
tp8765
a(g8764
g6151
g4184
tp8766
a(g1561
g98
tp8767
a(g1561
g98
g4639
tp8768
a(Vwhat
p8769
g8363
tp8770
a(g8769
g8363
g1466
tp8771
a(g673
g8411
tp8772
a(g673
g8411
g7702
tp8773
a(Vwhat
p8774
Vwould
p8775
tp8776
a(g8774
g8775
g7952
tp8777
a(g674
g4280
tp8778
a(g674
g4280
g1500
tp8779
a(g2506
g8447
tp8780
a(g6853
g8273
tp8781
a(g6853
g8273
g6700
tp8782
a(g3307
g3309
tp8783
a(g3307
g3309
g3311
tp8784
a(Vwhen
p8785
g6814
tp8786
a(g8785
g6814
g4554
tp8787
a(g381
g37
tp8788
a(g381
g37
g29
tp8789
a(Vwhere
p8790
g6223
tp8791
a(g8790
g6223
g6224
tp8792
a(g6561
g6563
tp8793
a(g6561
g6563
g7004
tp8794
a(g6607
g5332
tp8795
a(g6607
g5332
g5333
tp8796
a(g4193
g5699
tp8797
a(g4193
g5699
g6486
tp8798
a(g4099
g3164
tp8799
a(g4099
g3164
g3165
tp8800
a(g4086
g4087
tp8801
a(g4086
g4087
g4918
tp8802
a(g675
g4089
tp8803
a(g675
g4089
g382
tp8804
a(Vwhoever
p8805
g1561
tp8806
a(g8805
g1561
g98
tp8807
a(g259
g171
tp8808
a(g259
g171
g4455
tp8809
a(g1978
g5787
tp8810
a(g1978
g5787
g5447
tp8811
a(g7626
g7259
tp8812
a(g7626
g7259
g6039
tp8813
a(g4092
g4094
tp8814
a(g4092
g4094
g1461
tp8815
a(g2471
g3280
tp8816
a(g2471
g3280
g3281
tp8817
a(g382
g2833
tp8818
a(g382
g2833
g2834
tp8819
a(Vwhy
p8820
g7101
tp8821
a(g8820
g7101
g4603
tp8822
a(g2052
g2054
g5954
tp8823
a(g1408
g46
g1420
tp8824
a(g6566
g1528
tp8825
a(g6566
g1528
g1509
tp8826
a(g5901
g1868
tp8827
a(g5901
g1868
g1869
tp8828
a(g7963
g65
tp8829
a(g7963
g65
g6017
tp8830
a(g1562
g8533
tp8831
a(g5852
g6754
tp8832
a(g5852
g6754
g3489
tp8833
a(g1738
g1740
tp8834
a(g8443
g3190
g2710
tp8835
a(g6569
g3215
g3216
tp8836
a(Vwish
p8837
g3220
g3221
tp8838
a(g7433
g3225
g3226
tp8839
a(g270
g271
g3230
tp8840
a(Vwish
p8841
g7098
tp8842
a(g8841
g7098
g1559
tp8843
a(g2618
g2620
tp8844
a(g2618
g2620
g5744
tp8845
a(g5905
g5303
tp8846
a(g5905
g5303
g5304
tp8847
a(Vwith
p8848
g2228
tp8849
a(g8848
g2228
g2229
tp8850
a(g4870
g2188
tp8851
a(g4870
g2188
g2189
tp8852
a(g2529
g7136
tp8853
a(g2529
g7136
g8045
tp8854
a(g1816
g2675
tp8855
a(g1816
g2675
g8112
tp8856
a(g298
g2142
tp8857
a(g298
g2142
g2928
tp8858
a(g6289
g6801
tp8859
a(g6289
g6801
g5724
tp8860
a(g6470
g936
tp8861
a(g6470
g936
g106
tp8862
a(g6728
g5098
tp8863
a(g6728
g5098
g5099
tp8864
a(g1563
g2471
tp8865
a(g1563
g2471
g3280
tp8866
a(g8205
g4930
tp8867
a(g8205
g4930
g4931
tp8868
a(g6572
g6574
tp8869
a(g6572
g6574
g1782
tp8870
a(g4097
g4099
tp8871
a(g4097
g4099
g3164
tp8872
a(g1564
g8307
tp8873
a(g1564
g8307
Vdislike
p8874
tp8875
a(g2965
g1526
tp8876
a(g2965
g1526
g1537
tp8877
a(g5909
g5911
tp8878
a(g5909
g5911
g7661
tp8879
a(g8388
g4861
tp8880
a(g8388
g4861
g237
tp8881
a(g676
g365
tp8882
a(g676
g365
g2818
tp8883
a(g2819
g2821
tp8884
a(g2819
g2821
g8388
tp8885
a(g7538
g2741
tp8886
a(g7538
g2741
g1600
tp8887
a(g2931
g8108
tp8888
a(g4102
g1449
tp8889
a(g5121
g3237
tp8890
a(g5121
g3237
g3238
tp8891
a(g1666
g6577
tp8892
a(g384
g4106
tp8893
a(g5036
g4137
tp8894
a(g5036
g4137
g4138
tp8895
a(g4835
g4836
tp8896
a(g4835
g4836
g5526
tp8897
a(g978
Vlove
p8898
Vmuch
p8899
tp8900
a(g2571
g5211
tp8901
a(g6697
g2261
tp8902
a(g6697
g2261
g2262
tp8903
a(g1565
g7451
tp8904
a(g1565
g7451
g4358
tp8905
a(g4525
g4527
tp8906
a(Vwould
p8907
g340
tp8908
a(g8907
g340
g251
tp8909
a(g6964
g3154
tp8910
a(g6964
g3154
g3155
tp8911
a(g5038
g4753
tp8912
a(g5038
g4753
g4754
tp8913
a(g8237
g8357
tp8914
a(g2054
g5954
tp8915
a(g2054
g5954
g5955
tp8916
a(g1639
g1641
g5452
tp8917
a(g1634
g1636
g6339
tp8918
a(g599
g600
g6389
tp8919
a(g8775
g7952
g6669
tp8920
a(g46
g1420
g7963
tp8921
a(g5341
g8486
tp8922
a(g5341
g8486
g5328
tp8923
a(g6801
g5724
tp8924
a(g6801
g5724
g5725
tp8925
a(g7033
g5635
tp8926
a(g7033
g5635
g1568
tp8927
a(Vwow
p8928
g2730
tp8929
a(g8928
g2730
g2731
tp8930
a(g385
g5611
tp8931
a(g385
g5611
g2464
tp8932
a(g3234
g642
tp8933
a(g3234
g642
g6030
tp8934
a(g1424
g1425
g8468
tp8935
a(Vwtf
p8936
g385
tp8937
a(g8936
g385
g5611
tp8938
a(g4109
g4111
tp8939
a(g4109
g4111
g5838
tp8940
a(g1567
g3459
tp8941
a(g1567
g3459
g3460
tp8942
a(g3460
g3462
tp8943
a(g3460
g3462
g4736
tp8944
a(g4521
g6584
tp8945
a(g1568
g3187
tp8946
a(g1568
g3187
g315
tp8947
a(Vyall
p8948
g3615
tp8949
a(g8948
g3615
g3616
tp8950
a(g386
g12
tp8951
a(g1142
g1513
tp8952
a(g1142
g1513
g6897
tp8953
a(Vyay
p8954
g6438
tp8955
a(g8954
g6438
g6439
tp8956
a(g2703
g2705
tp8957
a(g2703
g2705
g6572
tp8958
a(g8525
g8527
tp8959
a(g8525
g8527
g5322
tp8960
a(g5463
g3440
tp8961
a(g5463
g3440
g3441
tp8962
a(g4066
g249
tp8963
a(g4066
g249
g296
tp8964
a(g678
g6005
tp8965
a(g678
g6005
g7637
tp8966
a(g4673
g4675
tp8967
a(g4673
g4675
g193
tp8968
a(g3016
g1775
tp8969
a(g3016
g1775
g1776
tp8970
a(Vyes
p8971
g6234
tp8972
a(g8971
g6234
g1496
tp8973
a(g6499
g7111
tp8974
a(g6499
g7111
g3139
tp8975
a(g2095
g2097
tp8976
a(g2095
g2097
g6843
tp8977
a(g679
g99
tp8978
a(g679
g99
g59
tp8979
a(g4490
g96
tp8980
a(g4490
g96
g1873
tp8981
a(g6587
g1971
tp8982
a(g6587
g1971
g299
tp8983
a(g6590
g2332
tp8984
a(g6590
g2332
g2333
tp8985
a(g2336
g2338
tp8986
a(g3311
g2523
tp8987
a(g3311
g2523
g2524
tp8988
a(g4604
g4606
g5558
tp8989
a(g4685
g6592
tp8990
a(g8273
g6700
tp8991
a(g8273
g6700
g6701
tp8992
a(g6594
g6595
tp8993
a(g6594
g6595
g6872
tp8994
a(g2291
g6597
tp8995
a(g2291
g6597
g6907
tp8996
a(g1145
g1146
g6964
tp8997
a(g763
g6599
tp8998
a(g6602
g6603
tp8999
a(Vyou
p9000
g7344
tp9001
a(g9000
g7344
g1492
tp9002
a(Vyou
p9003
g1236
tp9004
a(g9003
g1236
g1237
tp9005
a(g2770
g2772
tp9006
a(g2770
g2772
g7643
tp9007
a(Vyou
p9008
g7807
tp9009
a(g9008
g7807
g3494
tp9010
a(g5576
g7873
tp9011
a(g5576
g7873
g5701
tp9012
a(Vyou
p9013
g577
tp9014
a(g9013
g577
g578
tp9015
a(g5564
g6605
tp9016
a(g6701
g6703
tp9017
a(g6701
g6703
g4145
tp9018
a(g1871
g6607
tp9019
a(g1871
g6607
g5332
tp9020
a(g7223
g2166
tp9021
a(g7223
g2166
g2167
tp9022
a(g8049
g5574
tp9023
a(g8049
g5574
g1548
tp9024
a(g5265
g5623
tp9025
a(g5265
g5623
g668
tp9026
a(g3854
g2809
tp9027
a(g3854
g2809
g2810
tp9028
a(g6907
g1668
tp9029
a(g6907
g1668
g1669
tp9030
a(Vyour
p9031
g611
tp9032
a(g9031
g611
g2659
tp9033
a(g299
g1973
tp9034
a(g6614
g6616
tp9035
a(g6614
g6616
g5561
tp9036
a(g7646
g8033
tp9037
a(g7646
g8033
g3456
tp9038
a(g6007
g1763
tp9039
a(g6007
g1763
g1764
tp9040
a(g8670
g1801
tp9041
a(g8670
g1801
g612
tp9042
a(g2955
g1893
tp9043
a(g2955
g1893
g1894
tp9044
a(Vyoure
p9045
g1452
tp9046
a(g9045
g1452
g2599
tp9047
a(g109
g6641
tp9048
a(g109
g6641
g6145
tp9049
a(g4675
g193
tp9050
a(g4675
g193
g547
tp9051
a(g5441
g5443
tp9052
a(g5441
g5443
g6727
tp9053
a(g8468
g8078
tp9054
a(g8468
g8078
g7162
tp9055
a(g6763
g3007
tp9056
a(g6763
g3007
g3008
tp9057
a(g6295
g6875
tp9058
a(g6295
g6875
g8008
tp9059
a(g4115
g3503
tp9060
a(g4115
g3503
g3504
tp9061
a(g5251
g2202
tp9062
a(g5251
g2202
g2203
tp9063
a(Vyow
p9064
g4514
tp9065
a(g9064
g4514
g4515
tp9066
a(Vzacarias
p9067
Vplease
p9068
tp9069
a(g9067
g9068
Vfollow
p9070
tp9071
a(g6626
g6628
tp9072
a(g6626
g6628
g8121
tp9073
a(g3484
g5904
tp9074
a(g3484
g5904
g5905
tp9075
a(g1569
g7208
tp9076
ag1577
ag1582
ag1587
ag1590
ag1595
ag1600
ag1605
ag1610
ag1615
ag1620
ag1623
ag1628
ag6423
ag1633
ag4577
ag6684
ag1638
ag1643
ag1648
ag1660
ag1663
ag1671
ag1672
ag1684
ag1701
ag1706
ag3536
ag1726
ag1730
ag1742
ag1747
ag1750
ag1755
ag1924
ag1768
ag1606
ag1796
ag1801
ag3501
ag1808
ag1813
ag1818
ag1823
ag1828
ag1833
ag2939
ag1898
ag1724
ag1661
ag1903
ag1908
ag4599
ag1913
ag1918
ag1975
ag1999
ag2003
ag2006
ag2010
ag2888
ag2013
ag6069
ag2016
ag2021
ag2051
ag2056
ag5792
ag1616
ag2102
ag2107
ag2111
ag2116
ag2140
ag2144
ag4440
ag2017
ag2166
ag6836
ag2169
ag2185
ag2188
ag2191
ag2194
ag2202
ag1797
ag2207
ag2216
ag5768
ag2228
ag2231
ag2236
ag2241
ag2246
ag2251
ag2275
ag2293
ag2298
ag2335
ag2340
ag2161
ag6086
ag6089
ag2388
ag2393
ag2398
ag2403
ag2408
ag2412
ag3553
ag2415
ag2418
ag2422
ag2427
ag1926
ag2432
ag2449
ag2459
ag2464
ag2469
ag2473
ag2493
ag2338
ag2508
ag2537
ag4506
ag2542
ag2573
ag2578
ag2596
ag2605
ag2666
ag2669
ag3438
ag2257
ag2679
ag2684
ag2689
ag2694
ag6105
ag2702
ag2707
ag2719
ag1930
ag2723
ag2726
ag2730
ag2547
ag2736
ag2741
ag2744
ag2750
ag2753
ag2769
ag2774
ag2790
ag2795
ag2809
ag2814
ag2818
ag2823
ag2827
ag2830
ag2833
ag2837
ag2842
ag3849
ag2861
ag2871
ag2004
ag2882
ag2887
ag2890
ag1613
ag2879
ag5474
ag2925
ag2928
ag2933
ag2964
ag7038
ag2349
ag2971
ag2976
ag2980
ag3003
ag3007
ag2151
ag1785
ag3015
ag3028
ag3032
ag3576
ag3039
ag3043
ag3046
ag3051
ag3055
ag3058
ag3062
ag3067
ag3070
ag3074
ag1740
ag2552
ag2109
ag5366
ag3081
ag3961
ag3578
ag1770
ag3089
ag3092
ag3587
ag3095
ag2022
ag3078
ag5803
ag3098
ag3101
ag5226
ag2885
ag2731
ag3134
ag1964
ag6528
ag3139
ag6122
ag6584
ag3004
ag1593
ag3154
ag3159
ag3164
ag3177
ag3182
ag3377
ag2134
ag7328
ag3187
ag3056
ag4424
ag3237
ag3247
ag3251
ag3256
ag2276
ag5885
ag1745
ag3265
ag1969
ag3280
ag3284
ag3289
ag3298
ag3302
ag6137
ag4019
ag3160
ag6140
ag1651
ag3324
ag3336
ag3341
ag3344
ag3359
ag2556
ag2180
ag4997
ag1760
ag4661
ag3406
ag3409
ag2899
ag3415
ag6482
ag3418
ag3421
ag3426
ag2100
ag2581
ag3437
ag3440
ag1674
ag3445
ag3450
ag3453
ag3456
ag3459
ag3464
ag3468
ag3486
ag3489
ag3494
ag3506
ag2777
ag3519
ag3523
ag7719
ag1621
ag4118
ag3266
ag4129
ag2733
ag6968
ag2986
ag2815
ag2564
ag2394
ag3316
ag4275
ag1677
ag2780
ag4280
ag2579
ag4286
ag5921
ag4291
ag4304
ag3616
ag4311
ag2462
ag4323
ag2944
ag4330
ag6948
ag2521
ag2854
ag4333
ag4336
ag4339
ag8530
ag2942
ag6577
ag3620
ag4347
ag2296
ag4358
ag3372
ag3844
ag1733
ag2259
ag4421
ag3362
ag3332
ag2914
ag4289
ag1935
ag4480
ag4484
ag4502
ag3021
ag3750
ag4529
ag4534
ag4543
ag4546
ag4006
ag4562
ag3636
ag4568
ag3658
ag1940
ag3983
ag2825
ag3971
ag5424
ag4634
ag2221
ag3663
ag4366
ag3668
ag2440
ag3194
ag2798
ag4724
ag3675
ag4731
ag3462
ag2612
ag1860
ag4787
ag2249
ag3652
ag2254
ag4813
ag4885
ag2812
ag4892
ag3628
ag5619
ag2969
ag4292
ag2433
ag2103
ag1847
ag4983
ag4988
ag4999
ag2950
ag2200
ag5016
ag5019
ag4282
ag5027
ag2389
ag5044
ag5049
ag3375
ag5059
ag5067
ag5070
ag4952
ag5077
ag5081
ag4906
ag5782
ag5089
ag5124
ag7822
ag5132
ag5135
ag3693
ag5195
ag2748
ag2569
ag5073
ag2214
ag3135
ag5218
ag4302
ag5242
ag5258
ag6208
ag5149
ag5270
ag5274
ag5292
ag6211
ag5297
ag5314
ag5322
ag5328
ag5332
ag4211
ag1949
ag5337
ag4754
ag5343
ag3065
ag5365
ag5368
ag5373
ag5387
ag7072
ag3704
ag3709
ag6638
ag2904
ag2989
ag4276
ag1899
ag4034
ag3424
ag8357
ag3180
ag5422
ag5435
ag1839
ag5440
ag3427
ag5447
ag1591
ag5452
ag1580
ag3477
ag5468
ag5471
ag5738
ag8125
ag5519
ag5522
ag6230
ag2863
ag3350
ag4836
ag5530
ag5534
ag5539
ag4688
ag5459
ag5071
ag5549
ag5552
ag4759
ag5558
ag2622
ag5587
ag5592
ag6554
ag4559
ag3281
ag5599
ag5603
ag5295
ag1715
ag6240
ag3672
ag5329
ag3721
ag4191
ag5701
ag4654
ag5710
ag4701
ag3504
ag5732
ag2270
ag5839
ag5737
ag5749
ag5754
ag5757
ag3934
ag6355
ag4397
ag8108
ag3729
ag5315
ag5779
ag5913
ag3800
ag1694
ag5925
ag7128
ag2685
ag5929
ag5963
ag4926
ag3638
ag6021
ag2445
ag8533
ag2891
ag5052
ag5659
ag6630
ag5061
ag6419
ag1756
ag6592
ag5085
ag6641
ag6274
ag6022
ag6650
ag1952
ag6721
ag7208
ag6492
ag4883
ag5512
ag3777
ag6751
ag4219
ag6276
ag6774
ag4866
ag6791
ag6282
ag4591
ag6287
ag4535
ag5606
ag6809
ag3167
ag8029
ag3772
ag3511
ag2097
ag2910
ag4214
ag6849
ag4767
ag1884
ag6861
ag3052
ag3743
ag3788
ag3791
ag2648
ag3665
ag5699
ag6899
ag3796
ag6910
ag2416
ag6599
ag6603
ag6312
ag6314
ag3162
ag3812
ag8008
ag3816
ag6980
ag6991
ag2867
ag6989
ag6506
ag6563
ag3388
ag2239
ag5457
ag7058
ag7061
ag7071
ag3257
ag3829
ag7087
ag3834
ag4910
ag7095
ag7098
ag3839
ag6884
ag5936
ag7127
ag4868
ag7132
ag6322
ag2527
ag5855
ag7142
ag5496
ag5298
ag3218
ag4146
ag7212
ag2114
ag7217
ag7220
ag3793
ag1631
ag4916
ag3433
ag6336
ag4431
ag4777
ag5103
ag4804
ag2309
ag3175
ag4682
ag6341
ag7247
ag5585
ag7256
ag7259
ag7262
ag1626
ag5438
ag7221
ag3847
ag3852
ag6339
ag6344
ag6363
ag7356
ag3975
ag7361
ag4442
ag6353
ag3026
ag7542
ag7313
ag2374
ag7376
ag7190
ag2443
ag1753
ag2232
ag3466
ag4725
ag3894
ag1819
ag4094
ag3760
ag6361
ag7435
ag6843
ag7436
ag5042
ag6370
ag2511
ag3115
ag7451
ag3252
ag5167
ag4238
ag7464
ag3903
ag1826
ag6373
ag2759
ag3352
ag7479
ag2112
ag1957
ag4312
ag5371
ag3157
ag5173
ag2981
ag6319
ag6376
ag4234
ag3869
ag3910
ag3701
ag4216
ag2178
ag7524
ag5426
ag1680
ag4971
ag4872
ag2164
ag6380
ag4622
ag7555
ag3196
ag7562
ag5211
ag7648
ag3254
ag3873
ag1722
ag7656
ag5911
ag2399
ag2912
ag3049
ag4722
ag2019
ag3919
ag4782
ag6400
ag3923
ag7708
ag7715
ag1697
ag5940
ag1877
ag2977
ag4463
ag5986
ag4317
ag7624
ag2700
ag2237
ag5846
ag4106
ag7773
ag1882
ag6987
ag7788
ag7763
ag1962
ag3780
ag4808
ag4772
ag2708
ag4016
ag6712
ag6411
ag4200
ag3928
ag7830
ag3173
ag7069
ag2132
ag6414
ag7837
ag5588
ag6889
ag4414
ag4918
ag2046
ag7873
ag7883
ag4549
ag7890
ag4497
ag7143
ag2285
ag5469
ag3944
ag7867
ag6024
ag7912
ag5171
ag7643
ag2843
ag6433
ag2840
ag3949
ag6439
ag6441
ag4509
ag3959
ag3964
ag1909
ag8447
ag5009
ag6035
ag5683
ag3660
ag7325
ag4503
ag8033
ag4206
ag8040
ag3986
ag3457
ag2754
ag6455
ag5625
ag3723
ag3774
ag8061
ag4694
ag8083
ag3379
ag2929
ag4000
ag2675
ag6628
ag2175
ag7263
ag6464
ag5090
ag8136
ag2554
ag6382
ag7525
ag2410
ag2662
ag7427
ag4649
ag5604
ag8179
ag3695
ag5750
ag8185
ag6878
ag2142
ag4912
ag3327
ag2516
ag5995
ag6549
ag1735
ag8204
ag4009
ag5320
ag4854
ag7215
ag1976
ag4307
ag7248
ag4732
ag4014
ag5369
ag1995
ag2715
ag8265
ag8275
ag4830
ag8303
ag2382
ag3319
ag6474
ag6476
ag6794
ag4021
ag6660
ag6484
ag5110
ag6033
ag7367
ag8442
ag6452
ag2203
ag6497
ag4039
ag8494
ag6501
ag4727
ag5559
ag3071
ag1849
ag1921
ag4434
ag8513
ag6504
ag7001
ag5169
ag4045
ag8524
ag2936
ag6402
ag6509
ag3127
ag6605
ag8538
ag5692
ag4412
ag4519
ag2728
ag8562
ag5136
ag8527
ag3082
ag2849
ag3492
ag7634
ag5685
ag7004
ag8610
ag7334
ag3882
ag4042
ag3230
ag3024
ag2167
ag8626
ag5208
ag6521
ag6957
ag5771
ag4940
ag3836
ag6526
ag4064
ag8651
ag7726
ag2341
ag3334
ag6533
ag4069
ag3287
ag2365
ag8715
ag6543
ag4334
ag2137
ag6552
ag4076
ag7341
ag4081
ag4656
ag5183
ag5719
ag6557
ag2117
ag3090
ag3307
ag8790
ag6561
ag6607
ag4193
ag4099
ag2471
ag7637
ag6566
ag5901
ag7963
ag7705
ag1738
ag5905
ag6470
ag5909
ag7538
ag2931
ag6697
ag6801
ag7033
ag8936
ag1799
ag4109
ag4350
ag4371
ag4270
ag2192
ag4961
ag6581
ag8954
ag2703
ag8525
ag4673
ag3016
ag8971
ag6499
ag2322
ag2326
ag7223
ag8049
ag5265
ag2172
ag3854
ag6763
ag6620
ag4115
ag2330
ag5251
ag9064
ag1731
ag9067
ag6626
a.