(lp0
Vacc
p1
aVlove
p2
aVplease
p3
a(g1
Vfan
p4
tp5
a(g1
g4
Vacc
p6
tp7
a(g6
Vpls
p8
tp9
a(Vacknowledge
p10
Vexistence
p11
tp12
a(g10
g11
Vfollow
p13
tp14
a(Vbabe
p15
Vbirthday
p16
tp17
a(g15
g16
Vdays
p18
tp19
a(g16
g18
tp20
a(g16
g18
g3
tp21
a(Vdabiebahcrew
p22
Vlikedislike
p23
tp24
a(g22
g23
g1
tp25
a(g18
g3
tp26
a(g18
g3
g10
tp27
a(Vdislike
p28
Vradio
p29
tp30
a(g28
g29
Vmusic
p31
tp32
a(Vevery
p33
Vfriday
p34
tp35
a(g11
g13
tp36
a(g11
g13
Vsay
p37
tp38
a(g4
g6
tp39
a(g4
g6
g8
tp40
a(g13
g37
tp41
a(g13
g37
Vplease
p42
tp43
a(Vgetting
p44
Vpaid
p45
tp46
a(g44
g45
g33
tp47
a(Vliam
p48
Vlove
p49
tp50
a(g48
g49
Vyou
p51
tp52
a(Vliampayne
p53
g15
tp54
a(g53
g15
g16
tp55
a(g23
g1
tp56
a(g23
g1
g4
tp57
a(g2
g44
tp58
a(g2
g44
g45
tp59
a(g49
g51
tp60
a(g45
g33
tp61
a(g45
g33
g34
tp62
a(g3
g10
tp63
a(g3
g10
g11
tp64
a(g42
g48
tp65
a(g42
g48
g49
tp66
a(g29
g31
tp67
a(g37
g42
tp68
a(g37
g42
g48
tp69
a(Vugh
p70
g28
tp71
a(g70
g28
g29
tp72
ag10
ag15
ag16
ag22
ag18
ag28
ag33
ag11
ag4
ag13
ag34
ag44
ag48
ag53
ag23
ag31
ag45
ag8
ag29
ag37
ag70
ag51
a.